
14-ADC.elf:     file format elf32-littlearm

Sections:
Idx Name          Size      VMA       LMA       File off  Algn
  0 .text         00009b04  00400000  00400000  00008000  2**3
                  CONTENTS, ALLOC, LOAD, READONLY, CODE
  1 .ARM.exidx    00000008  00409b04  00409b04  00011b04  2**2
                  CONTENTS, ALLOC, LOAD, READONLY, DATA
  2 .relocate     00000884  20000000  00409b0c  00018000  2**3
                  CONTENTS, ALLOC, LOAD, DATA
  3 .bss          000004d4  20000884  0040a390  00018884  2**2
                  ALLOC
  4 .stack        00003000  20000d58  0040a864  00018884  2**0
                  ALLOC
  5 .ARM.attributes 0000002a  00000000  00000000  00018884  2**0
                  CONTENTS, READONLY
  6 .comment      0000005b  00000000  00000000  000188ae  2**0
                  CONTENTS, READONLY
  7 .debug_info   00009ed6  00000000  00000000  00018909  2**0
                  CONTENTS, READONLY, DEBUGGING
  8 .debug_abbrev 000017b9  00000000  00000000  000227df  2**0
                  CONTENTS, READONLY, DEBUGGING
  9 .debug_loc    00006074  00000000  00000000  00023f98  2**0
                  CONTENTS, READONLY, DEBUGGING
 10 .debug_aranges 00000a88  00000000  00000000  0002a00c  2**0
                  CONTENTS, READONLY, DEBUGGING
 11 .debug_ranges 000009a8  00000000  00000000  0002aa94  2**0
                  CONTENTS, READONLY, DEBUGGING
 12 .debug_macro  00013e5d  00000000  00000000  0002b43c  2**0
                  CONTENTS, READONLY, DEBUGGING
 13 .debug_line   0000aa57  00000000  00000000  0003f299  2**0
                  CONTENTS, READONLY, DEBUGGING
 14 .debug_str    000596dc  00000000  00000000  00049cf0  2**0
                  CONTENTS, READONLY, DEBUGGING
 15 .debug_frame  00003854  00000000  00000000  000a33cc  2**2
                  CONTENTS, READONLY, DEBUGGING

Disassembly of section .text:

00400000 <_sfixed>:
  400000:	20003d58 	.word	0x20003d58
  400004:	00402131 	.word	0x00402131
  400008:	004021f9 	.word	0x004021f9
  40000c:	004021f9 	.word	0x004021f9
  400010:	004021f9 	.word	0x004021f9
  400014:	004021f9 	.word	0x004021f9
  400018:	004021f9 	.word	0x004021f9
	...
  40002c:	004021f9 	.word	0x004021f9
  400030:	004021f9 	.word	0x004021f9
  400034:	00000000 	.word	0x00000000
  400038:	004021f9 	.word	0x004021f9
  40003c:	004021f9 	.word	0x004021f9
  400040:	004021f9 	.word	0x004021f9
  400044:	004021f9 	.word	0x004021f9
  400048:	004021f9 	.word	0x004021f9
  40004c:	004021f9 	.word	0x004021f9
  400050:	004021f9 	.word	0x004021f9
  400054:	004021f9 	.word	0x004021f9
  400058:	004021f9 	.word	0x004021f9
  40005c:	004021f9 	.word	0x004021f9
  400060:	004021f9 	.word	0x004021f9
  400064:	004021f9 	.word	0x004021f9
  400068:	00000000 	.word	0x00000000
  40006c:	00401e09 	.word	0x00401e09
  400070:	00401e21 	.word	0x00401e21
  400074:	00401e39 	.word	0x00401e39
  400078:	004021f9 	.word	0x004021f9
  40007c:	004021f9 	.word	0x004021f9
	...
  400088:	004021f9 	.word	0x004021f9
  40008c:	004021f9 	.word	0x004021f9
  400090:	004021f9 	.word	0x004021f9
  400094:	004021f9 	.word	0x004021f9
  400098:	004021f9 	.word	0x004021f9
  40009c:	004025dd 	.word	0x004025dd
  4000a0:	004021f9 	.word	0x004021f9
  4000a4:	004021f9 	.word	0x004021f9
  4000a8:	004021f9 	.word	0x004021f9
  4000ac:	004021f9 	.word	0x004021f9
  4000b0:	004021f9 	.word	0x004021f9
  4000b4:	00402611 	.word	0x00402611
  4000b8:	004021f9 	.word	0x004021f9
  4000bc:	004021f9 	.word	0x004021f9
  4000c0:	004021f9 	.word	0x004021f9
  4000c4:	004021f9 	.word	0x004021f9
  4000c8:	004021f9 	.word	0x004021f9

004000cc <__do_global_dtors_aux>:
  4000cc:	b510      	push	{r4, lr}
  4000ce:	4c05      	ldr	r4, [pc, #20]	; (4000e4 <__do_global_dtors_aux+0x18>)
  4000d0:	7823      	ldrb	r3, [r4, #0]
  4000d2:	b933      	cbnz	r3, 4000e2 <__do_global_dtors_aux+0x16>
  4000d4:	4b04      	ldr	r3, [pc, #16]	; (4000e8 <__do_global_dtors_aux+0x1c>)
  4000d6:	b113      	cbz	r3, 4000de <__do_global_dtors_aux+0x12>
  4000d8:	4804      	ldr	r0, [pc, #16]	; (4000ec <__do_global_dtors_aux+0x20>)
  4000da:	f3af 8000 	nop.w
  4000de:	2301      	movs	r3, #1
  4000e0:	7023      	strb	r3, [r4, #0]
  4000e2:	bd10      	pop	{r4, pc}
  4000e4:	20000884 	.word	0x20000884
  4000e8:	00000000 	.word	0x00000000
  4000ec:	00409b0c 	.word	0x00409b0c

004000f0 <frame_dummy>:
  4000f0:	4b08      	ldr	r3, [pc, #32]	; (400114 <frame_dummy+0x24>)
  4000f2:	b510      	push	{r4, lr}
  4000f4:	b11b      	cbz	r3, 4000fe <frame_dummy+0xe>
  4000f6:	4808      	ldr	r0, [pc, #32]	; (400118 <frame_dummy+0x28>)
  4000f8:	4908      	ldr	r1, [pc, #32]	; (40011c <frame_dummy+0x2c>)
  4000fa:	f3af 8000 	nop.w
  4000fe:	4808      	ldr	r0, [pc, #32]	; (400120 <frame_dummy+0x30>)
  400100:	6803      	ldr	r3, [r0, #0]
  400102:	b903      	cbnz	r3, 400106 <frame_dummy+0x16>
  400104:	bd10      	pop	{r4, pc}
  400106:	4b07      	ldr	r3, [pc, #28]	; (400124 <frame_dummy+0x34>)
  400108:	2b00      	cmp	r3, #0
  40010a:	d0fb      	beq.n	400104 <frame_dummy+0x14>
  40010c:	e8bd 4010 	ldmia.w	sp!, {r4, lr}
  400110:	4718      	bx	r3
  400112:	bf00      	nop
  400114:	00000000 	.word	0x00000000
  400118:	00409b0c 	.word	0x00409b0c
  40011c:	20000888 	.word	0x20000888
  400120:	00409b0c 	.word	0x00409b0c
  400124:	00000000 	.word	0x00000000

00400128 <adc_init>:
 *
 * \return 0 on success.
 */
uint32_t adc_init(Adc *p_adc, const uint32_t ul_mck,
		const uint32_t ul_adc_clock, const enum adc_startup_time startup)
{
  400128:	b480      	push	{r7}
  40012a:	b087      	sub	sp, #28
  40012c:	af00      	add	r7, sp, #0
  40012e:	60f8      	str	r0, [r7, #12]
  400130:	60b9      	str	r1, [r7, #8]
  400132:	607a      	str	r2, [r7, #4]
  400134:	603b      	str	r3, [r7, #0]
	uint32_t ul_prescal;

	/*  Reset the controller. */
	p_adc->ADC_CR = ADC_CR_SWRST;
  400136:	68fb      	ldr	r3, [r7, #12]
  400138:	2201      	movs	r2, #1
  40013a:	601a      	str	r2, [r3, #0]

	/* Reset Mode Register. */
	p_adc->ADC_MR = 0;
  40013c:	68fb      	ldr	r3, [r7, #12]
  40013e:	2200      	movs	r2, #0
  400140:	605a      	str	r2, [r3, #4]

	/* Reset PDC transfer. */
	p_adc->ADC_PTCR = (ADC_PTCR_RXTDIS | ADC_PTCR_TXTDIS);
  400142:	68fb      	ldr	r3, [r7, #12]
  400144:	f240 2202 	movw	r2, #514	; 0x202
  400148:	f8c3 2120 	str.w	r2, [r3, #288]	; 0x120
	p_adc->ADC_RCR = 0;
  40014c:	68fb      	ldr	r3, [r7, #12]
  40014e:	2200      	movs	r2, #0
  400150:	f8c3 2104 	str.w	r2, [r3, #260]	; 0x104
	p_adc->ADC_RNCR = 0;
  400154:	68fb      	ldr	r3, [r7, #12]
  400156:	2200      	movs	r2, #0
  400158:	f8c3 2114 	str.w	r2, [r3, #276]	; 0x114

	ul_prescal = ul_mck / (2 * ul_adc_clock) - 1;
  40015c:	687b      	ldr	r3, [r7, #4]
  40015e:	005b      	lsls	r3, r3, #1
  400160:	68ba      	ldr	r2, [r7, #8]
  400162:	fbb2 f3f3 	udiv	r3, r2, r3
  400166:	3b01      	subs	r3, #1
  400168:	617b      	str	r3, [r7, #20]
	p_adc->ADC_MR |= ADC_MR_PRESCAL(ul_prescal) | startup;
  40016a:	68fb      	ldr	r3, [r7, #12]
  40016c:	685a      	ldr	r2, [r3, #4]
  40016e:	697b      	ldr	r3, [r7, #20]
  400170:	021b      	lsls	r3, r3, #8
  400172:	b299      	uxth	r1, r3
  400174:	683b      	ldr	r3, [r7, #0]
  400176:	430b      	orrs	r3, r1
  400178:	431a      	orrs	r2, r3
  40017a:	68fb      	ldr	r3, [r7, #12]
  40017c:	605a      	str	r2, [r3, #4]
	return 0;
  40017e:	2300      	movs	r3, #0
}
  400180:	4618      	mov	r0, r3
  400182:	371c      	adds	r7, #28
  400184:	46bd      	mov	sp, r7
  400186:	f85d 7b04 	ldr.w	r7, [sp], #4
  40018a:	4770      	bx	lr

0040018c <adc_configure_trigger>:
 * ADC_MR_FREERUN_OFF disables freerun mode.
 *
 */
void adc_configure_trigger(Adc *p_adc, const enum adc_trigger_t trigger,
		uint8_t uc_freerun)
{
  40018c:	b480      	push	{r7}
  40018e:	b083      	sub	sp, #12
  400190:	af00      	add	r7, sp, #0
  400192:	6078      	str	r0, [r7, #4]
  400194:	460b      	mov	r3, r1
  400196:	70fb      	strb	r3, [r7, #3]
  400198:	4613      	mov	r3, r2
  40019a:	70bb      	strb	r3, [r7, #2]
	p_adc->ADC_MR |= trigger | ((uc_freerun << 7) & ADC_MR_FREERUN);
  40019c:	687b      	ldr	r3, [r7, #4]
  40019e:	685a      	ldr	r2, [r3, #4]
  4001a0:	78f9      	ldrb	r1, [r7, #3]
  4001a2:	78bb      	ldrb	r3, [r7, #2]
  4001a4:	01db      	lsls	r3, r3, #7
  4001a6:	b2db      	uxtb	r3, r3
  4001a8:	430b      	orrs	r3, r1
  4001aa:	431a      	orrs	r2, r3
  4001ac:	687b      	ldr	r3, [r7, #4]
  4001ae:	605a      	str	r2, [r3, #4]
}
  4001b0:	370c      	adds	r7, #12
  4001b2:	46bd      	mov	sp, r7
  4001b4:	f85d 7b04 	ldr.w	r7, [sp], #4
  4001b8:	4770      	bx	lr
  4001ba:	bf00      	nop

004001bc <adc_configure_timing>:
 * \param uc_settling Analog settling time = (uc_settling + 1) / ADC clock.
 * \param uc_transfer Data transfer time = (uc_transfer * 2 + 3) / ADC clock.
 */
void adc_configure_timing(Adc *p_adc, const uint8_t uc_tracking,
		const enum adc_settling_time_t settling,const uint8_t uc_transfer)
{
  4001bc:	b480      	push	{r7}
  4001be:	b085      	sub	sp, #20
  4001c0:	af00      	add	r7, sp, #0
  4001c2:	60f8      	str	r0, [r7, #12]
  4001c4:	607a      	str	r2, [r7, #4]
  4001c6:	461a      	mov	r2, r3
  4001c8:	460b      	mov	r3, r1
  4001ca:	72fb      	strb	r3, [r7, #11]
  4001cc:	4613      	mov	r3, r2
  4001ce:	72bb      	strb	r3, [r7, #10]
	p_adc->ADC_MR |= ADC_MR_TRANSFER(uc_transfer)
  4001d0:	68fb      	ldr	r3, [r7, #12]
  4001d2:	685a      	ldr	r2, [r3, #4]
  4001d4:	7abb      	ldrb	r3, [r7, #10]
  4001d6:	071b      	lsls	r3, r3, #28
  4001d8:	f003 5140 	and.w	r1, r3, #805306368	; 0x30000000
			| settling | ADC_MR_TRACKTIM(uc_tracking);
  4001dc:	687b      	ldr	r3, [r7, #4]
  4001de:	4319      	orrs	r1, r3
  4001e0:	7afb      	ldrb	r3, [r7, #11]
  4001e2:	061b      	lsls	r3, r3, #24
  4001e4:	f003 6370 	and.w	r3, r3, #251658240	; 0xf000000
  4001e8:	430b      	orrs	r3, r1
 * \param uc_transfer Data transfer time = (uc_transfer * 2 + 3) / ADC clock.
 */
void adc_configure_timing(Adc *p_adc, const uint8_t uc_tracking,
		const enum adc_settling_time_t settling,const uint8_t uc_transfer)
{
	p_adc->ADC_MR |= ADC_MR_TRANSFER(uc_transfer)
  4001ea:	431a      	orrs	r2, r3
  4001ec:	68fb      	ldr	r3, [r7, #12]
  4001ee:	605a      	str	r2, [r3, #4]
			| settling | ADC_MR_TRACKTIM(uc_tracking);
}
  4001f0:	3714      	adds	r7, #20
  4001f2:	46bd      	mov	sp, r7
  4001f4:	f85d 7b04 	ldr.w	r7, [sp], #4
  4001f8:	4770      	bx	lr
  4001fa:	bf00      	nop

004001fc <adc_start>:
 *
 * \param p_adc Pointer to an ADC instance.
 */

void adc_start(Adc *p_adc)
{
  4001fc:	b480      	push	{r7}
  4001fe:	b083      	sub	sp, #12
  400200:	af00      	add	r7, sp, #0
  400202:	6078      	str	r0, [r7, #4]
	p_adc->ADC_CR = ADC_CR_START;
  400204:	687b      	ldr	r3, [r7, #4]
  400206:	2202      	movs	r2, #2
  400208:	601a      	str	r2, [r3, #0]
}
  40020a:	370c      	adds	r7, #12
  40020c:	46bd      	mov	sp, r7
  40020e:	f85d 7b04 	ldr.w	r7, [sp], #4
  400212:	4770      	bx	lr

00400214 <adc_enable_channel>:
 *
 * \param p_adc Pointer to an ADC instance.
 * \param adc_ch ADC channel number.
 */
void adc_enable_channel(Adc *p_adc, const enum adc_channel_num_t adc_ch)
{
  400214:	b480      	push	{r7}
  400216:	b083      	sub	sp, #12
  400218:	af00      	add	r7, sp, #0
  40021a:	6078      	str	r0, [r7, #4]
  40021c:	460b      	mov	r3, r1
  40021e:	70fb      	strb	r3, [r7, #3]
	p_adc->ADC_CHER = 1 << adc_ch;
  400220:	78fb      	ldrb	r3, [r7, #3]
  400222:	2201      	movs	r2, #1
  400224:	fa02 f303 	lsl.w	r3, r2, r3
  400228:	461a      	mov	r2, r3
  40022a:	687b      	ldr	r3, [r7, #4]
  40022c:	611a      	str	r2, [r3, #16]
}
  40022e:	370c      	adds	r7, #12
  400230:	46bd      	mov	sp, r7
  400232:	f85d 7b04 	ldr.w	r7, [sp], #4
  400236:	4770      	bx	lr

00400238 <adc_get_channel_value>:
 * \param adc_ch ADC channel number.
 *
 * \return ADC value of the specified channel.
 */
uint32_t adc_get_channel_value(const Adc *p_adc, const enum adc_channel_num_t adc_ch)
{
  400238:	b480      	push	{r7}
  40023a:	b085      	sub	sp, #20
  40023c:	af00      	add	r7, sp, #0
  40023e:	6078      	str	r0, [r7, #4]
  400240:	460b      	mov	r3, r1
  400242:	70fb      	strb	r3, [r7, #3]
	uint32_t ul_data = 0;
  400244:	2300      	movs	r3, #0
  400246:	60fb      	str	r3, [r7, #12]

	if (15 >= adc_ch) {
  400248:	78fb      	ldrb	r3, [r7, #3]
  40024a:	2b0f      	cmp	r3, #15
  40024c:	d805      	bhi.n	40025a <adc_get_channel_value+0x22>
		ul_data = *(p_adc->ADC_CDR + adc_ch);
  40024e:	78fa      	ldrb	r2, [r7, #3]
  400250:	687b      	ldr	r3, [r7, #4]
  400252:	3214      	adds	r2, #20
  400254:	f853 3022 	ldr.w	r3, [r3, r2, lsl #2]
  400258:	60fb      	str	r3, [r7, #12]
	}

	return ul_data;
  40025a:	68fb      	ldr	r3, [r7, #12]
}
  40025c:	4618      	mov	r0, r3
  40025e:	3714      	adds	r7, #20
  400260:	46bd      	mov	sp, r7
  400262:	f85d 7b04 	ldr.w	r7, [sp], #4
  400266:	4770      	bx	lr

00400268 <adc_enable_interrupt>:
 *
 * \param p_adc Pointer to an ADC instance.
 * \param ul_source Interrupts to be enabled.
 */
void adc_enable_interrupt(Adc *p_adc, const uint32_t ul_source)
{
  400268:	b480      	push	{r7}
  40026a:	b083      	sub	sp, #12
  40026c:	af00      	add	r7, sp, #0
  40026e:	6078      	str	r0, [r7, #4]
  400270:	6039      	str	r1, [r7, #0]
	p_adc->ADC_IER = ul_source;
  400272:	687b      	ldr	r3, [r7, #4]
  400274:	683a      	ldr	r2, [r7, #0]
  400276:	625a      	str	r2, [r3, #36]	; 0x24
}
  400278:	370c      	adds	r7, #12
  40027a:	46bd      	mov	sp, r7
  40027c:	f85d 7b04 	ldr.w	r7, [sp], #4
  400280:	4770      	bx	lr
  400282:	bf00      	nop

00400284 <adc_get_status>:
 * \param p_adc Pointer to an ADC instance.
 *
 * \return ADC status structure.
 */
uint32_t adc_get_status(const Adc *p_adc)
{
  400284:	b480      	push	{r7}
  400286:	b083      	sub	sp, #12
  400288:	af00      	add	r7, sp, #0
  40028a:	6078      	str	r0, [r7, #4]
	return p_adc->ADC_ISR;
  40028c:	687b      	ldr	r3, [r7, #4]
  40028e:	6b1b      	ldr	r3, [r3, #48]	; 0x30
}
  400290:	4618      	mov	r0, r3
  400292:	370c      	adds	r7, #12
  400294:	46bd      	mov	sp, r7
  400296:	f85d 7b04 	ldr.w	r7, [sp], #4
  40029a:	4770      	bx	lr

0040029c <adc_enable_ts>:
 * \brief Turn on temperature sensor.
 *
 * \param p_adc Pointer to an ADC instance.
 */
void adc_enable_ts(Adc *p_adc)
{
  40029c:	b480      	push	{r7}
  40029e:	b083      	sub	sp, #12
  4002a0:	af00      	add	r7, sp, #0
  4002a2:	6078      	str	r0, [r7, #4]
	p_adc->ADC_ACR |= ADC_ACR_TSON;
  4002a4:	687b      	ldr	r3, [r7, #4]
  4002a6:	f8d3 3094 	ldr.w	r3, [r3, #148]	; 0x94
  4002aa:	f043 0210 	orr.w	r2, r3, #16
  4002ae:	687b      	ldr	r3, [r7, #4]
  4002b0:	f8c3 2094 	str.w	r2, [r3, #148]	; 0x94
}
  4002b4:	370c      	adds	r7, #12
  4002b6:	46bd      	mov	sp, r7
  4002b8:	f85d 7b04 	ldr.w	r7, [sp], #4
  4002bc:	4770      	bx	lr
  4002be:	bf00      	nop

004002c0 <tc_init>:
 */
void tc_init(
		Tc *p_tc,
		uint32_t ul_channel,
		uint32_t ul_mode)
{
  4002c0:	b480      	push	{r7}
  4002c2:	b087      	sub	sp, #28
  4002c4:	af00      	add	r7, sp, #0
  4002c6:	60f8      	str	r0, [r7, #12]
  4002c8:	60b9      	str	r1, [r7, #8]
  4002ca:	607a      	str	r2, [r7, #4]

	/* Validate inputs. */
	Assert(p_tc);
	Assert(ul_channel <
			(sizeof(p_tc->TC_CHANNEL) / sizeof(p_tc->TC_CHANNEL[0])));
	tc_channel = p_tc->TC_CHANNEL + ul_channel;
  4002cc:	68bb      	ldr	r3, [r7, #8]
  4002ce:	019b      	lsls	r3, r3, #6
  4002d0:	68fa      	ldr	r2, [r7, #12]
  4002d2:	4413      	add	r3, r2
  4002d4:	617b      	str	r3, [r7, #20]

	/*  Disable TC clock. */
	tc_channel->TC_CCR = TC_CCR_CLKDIS;
  4002d6:	697b      	ldr	r3, [r7, #20]
  4002d8:	2202      	movs	r2, #2
  4002da:	601a      	str	r2, [r3, #0]

	/*  Disable interrupts. */
	tc_channel->TC_IDR = 0xFFFFFFFF;
  4002dc:	697b      	ldr	r3, [r7, #20]
  4002de:	f04f 32ff 	mov.w	r2, #4294967295
  4002e2:	629a      	str	r2, [r3, #40]	; 0x28

	/*  Clear status register. */
	tc_channel->TC_SR;
  4002e4:	697b      	ldr	r3, [r7, #20]
  4002e6:	6a1b      	ldr	r3, [r3, #32]

	/*  Set mode. */
	tc_channel->TC_CMR = ul_mode;
  4002e8:	697b      	ldr	r3, [r7, #20]
  4002ea:	687a      	ldr	r2, [r7, #4]
  4002ec:	605a      	str	r2, [r3, #4]
}
  4002ee:	371c      	adds	r7, #28
  4002f0:	46bd      	mov	sp, r7
  4002f2:	f85d 7b04 	ldr.w	r7, [sp], #4
  4002f6:	4770      	bx	lr

004002f8 <tc_start>:
 * \param[in] ul_channel Channel to configure
 */
void tc_start(
		Tc *p_tc,
		uint32_t ul_channel)
{
  4002f8:	b480      	push	{r7}
  4002fa:	b083      	sub	sp, #12
  4002fc:	af00      	add	r7, sp, #0
  4002fe:	6078      	str	r0, [r7, #4]
  400300:	6039      	str	r1, [r7, #0]
	/* Validate inputs. */
	Assert(p_tc);
	Assert(ul_channel <
			(sizeof(p_tc->TC_CHANNEL) / sizeof(p_tc->TC_CHANNEL[0])));

	p_tc->TC_CHANNEL[ul_channel].TC_CCR = TC_CCR_CLKEN | TC_CCR_SWTRG;
  400302:	687a      	ldr	r2, [r7, #4]
  400304:	683b      	ldr	r3, [r7, #0]
  400306:	019b      	lsls	r3, r3, #6
  400308:	4413      	add	r3, r2
  40030a:	2205      	movs	r2, #5
  40030c:	601a      	str	r2, [r3, #0]
}
  40030e:	370c      	adds	r7, #12
  400310:	46bd      	mov	sp, r7
  400312:	f85d 7b04 	ldr.w	r7, [sp], #4
  400316:	4770      	bx	lr

00400318 <tc_write_rc>:
 */
void tc_write_rc(
		Tc *p_tc,
		uint32_t ul_channel,
		uint32_t ul_value)
{
  400318:	b480      	push	{r7}
  40031a:	b085      	sub	sp, #20
  40031c:	af00      	add	r7, sp, #0
  40031e:	60f8      	str	r0, [r7, #12]
  400320:	60b9      	str	r1, [r7, #8]
  400322:	607a      	str	r2, [r7, #4]
	/* Validate inputs. */
	Assert(p_tc);
	Assert(ul_channel <
			(sizeof(p_tc->TC_CHANNEL) / sizeof(p_tc->TC_CHANNEL[0])));

	p_tc->TC_CHANNEL[ul_channel].TC_RC = ul_value;
  400324:	68fa      	ldr	r2, [r7, #12]
  400326:	68bb      	ldr	r3, [r7, #8]
  400328:	019b      	lsls	r3, r3, #6
  40032a:	4413      	add	r3, r2
  40032c:	3318      	adds	r3, #24
  40032e:	687a      	ldr	r2, [r7, #4]
  400330:	605a      	str	r2, [r3, #4]
}
  400332:	3714      	adds	r7, #20
  400334:	46bd      	mov	sp, r7
  400336:	f85d 7b04 	ldr.w	r7, [sp], #4
  40033a:	4770      	bx	lr

0040033c <tc_enable_interrupt>:
 */
void tc_enable_interrupt(
		Tc *p_tc,
		uint32_t ul_channel,
		uint32_t ul_sources)
{
  40033c:	b480      	push	{r7}
  40033e:	b087      	sub	sp, #28
  400340:	af00      	add	r7, sp, #0
  400342:	60f8      	str	r0, [r7, #12]
  400344:	60b9      	str	r1, [r7, #8]
  400346:	607a      	str	r2, [r7, #4]

	/* Validate inputs. */
	Assert(p_tc);
	Assert(ul_channel <
			(sizeof(p_tc->TC_CHANNEL) / sizeof(p_tc->TC_CHANNEL[0])));
	tc_channel = p_tc->TC_CHANNEL + ul_channel;
  400348:	68bb      	ldr	r3, [r7, #8]
  40034a:	019b      	lsls	r3, r3, #6
  40034c:	68fa      	ldr	r2, [r7, #12]
  40034e:	4413      	add	r3, r2
  400350:	617b      	str	r3, [r7, #20]
	tc_channel->TC_IER = ul_sources;
  400352:	697b      	ldr	r3, [r7, #20]
  400354:	687a      	ldr	r2, [r7, #4]
  400356:	625a      	str	r2, [r3, #36]	; 0x24
}
  400358:	371c      	adds	r7, #28
  40035a:	46bd      	mov	sp, r7
  40035c:	f85d 7b04 	ldr.w	r7, [sp], #4
  400360:	4770      	bx	lr
  400362:	bf00      	nop

00400364 <tc_get_status>:
 * \return The current TC status.
 */
uint32_t tc_get_status(
		Tc *p_tc,
		uint32_t ul_channel)
{
  400364:	b480      	push	{r7}
  400366:	b085      	sub	sp, #20
  400368:	af00      	add	r7, sp, #0
  40036a:	6078      	str	r0, [r7, #4]
  40036c:	6039      	str	r1, [r7, #0]
	/* Validate inputs. */
	Assert(p_tc);
	Assert(ul_channel <
			(sizeof(p_tc->TC_CHANNEL) / sizeof(p_tc->TC_CHANNEL[0])));
			
	tc_channel = p_tc->TC_CHANNEL + ul_channel;
  40036e:	683b      	ldr	r3, [r7, #0]
  400370:	019b      	lsls	r3, r3, #6
  400372:	687a      	ldr	r2, [r7, #4]
  400374:	4413      	add	r3, r2
  400376:	60fb      	str	r3, [r7, #12]
	return tc_channel->TC_SR;
  400378:	68fb      	ldr	r3, [r7, #12]
  40037a:	6a1b      	ldr	r3, [r3, #32]
}
  40037c:	4618      	mov	r0, r3
  40037e:	3714      	adds	r7, #20
  400380:	46bd      	mov	sp, r7
  400382:	f85d 7b04 	ldr.w	r7, [sp], #4
  400386:	4770      	bx	lr

00400388 <osc_enable>:
#define OSC_MAINCK_XTAL_HZ          BOARD_FREQ_MAINCK_XTAL          //!< External crystal oscillator.
#define OSC_MAINCK_BYPASS_HZ        BOARD_FREQ_MAINCK_BYPASS        //!< External bypass oscillator.
//@}

static inline void osc_enable(uint32_t ul_id)
{
  400388:	b580      	push	{r7, lr}
  40038a:	b082      	sub	sp, #8
  40038c:	af00      	add	r7, sp, #0
  40038e:	6078      	str	r0, [r7, #4]
	switch (ul_id) {
  400390:	687b      	ldr	r3, [r7, #4]
  400392:	2b07      	cmp	r3, #7
  400394:	d830      	bhi.n	4003f8 <osc_enable+0x70>
  400396:	a201      	add	r2, pc, #4	; (adr r2, 40039c <osc_enable+0x14>)
  400398:	f852 f023 	ldr.w	pc, [r2, r3, lsl #2]
  40039c:	004003f9 	.word	0x004003f9
  4003a0:	004003bd 	.word	0x004003bd
  4003a4:	004003c5 	.word	0x004003c5
  4003a8:	004003cd 	.word	0x004003cd
  4003ac:	004003d5 	.word	0x004003d5
  4003b0:	004003dd 	.word	0x004003dd
  4003b4:	004003e5 	.word	0x004003e5
  4003b8:	004003ef 	.word	0x004003ef
	case OSC_SLCK_32K_RC:
		break;

	case OSC_SLCK_32K_XTAL:
		pmc_switch_sclk_to_32kxtal(PMC_OSC_XTAL);
  4003bc:	2000      	movs	r0, #0
  4003be:	4b10      	ldr	r3, [pc, #64]	; (400400 <osc_enable+0x78>)
  4003c0:	4798      	blx	r3
		break;
  4003c2:	e019      	b.n	4003f8 <osc_enable+0x70>

	case OSC_SLCK_32K_BYPASS:
		pmc_switch_sclk_to_32kxtal(PMC_OSC_BYPASS);
  4003c4:	2001      	movs	r0, #1
  4003c6:	4b0e      	ldr	r3, [pc, #56]	; (400400 <osc_enable+0x78>)
  4003c8:	4798      	blx	r3
		break;
  4003ca:	e015      	b.n	4003f8 <osc_enable+0x70>


	case OSC_MAINCK_4M_RC:
		pmc_switch_mainck_to_fastrc(CKGR_MOR_MOSCRCF_4_MHz);
  4003cc:	2000      	movs	r0, #0
  4003ce:	4b0d      	ldr	r3, [pc, #52]	; (400404 <osc_enable+0x7c>)
  4003d0:	4798      	blx	r3
		break;
  4003d2:	e011      	b.n	4003f8 <osc_enable+0x70>

	case OSC_MAINCK_8M_RC:
		pmc_switch_mainck_to_fastrc(CKGR_MOR_MOSCRCF_8_MHz);
  4003d4:	2010      	movs	r0, #16
  4003d6:	4b0b      	ldr	r3, [pc, #44]	; (400404 <osc_enable+0x7c>)
  4003d8:	4798      	blx	r3
		break;
  4003da:	e00d      	b.n	4003f8 <osc_enable+0x70>

	case OSC_MAINCK_12M_RC:
		pmc_switch_mainck_to_fastrc(CKGR_MOR_MOSCRCF_12_MHz);
  4003dc:	2020      	movs	r0, #32
  4003de:	4b09      	ldr	r3, [pc, #36]	; (400404 <osc_enable+0x7c>)
  4003e0:	4798      	blx	r3
		break;
  4003e2:	e009      	b.n	4003f8 <osc_enable+0x70>


	case OSC_MAINCK_XTAL:
		pmc_switch_mainck_to_xtal(PMC_OSC_XTAL,
  4003e4:	2000      	movs	r0, #0
  4003e6:	213e      	movs	r1, #62	; 0x3e
  4003e8:	4b07      	ldr	r3, [pc, #28]	; (400408 <osc_enable+0x80>)
  4003ea:	4798      	blx	r3
			pmc_us_to_moscxtst(BOARD_OSC_STARTUP_US,
				OSC_SLCK_32K_RC_HZ));
		break;
  4003ec:	e004      	b.n	4003f8 <osc_enable+0x70>

	case OSC_MAINCK_BYPASS:
		pmc_switch_mainck_to_xtal(PMC_OSC_BYPASS,
  4003ee:	2001      	movs	r0, #1
  4003f0:	213e      	movs	r1, #62	; 0x3e
  4003f2:	4b05      	ldr	r3, [pc, #20]	; (400408 <osc_enable+0x80>)
  4003f4:	4798      	blx	r3
			pmc_us_to_moscxtst(BOARD_OSC_STARTUP_US,
				OSC_SLCK_32K_RC_HZ));
		break;
  4003f6:	bf00      	nop
	}
}
  4003f8:	3708      	adds	r7, #8
  4003fa:	46bd      	mov	sp, r7
  4003fc:	bd80      	pop	{r7, pc}
  4003fe:	bf00      	nop
  400400:	00401ed5 	.word	0x00401ed5
  400404:	00401f41 	.word	0x00401f41
  400408:	00401fb1 	.word	0x00401fb1

0040040c <osc_is_ready>:
		break;
	}
}

static inline bool osc_is_ready(uint32_t ul_id)
{
  40040c:	b580      	push	{r7, lr}
  40040e:	b082      	sub	sp, #8
  400410:	af00      	add	r7, sp, #0
  400412:	6078      	str	r0, [r7, #4]
	switch (ul_id) {
  400414:	687b      	ldr	r3, [r7, #4]
  400416:	2b07      	cmp	r3, #7
  400418:	d826      	bhi.n	400468 <osc_is_ready+0x5c>
  40041a:	a201      	add	r2, pc, #4	; (adr r2, 400420 <osc_is_ready+0x14>)
  40041c:	f852 f023 	ldr.w	pc, [r2, r3, lsl #2]
  400420:	00400441 	.word	0x00400441
  400424:	00400445 	.word	0x00400445
  400428:	00400445 	.word	0x00400445
  40042c:	00400457 	.word	0x00400457
  400430:	00400457 	.word	0x00400457
  400434:	00400457 	.word	0x00400457
  400438:	00400457 	.word	0x00400457
  40043c:	00400457 	.word	0x00400457
	case OSC_SLCK_32K_RC:
		return 1;
  400440:	2301      	movs	r3, #1
  400442:	e012      	b.n	40046a <osc_is_ready+0x5e>

	case OSC_SLCK_32K_XTAL:
	case OSC_SLCK_32K_BYPASS:
		return pmc_osc_is_ready_32kxtal();
  400444:	4b0b      	ldr	r3, [pc, #44]	; (400474 <osc_is_ready+0x68>)
  400446:	4798      	blx	r3
  400448:	4603      	mov	r3, r0
  40044a:	2b00      	cmp	r3, #0
  40044c:	bf14      	ite	ne
  40044e:	2301      	movne	r3, #1
  400450:	2300      	moveq	r3, #0
  400452:	b2db      	uxtb	r3, r3
  400454:	e009      	b.n	40046a <osc_is_ready+0x5e>
	case OSC_MAINCK_4M_RC:
	case OSC_MAINCK_8M_RC:
	case OSC_MAINCK_12M_RC:
	case OSC_MAINCK_XTAL:
	case OSC_MAINCK_BYPASS:
		return pmc_osc_is_ready_mainck();
  400456:	4b08      	ldr	r3, [pc, #32]	; (400478 <osc_is_ready+0x6c>)
  400458:	4798      	blx	r3
  40045a:	4603      	mov	r3, r0
  40045c:	2b00      	cmp	r3, #0
  40045e:	bf14      	ite	ne
  400460:	2301      	movne	r3, #1
  400462:	2300      	moveq	r3, #0
  400464:	b2db      	uxtb	r3, r3
  400466:	e000      	b.n	40046a <osc_is_ready+0x5e>
	}

	return 0;
  400468:	2300      	movs	r3, #0
}
  40046a:	4618      	mov	r0, r3
  40046c:	3708      	adds	r7, #8
  40046e:	46bd      	mov	sp, r7
  400470:	bd80      	pop	{r7, pc}
  400472:	bf00      	nop
  400474:	00401f0d 	.word	0x00401f0d
  400478:	00402029 	.word	0x00402029

0040047c <osc_get_rate>:

static inline uint32_t osc_get_rate(uint32_t ul_id)
{
  40047c:	b480      	push	{r7}
  40047e:	b083      	sub	sp, #12
  400480:	af00      	add	r7, sp, #0
  400482:	6078      	str	r0, [r7, #4]
	switch (ul_id) {
  400484:	687b      	ldr	r3, [r7, #4]
  400486:	2b07      	cmp	r3, #7
  400488:	d825      	bhi.n	4004d6 <osc_get_rate+0x5a>
  40048a:	a201      	add	r2, pc, #4	; (adr r2, 400490 <osc_get_rate+0x14>)
  40048c:	f852 f023 	ldr.w	pc, [r2, r3, lsl #2]
  400490:	004004b1 	.word	0x004004b1
  400494:	004004b7 	.word	0x004004b7
  400498:	004004bd 	.word	0x004004bd
  40049c:	004004c3 	.word	0x004004c3
  4004a0:	004004c7 	.word	0x004004c7
  4004a4:	004004cb 	.word	0x004004cb
  4004a8:	004004cf 	.word	0x004004cf
  4004ac:	004004d3 	.word	0x004004d3
	case OSC_SLCK_32K_RC:
		return OSC_SLCK_32K_RC_HZ;
  4004b0:	f44f 43fa 	mov.w	r3, #32000	; 0x7d00
  4004b4:	e010      	b.n	4004d8 <osc_get_rate+0x5c>

	case OSC_SLCK_32K_XTAL:
		return BOARD_FREQ_SLCK_XTAL;
  4004b6:	f44f 4300 	mov.w	r3, #32768	; 0x8000
  4004ba:	e00d      	b.n	4004d8 <osc_get_rate+0x5c>

	case OSC_SLCK_32K_BYPASS:
		return BOARD_FREQ_SLCK_BYPASS;
  4004bc:	f44f 4300 	mov.w	r3, #32768	; 0x8000
  4004c0:	e00a      	b.n	4004d8 <osc_get_rate+0x5c>

	case OSC_MAINCK_4M_RC:
		return OSC_MAINCK_4M_RC_HZ;
  4004c2:	4b08      	ldr	r3, [pc, #32]	; (4004e4 <osc_get_rate+0x68>)
  4004c4:	e008      	b.n	4004d8 <osc_get_rate+0x5c>

	case OSC_MAINCK_8M_RC:
		return OSC_MAINCK_8M_RC_HZ;
  4004c6:	4b08      	ldr	r3, [pc, #32]	; (4004e8 <osc_get_rate+0x6c>)
  4004c8:	e006      	b.n	4004d8 <osc_get_rate+0x5c>

	case OSC_MAINCK_12M_RC:
		return OSC_MAINCK_12M_RC_HZ;
  4004ca:	4b08      	ldr	r3, [pc, #32]	; (4004ec <osc_get_rate+0x70>)
  4004cc:	e004      	b.n	4004d8 <osc_get_rate+0x5c>

	case OSC_MAINCK_XTAL:
		return BOARD_FREQ_MAINCK_XTAL;
  4004ce:	4b07      	ldr	r3, [pc, #28]	; (4004ec <osc_get_rate+0x70>)
  4004d0:	e002      	b.n	4004d8 <osc_get_rate+0x5c>

	case OSC_MAINCK_BYPASS:
		return BOARD_FREQ_MAINCK_BYPASS;
  4004d2:	4b06      	ldr	r3, [pc, #24]	; (4004ec <osc_get_rate+0x70>)
  4004d4:	e000      	b.n	4004d8 <osc_get_rate+0x5c>
	}

	return 0;
  4004d6:	2300      	movs	r3, #0
}
  4004d8:	4618      	mov	r0, r3
  4004da:	370c      	adds	r7, #12
  4004dc:	46bd      	mov	sp, r7
  4004de:	f85d 7b04 	ldr.w	r7, [sp], #4
  4004e2:	4770      	bx	lr
  4004e4:	003d0900 	.word	0x003d0900
  4004e8:	007a1200 	.word	0x007a1200
  4004ec:	00b71b00 	.word	0x00b71b00

004004f0 <osc_wait_ready>:
 * to become stable and ready to use as a clock source.
 *
 * \param id A number identifying the oscillator to wait for.
 */
static inline void osc_wait_ready(uint8_t id)
{
  4004f0:	b580      	push	{r7, lr}
  4004f2:	b082      	sub	sp, #8
  4004f4:	af00      	add	r7, sp, #0
  4004f6:	4603      	mov	r3, r0
  4004f8:	71fb      	strb	r3, [r7, #7]
	while (!osc_is_ready(id)) {
  4004fa:	bf00      	nop
  4004fc:	79fb      	ldrb	r3, [r7, #7]
  4004fe:	4618      	mov	r0, r3
  400500:	4b05      	ldr	r3, [pc, #20]	; (400518 <osc_wait_ready+0x28>)
  400502:	4798      	blx	r3
  400504:	4603      	mov	r3, r0
  400506:	f083 0301 	eor.w	r3, r3, #1
  40050a:	b2db      	uxtb	r3, r3
  40050c:	2b00      	cmp	r3, #0
  40050e:	d1f5      	bne.n	4004fc <osc_wait_ready+0xc>
		/* Do nothing */
	}
}
  400510:	3708      	adds	r7, #8
  400512:	46bd      	mov	sp, r7
  400514:	bd80      	pop	{r7, pc}
  400516:	bf00      	nop
  400518:	0040040d 	.word	0x0040040d

0040051c <pll_config_init>:
 * \note The SAM3S PLL hardware interprets mul as mul+1. For readability the hardware mul+1
 * is hidden in this implementation. Use mul as mul effective value.
 */
static inline void pll_config_init(struct pll_config *p_cfg,
		enum pll_source e_src, uint32_t ul_div, uint32_t ul_mul)
{
  40051c:	b580      	push	{r7, lr}
  40051e:	b086      	sub	sp, #24
  400520:	af00      	add	r7, sp, #0
  400522:	60f8      	str	r0, [r7, #12]
  400524:	607a      	str	r2, [r7, #4]
  400526:	603b      	str	r3, [r7, #0]
  400528:	460b      	mov	r3, r1
  40052a:	72fb      	strb	r3, [r7, #11]
	uint32_t vco_hz;

	Assert(e_src < PLL_NR_SOURCES);

	/* Calculate internal VCO frequency */
	vco_hz = osc_get_rate(e_src) / ul_div;
  40052c:	7afb      	ldrb	r3, [r7, #11]
  40052e:	4618      	mov	r0, r3
  400530:	4b0d      	ldr	r3, [pc, #52]	; (400568 <pll_config_init+0x4c>)
  400532:	4798      	blx	r3
  400534:	4602      	mov	r2, r0
  400536:	687b      	ldr	r3, [r7, #4]
  400538:	fbb2 f3f3 	udiv	r3, r2, r3
  40053c:	617b      	str	r3, [r7, #20]
	Assert(vco_hz >= PLL_INPUT_MIN_HZ);
	Assert(vco_hz <= PLL_INPUT_MAX_HZ);

	vco_hz *= ul_mul;
  40053e:	697b      	ldr	r3, [r7, #20]
  400540:	683a      	ldr	r2, [r7, #0]
  400542:	fb02 f303 	mul.w	r3, r2, r3
  400546:	617b      	str	r3, [r7, #20]
	Assert(vco_hz >= PLL_OUTPUT_MIN_HZ);
	Assert(vco_hz <= PLL_OUTPUT_MAX_HZ);

	/* PMC hardware will automatically make it mul+1 */
	p_cfg->ctrl = CKGR_PLLAR_MULA(ul_mul - 1) | CKGR_PLLAR_DIVA(ul_div) | CKGR_PLLAR_PLLACOUNT(PLL_COUNT);
  400548:	683b      	ldr	r3, [r7, #0]
  40054a:	3b01      	subs	r3, #1
  40054c:	041a      	lsls	r2, r3, #16
  40054e:	4b07      	ldr	r3, [pc, #28]	; (40056c <pll_config_init+0x50>)
  400550:	4013      	ands	r3, r2
  400552:	687a      	ldr	r2, [r7, #4]
  400554:	b2d2      	uxtb	r2, r2
  400556:	4313      	orrs	r3, r2
  400558:	f443 527c 	orr.w	r2, r3, #16128	; 0x3f00
  40055c:	68fb      	ldr	r3, [r7, #12]
  40055e:	601a      	str	r2, [r3, #0]
}
  400560:	3718      	adds	r7, #24
  400562:	46bd      	mov	sp, r7
  400564:	bd80      	pop	{r7, pc}
  400566:	bf00      	nop
  400568:	0040047d 	.word	0x0040047d
  40056c:	07ff0000 	.word	0x07ff0000

00400570 <pll_enable>:
		PMC->CKGR_PLLBR = p_cfg->ctrl;
	}
}

static inline void pll_enable(const struct pll_config *p_cfg, uint32_t ul_pll_id)
{
  400570:	b580      	push	{r7, lr}
  400572:	b082      	sub	sp, #8
  400574:	af00      	add	r7, sp, #0
  400576:	6078      	str	r0, [r7, #4]
  400578:	6039      	str	r1, [r7, #0]
	Assert(ul_pll_id < NR_PLLS);

	if (ul_pll_id == PLLA_ID) {
  40057a:	683b      	ldr	r3, [r7, #0]
  40057c:	2b00      	cmp	r3, #0
  40057e:	d108      	bne.n	400592 <pll_enable+0x22>
		pmc_disable_pllack(); // Always stop PLL first!
  400580:	4b08      	ldr	r3, [pc, #32]	; (4005a4 <pll_enable+0x34>)
  400582:	4798      	blx	r3
		PMC->CKGR_PLLAR = CKGR_PLLAR_ONE | p_cfg->ctrl;
  400584:	4a08      	ldr	r2, [pc, #32]	; (4005a8 <pll_enable+0x38>)
  400586:	687b      	ldr	r3, [r7, #4]
  400588:	681b      	ldr	r3, [r3, #0]
  40058a:	f043 5300 	orr.w	r3, r3, #536870912	; 0x20000000
  40058e:	6293      	str	r3, [r2, #40]	; 0x28
  400590:	e005      	b.n	40059e <pll_enable+0x2e>
	} else {
		pmc_disable_pllbck();
  400592:	4b06      	ldr	r3, [pc, #24]	; (4005ac <pll_enable+0x3c>)
  400594:	4798      	blx	r3
		PMC->CKGR_PLLBR = p_cfg->ctrl;
  400596:	4a04      	ldr	r2, [pc, #16]	; (4005a8 <pll_enable+0x38>)
  400598:	687b      	ldr	r3, [r7, #4]
  40059a:	681b      	ldr	r3, [r3, #0]
  40059c:	62d3      	str	r3, [r2, #44]	; 0x2c
	}
}
  40059e:	3708      	adds	r7, #8
  4005a0:	46bd      	mov	sp, r7
  4005a2:	bd80      	pop	{r7, pc}
  4005a4:	00402045 	.word	0x00402045
  4005a8:	400e0400 	.word	0x400e0400
  4005ac:	00402079 	.word	0x00402079

004005b0 <pll_is_locked>:
		pmc_disable_pllbck();
	}
}

static inline uint32_t pll_is_locked(uint32_t ul_pll_id)
{
  4005b0:	b580      	push	{r7, lr}
  4005b2:	b082      	sub	sp, #8
  4005b4:	af00      	add	r7, sp, #0
  4005b6:	6078      	str	r0, [r7, #4]
	Assert(ul_pll_id < NR_PLLS);

	if (ul_pll_id == PLLA_ID) {
  4005b8:	687b      	ldr	r3, [r7, #4]
  4005ba:	2b00      	cmp	r3, #0
  4005bc:	d103      	bne.n	4005c6 <pll_is_locked+0x16>
		return pmc_is_locked_pllack();
  4005be:	4b05      	ldr	r3, [pc, #20]	; (4005d4 <pll_is_locked+0x24>)
  4005c0:	4798      	blx	r3
  4005c2:	4603      	mov	r3, r0
  4005c4:	e002      	b.n	4005cc <pll_is_locked+0x1c>
	} else {
		return pmc_is_locked_pllbck();
  4005c6:	4b04      	ldr	r3, [pc, #16]	; (4005d8 <pll_is_locked+0x28>)
  4005c8:	4798      	blx	r3
  4005ca:	4603      	mov	r3, r0
	}
}
  4005cc:	4618      	mov	r0, r3
  4005ce:	3708      	adds	r7, #8
  4005d0:	46bd      	mov	sp, r7
  4005d2:	bd80      	pop	{r7, pc}
  4005d4:	0040205d 	.word	0x0040205d
  4005d8:	00402091 	.word	0x00402091

004005dc <pll_enable_source>:

static inline void pll_enable_source(enum pll_source e_src)
{
  4005dc:	b580      	push	{r7, lr}
  4005de:	b082      	sub	sp, #8
  4005e0:	af00      	add	r7, sp, #0
  4005e2:	4603      	mov	r3, r0
  4005e4:	71fb      	strb	r3, [r7, #7]
	switch (e_src) {
  4005e6:	79fb      	ldrb	r3, [r7, #7]
  4005e8:	3b03      	subs	r3, #3
  4005ea:	2b04      	cmp	r3, #4
  4005ec:	d808      	bhi.n	400600 <pll_enable_source+0x24>
	case PLL_SRC_MAINCK_4M_RC:
	case PLL_SRC_MAINCK_8M_RC:
	case PLL_SRC_MAINCK_12M_RC:
	case PLL_SRC_MAINCK_XTAL:
	case PLL_SRC_MAINCK_BYPASS:
		osc_enable(e_src);
  4005ee:	79fb      	ldrb	r3, [r7, #7]
  4005f0:	4618      	mov	r0, r3
  4005f2:	4b05      	ldr	r3, [pc, #20]	; (400608 <pll_enable_source+0x2c>)
  4005f4:	4798      	blx	r3
		osc_wait_ready(e_src);
  4005f6:	79fb      	ldrb	r3, [r7, #7]
  4005f8:	4618      	mov	r0, r3
  4005fa:	4b04      	ldr	r3, [pc, #16]	; (40060c <pll_enable_source+0x30>)
  4005fc:	4798      	blx	r3
		break;
  4005fe:	e000      	b.n	400602 <pll_enable_source+0x26>

	default:
		Assert(false);
		break;
  400600:	bf00      	nop
	}
}
  400602:	3708      	adds	r7, #8
  400604:	46bd      	mov	sp, r7
  400606:	bd80      	pop	{r7, pc}
  400608:	00400389 	.word	0x00400389
  40060c:	004004f1 	.word	0x004004f1

00400610 <pll_wait_for_lock>:
 *
 * \retval STATUS_OK The PLL is now locked.
 * \retval ERR_TIMEOUT Timed out waiting for PLL to become locked.
 */
static inline int pll_wait_for_lock(unsigned int pll_id)
{
  400610:	b580      	push	{r7, lr}
  400612:	b082      	sub	sp, #8
  400614:	af00      	add	r7, sp, #0
  400616:	6078      	str	r0, [r7, #4]
	Assert(pll_id < NR_PLLS);

	while (!pll_is_locked(pll_id)) {
  400618:	bf00      	nop
  40061a:	6878      	ldr	r0, [r7, #4]
  40061c:	4b04      	ldr	r3, [pc, #16]	; (400630 <pll_wait_for_lock+0x20>)
  40061e:	4798      	blx	r3
  400620:	4603      	mov	r3, r0
  400622:	2b00      	cmp	r3, #0
  400624:	d0f9      	beq.n	40061a <pll_wait_for_lock+0xa>
		/* Do nothing */
	}

	return 0;
  400626:	2300      	movs	r3, #0
}
  400628:	4618      	mov	r0, r3
  40062a:	3708      	adds	r7, #8
  40062c:	46bd      	mov	sp, r7
  40062e:	bd80      	pop	{r7, pc}
  400630:	004005b1 	.word	0x004005b1

00400634 <sysclk_get_main_hz>:
 */
#if (defined CONFIG_SYSCLK_DEFAULT_RETURNS_SLOW_OSC)
extern uint32_t sysclk_initialized;
#endif
static inline uint32_t sysclk_get_main_hz(void)
{
  400634:	b580      	push	{r7, lr}
  400636:	af00      	add	r7, sp, #0
	} else if (CONFIG_SYSCLK_SOURCE == SYSCLK_SRC_MAINCK_BYPASS) {
		return OSC_MAINCK_BYPASS_HZ;
	}
#ifdef CONFIG_PLL0_SOURCE
	else if (CONFIG_SYSCLK_SOURCE == SYSCLK_SRC_PLLACK) {
		return pll_get_default_rate(0);
  400638:	2006      	movs	r0, #6
  40063a:	4b04      	ldr	r3, [pc, #16]	; (40064c <sysclk_get_main_hz+0x18>)
  40063c:	4798      	blx	r3
  40063e:	4602      	mov	r2, r0
  400640:	4613      	mov	r3, r2
  400642:	009b      	lsls	r3, r3, #2
  400644:	4413      	add	r3, r2
  400646:	009b      	lsls	r3, r3, #2

	else {
		/* unhandled_case(CONFIG_SYSCLK_SOURCE); */
		return 0;
	}
}
  400648:	4618      	mov	r0, r3
  40064a:	bd80      	pop	{r7, pc}
  40064c:	0040047d 	.word	0x0040047d

00400650 <sysclk_get_cpu_hz>:
 * clocks.
 *
 * \return Frequency of the CPU clock, in Hz.
 */
static inline uint32_t sysclk_get_cpu_hz(void)
{
  400650:	b580      	push	{r7, lr}
  400652:	af00      	add	r7, sp, #0
	/* CONFIG_SYSCLK_PRES is the register value for setting the expected */
	/* prescaler, not an immediate value. */
	return sysclk_get_main_hz() /
  400654:	4b02      	ldr	r3, [pc, #8]	; (400660 <sysclk_get_cpu_hz+0x10>)
  400656:	4798      	blx	r3
  400658:	4603      	mov	r3, r0
  40065a:	085b      	lsrs	r3, r3, #1
		((CONFIG_SYSCLK_PRES == SYSCLK_PRES_3) ? 3 :
			(1 << (CONFIG_SYSCLK_PRES >> PMC_MCKR_PRES_Pos)));
}
  40065c:	4618      	mov	r0, r3
  40065e:	bd80      	pop	{r7, pc}
  400660:	00400635 	.word	0x00400635

00400664 <sysclk_init>:
	pmc_disable_udpck();
}
#endif // CONFIG_USBCLK_SOURCE

void sysclk_init(void)
{
  400664:	b590      	push	{r4, r7, lr}
  400666:	b083      	sub	sp, #12
  400668:	af00      	add	r7, sp, #0
	/* Set flash wait state to max in case the below clock switching. */
	system_init_flash(CHIP_FREQ_CPU_MAX);
  40066a:	4811      	ldr	r0, [pc, #68]	; (4006b0 <sysclk_init+0x4c>)
  40066c:	4b11      	ldr	r3, [pc, #68]	; (4006b4 <sysclk_init+0x50>)
  40066e:	4798      	blx	r3

#ifdef CONFIG_PLL0_SOURCE
	else if (CONFIG_SYSCLK_SOURCE == SYSCLK_SRC_PLLACK) {
		struct pll_config pllcfg;

		pll_enable_source(CONFIG_PLL0_SOURCE);
  400670:	2006      	movs	r0, #6
  400672:	4b11      	ldr	r3, [pc, #68]	; (4006b8 <sysclk_init+0x54>)
  400674:	4798      	blx	r3
		pll_config_defaults(&pllcfg, 0);
  400676:	1d3b      	adds	r3, r7, #4
  400678:	4618      	mov	r0, r3
  40067a:	2106      	movs	r1, #6
  40067c:	2201      	movs	r2, #1
  40067e:	2314      	movs	r3, #20
  400680:	4c0e      	ldr	r4, [pc, #56]	; (4006bc <sysclk_init+0x58>)
  400682:	47a0      	blx	r4
		pll_enable(&pllcfg, 0);
  400684:	1d3b      	adds	r3, r7, #4
  400686:	4618      	mov	r0, r3
  400688:	2100      	movs	r1, #0
  40068a:	4b0d      	ldr	r3, [pc, #52]	; (4006c0 <sysclk_init+0x5c>)
  40068c:	4798      	blx	r3
		pll_wait_for_lock(0);
  40068e:	2000      	movs	r0, #0
  400690:	4b0c      	ldr	r3, [pc, #48]	; (4006c4 <sysclk_init+0x60>)
  400692:	4798      	blx	r3
		pmc_switch_mck_to_pllack(CONFIG_SYSCLK_PRES);
  400694:	2010      	movs	r0, #16
  400696:	4b0c      	ldr	r3, [pc, #48]	; (4006c8 <sysclk_init+0x64>)
  400698:	4798      	blx	r3
		pmc_switch_mck_to_pllbck(CONFIG_SYSCLK_PRES);
	}
#endif

	/* Update the SystemFrequency variable */
	SystemCoreClockUpdate();
  40069a:	4b0c      	ldr	r3, [pc, #48]	; (4006cc <sysclk_init+0x68>)
  40069c:	4798      	blx	r3

	/* Set a flash wait state depending on the new cpu frequency */
	system_init_flash(sysclk_get_cpu_hz());
  40069e:	4b0c      	ldr	r3, [pc, #48]	; (4006d0 <sysclk_init+0x6c>)
  4006a0:	4798      	blx	r3
  4006a2:	4603      	mov	r3, r0
  4006a4:	4618      	mov	r0, r3
  4006a6:	4b03      	ldr	r3, [pc, #12]	; (4006b4 <sysclk_init+0x50>)
  4006a8:	4798      	blx	r3

#if (defined CONFIG_SYSCLK_DEFAULT_RETURNS_SLOW_OSC)
	/* Signal that the internal frequencies are setup */
	sysclk_initialized = 1;
#endif
}
  4006aa:	370c      	adds	r7, #12
  4006ac:	46bd      	mov	sp, r7
  4006ae:	bd90      	pop	{r4, r7, pc}
  4006b0:	07270e00 	.word	0x07270e00
  4006b4:	0040239d 	.word	0x0040239d
  4006b8:	004005dd 	.word	0x004005dd
  4006bc:	0040051d 	.word	0x0040051d
  4006c0:	00400571 	.word	0x00400571
  4006c4:	00400611 	.word	0x00400611
  4006c8:	00401e51 	.word	0x00401e51
  4006cc:	00402201 	.word	0x00402201
  4006d0:	00400651 	.word	0x00400651

004006d4 <sysclk_enable_peripheral_clock>:
 * \brief Enable a peripheral's clock.
 *
 * \param ul_id Id (number) of the peripheral clock.
 */
static inline void sysclk_enable_peripheral_clock(uint32_t ul_id)
{
  4006d4:	b580      	push	{r7, lr}
  4006d6:	b082      	sub	sp, #8
  4006d8:	af00      	add	r7, sp, #0
  4006da:	6078      	str	r0, [r7, #4]
	pmc_enable_periph_clk(ul_id);
  4006dc:	6878      	ldr	r0, [r7, #4]
  4006de:	4b02      	ldr	r3, [pc, #8]	; (4006e8 <sysclk_enable_peripheral_clock+0x14>)
  4006e0:	4798      	blx	r3
}
  4006e2:	3708      	adds	r7, #8
  4006e4:	46bd      	mov	sp, r7
  4006e6:	bd80      	pop	{r7, pc}
  4006e8:	004020ad 	.word	0x004020ad

004006ec <ioport_init>:
 *
 * This function must be called before using any other functions in the IOPORT
 * service.
 */
static inline void ioport_init(void)
{
  4006ec:	b580      	push	{r7, lr}
  4006ee:	af00      	add	r7, sp, #0
}

__always_inline static void arch_ioport_init(void)
{
#ifdef ID_PIOA
	sysclk_enable_peripheral_clock(ID_PIOA);
  4006f0:	200b      	movs	r0, #11
  4006f2:	4b04      	ldr	r3, [pc, #16]	; (400704 <ioport_init+0x18>)
  4006f4:	4798      	blx	r3
#endif
#ifdef ID_PIOB
	sysclk_enable_peripheral_clock(ID_PIOB);
  4006f6:	200c      	movs	r0, #12
  4006f8:	4b02      	ldr	r3, [pc, #8]	; (400704 <ioport_init+0x18>)
  4006fa:	4798      	blx	r3
#endif
#ifdef ID_PIOC
	sysclk_enable_peripheral_clock(ID_PIOC);
  4006fc:	200d      	movs	r0, #13
  4006fe:	4b01      	ldr	r3, [pc, #4]	; (400704 <ioport_init+0x18>)
  400700:	4798      	blx	r3
	arch_ioport_init();
}
  400702:	bd80      	pop	{r7, pc}
  400704:	004006d5 	.word	0x004006d5

00400708 <board_init>:
#include "conf_board.h"
#include "gpio.h"
#include "ioport.h"

void board_init(void)
{
  400708:	b580      	push	{r7, lr}
  40070a:	af00      	add	r7, sp, #0
#ifndef CONF_BOARD_KEEP_WATCHDOG_AT_INIT
	/* Disable the watchdog */
	WDT->WDT_MR = WDT_MR_WDDIS;
  40070c:	4b2a      	ldr	r3, [pc, #168]	; (4007b8 <board_init+0xb0>)
  40070e:	f44f 4200 	mov.w	r2, #32768	; 0x8000
  400712:	605a      	str	r2, [r3, #4]

	/* GPIO has been deprecated, the old code just keeps it for compatibility.
	 * In new designs IOPORT is used instead.
	 * Here IOPORT must be initialized for others to use before setting up IO.
	 */
	ioport_init();
  400714:	4b29      	ldr	r3, [pc, #164]	; (4007bc <board_init+0xb4>)
  400716:	4798      	blx	r3

	/* Configure LED pins */
	gpio_configure_pin(LED0_GPIO, LED0_FLAGS);
  400718:	2013      	movs	r0, #19
  40071a:	f04f 5160 	mov.w	r1, #939524096	; 0x38000000
  40071e:	4b28      	ldr	r3, [pc, #160]	; (4007c0 <board_init+0xb8>)
  400720:	4798      	blx	r3
	gpio_configure_pin(LED1_GPIO, LED1_FLAGS);
  400722:	2014      	movs	r0, #20
  400724:	f04f 5160 	mov.w	r1, #939524096	; 0x38000000
  400728:	4b25      	ldr	r3, [pc, #148]	; (4007c0 <board_init+0xb8>)
  40072a:	4798      	blx	r3

	/* Configure Push Button pins */
	gpio_configure_pin(GPIO_PUSH_BUTTON_1, GPIO_PUSH_BUTTON_1_FLAGS);
  40072c:	2023      	movs	r0, #35	; 0x23
  40072e:	4925      	ldr	r1, [pc, #148]	; (4007c4 <board_init+0xbc>)
  400730:	4b23      	ldr	r3, [pc, #140]	; (4007c0 <board_init+0xb8>)
  400732:	4798      	blx	r3
	gpio_configure_pin(GPIO_PUSH_BUTTON_2, GPIO_PUSH_BUTTON_2_FLAGS);
  400734:	204c      	movs	r0, #76	; 0x4c
  400736:	4924      	ldr	r1, [pc, #144]	; (4007c8 <board_init+0xc0>)
  400738:	4b21      	ldr	r3, [pc, #132]	; (4007c0 <board_init+0xb8>)
  40073a:	4798      	blx	r3

#ifdef CONF_BOARD_UART_CONSOLE
	/* Configure UART pins */
	gpio_configure_group(PINS_UART0_PIO, PINS_UART0, PINS_UART0_FLAGS);
  40073c:	4823      	ldr	r0, [pc, #140]	; (4007cc <board_init+0xc4>)
  40073e:	f44f 61c0 	mov.w	r1, #1536	; 0x600
  400742:	f04f 6200 	mov.w	r2, #134217728	; 0x8000000
  400746:	4b22      	ldr	r3, [pc, #136]	; (4007d0 <board_init+0xc8>)
  400748:	4798      	blx	r3
	gpio_set_pin_low(PIN_RE_IDX);
#endif

#if defined(CONF_BOARD_ILI9325) || defined(CONF_BOARD_ILI93XX)
	/* Configure LCD EBI pins */
	gpio_configure_pin(PIN_EBI_DATA_BUS_D0, PIN_EBI_DATA_BUS_FLAGS);
  40074a:	2040      	movs	r0, #64	; 0x40
  40074c:	4921      	ldr	r1, [pc, #132]	; (4007d4 <board_init+0xcc>)
  40074e:	4b1c      	ldr	r3, [pc, #112]	; (4007c0 <board_init+0xb8>)
  400750:	4798      	blx	r3
	gpio_configure_pin(PIN_EBI_DATA_BUS_D1, PIN_EBI_DATA_BUS_FLAGS);
  400752:	2041      	movs	r0, #65	; 0x41
  400754:	491f      	ldr	r1, [pc, #124]	; (4007d4 <board_init+0xcc>)
  400756:	4b1a      	ldr	r3, [pc, #104]	; (4007c0 <board_init+0xb8>)
  400758:	4798      	blx	r3
	gpio_configure_pin(PIN_EBI_DATA_BUS_D2, PIN_EBI_DATA_BUS_FLAGS);
  40075a:	2042      	movs	r0, #66	; 0x42
  40075c:	491d      	ldr	r1, [pc, #116]	; (4007d4 <board_init+0xcc>)
  40075e:	4b18      	ldr	r3, [pc, #96]	; (4007c0 <board_init+0xb8>)
  400760:	4798      	blx	r3
	gpio_configure_pin(PIN_EBI_DATA_BUS_D3, PIN_EBI_DATA_BUS_FLAGS);
  400762:	2043      	movs	r0, #67	; 0x43
  400764:	491b      	ldr	r1, [pc, #108]	; (4007d4 <board_init+0xcc>)
  400766:	4b16      	ldr	r3, [pc, #88]	; (4007c0 <board_init+0xb8>)
  400768:	4798      	blx	r3
	gpio_configure_pin(PIN_EBI_DATA_BUS_D4, PIN_EBI_DATA_BUS_FLAGS);
  40076a:	2044      	movs	r0, #68	; 0x44
  40076c:	4919      	ldr	r1, [pc, #100]	; (4007d4 <board_init+0xcc>)
  40076e:	4b14      	ldr	r3, [pc, #80]	; (4007c0 <board_init+0xb8>)
  400770:	4798      	blx	r3
	gpio_configure_pin(PIN_EBI_DATA_BUS_D5, PIN_EBI_DATA_BUS_FLAGS);
  400772:	2045      	movs	r0, #69	; 0x45
  400774:	4917      	ldr	r1, [pc, #92]	; (4007d4 <board_init+0xcc>)
  400776:	4b12      	ldr	r3, [pc, #72]	; (4007c0 <board_init+0xb8>)
  400778:	4798      	blx	r3
	gpio_configure_pin(PIN_EBI_DATA_BUS_D6, PIN_EBI_DATA_BUS_FLAGS);
  40077a:	2046      	movs	r0, #70	; 0x46
  40077c:	4915      	ldr	r1, [pc, #84]	; (4007d4 <board_init+0xcc>)
  40077e:	4b10      	ldr	r3, [pc, #64]	; (4007c0 <board_init+0xb8>)
  400780:	4798      	blx	r3
	gpio_configure_pin(PIN_EBI_DATA_BUS_D7, PIN_EBI_DATA_BUS_FLAGS);
  400782:	2047      	movs	r0, #71	; 0x47
  400784:	4913      	ldr	r1, [pc, #76]	; (4007d4 <board_init+0xcc>)
  400786:	4b0e      	ldr	r3, [pc, #56]	; (4007c0 <board_init+0xb8>)
  400788:	4798      	blx	r3
	gpio_configure_pin(PIN_EBI_NRD, PIN_EBI_NRD_FLAGS);
  40078a:	204b      	movs	r0, #75	; 0x4b
  40078c:	4911      	ldr	r1, [pc, #68]	; (4007d4 <board_init+0xcc>)
  40078e:	4b0c      	ldr	r3, [pc, #48]	; (4007c0 <board_init+0xb8>)
  400790:	4798      	blx	r3
	gpio_configure_pin(PIN_EBI_NWE, PIN_EBI_NWE_FLAGS);
  400792:	2048      	movs	r0, #72	; 0x48
  400794:	490f      	ldr	r1, [pc, #60]	; (4007d4 <board_init+0xcc>)
  400796:	4b0a      	ldr	r3, [pc, #40]	; (4007c0 <board_init+0xb8>)
  400798:	4798      	blx	r3
	gpio_configure_pin(PIN_EBI_NCS1, PIN_EBI_NCS1_FLAGS);
  40079a:	204f      	movs	r0, #79	; 0x4f
  40079c:	490d      	ldr	r1, [pc, #52]	; (4007d4 <board_init+0xcc>)
  40079e:	4b08      	ldr	r3, [pc, #32]	; (4007c0 <board_init+0xb8>)
  4007a0:	4798      	blx	r3
	gpio_configure_pin(PIN_EBI_LCD_RS, PIN_EBI_LCD_RS_FLAGS);
  4007a2:	2053      	movs	r0, #83	; 0x53
  4007a4:	490b      	ldr	r1, [pc, #44]	; (4007d4 <board_init+0xcc>)
  4007a6:	4b06      	ldr	r3, [pc, #24]	; (4007c0 <board_init+0xb8>)
  4007a8:	4798      	blx	r3
#endif

#ifdef CONF_BOARD_AAT3155
	/* Configure Backlight control pin */
	gpio_configure_pin(BOARD_AAT31XX_SET_GPIO, BOARD_AAT31XX_SET_FLAGS);
  4007aa:	204d      	movs	r0, #77	; 0x4d
  4007ac:	f04f 5140 	mov.w	r1, #805306368	; 0x30000000
  4007b0:	4b03      	ldr	r3, [pc, #12]	; (4007c0 <board_init+0xb8>)
  4007b2:	4798      	blx	r3
#if defined(CONF_BOARD_USB_PORT)
# if defined(CONF_BOARD_USB_VBUS_DETECT)
	gpio_configure_pin(USB_VBUS_PIN, USB_VBUS_FLAGS);
# endif
#endif
}
  4007b4:	bd80      	pop	{r7, pc}
  4007b6:	bf00      	nop
  4007b8:	400e1450 	.word	0x400e1450
  4007bc:	004006ed 	.word	0x004006ed
  4007c0:	00401a31 	.word	0x00401a31
  4007c4:	28000079 	.word	0x28000079
  4007c8:	28000059 	.word	0x28000059
  4007cc:	400e0e00 	.word	0x400e0e00
  4007d0:	00401be9 	.word	0x00401be9
  4007d4:	08000001 	.word	0x08000001

004007d8 <ioport_set_pin_level>:
 *
 * \param pin IOPORT pin to configure
 * \param level Logical value of the pin
 */
static inline void ioport_set_pin_level(ioport_pin_t pin, bool level)
{
  4007d8:	b480      	push	{r7}
  4007da:	b08b      	sub	sp, #44	; 0x2c
  4007dc:	af00      	add	r7, sp, #0
  4007de:	6078      	str	r0, [r7, #4]
  4007e0:	460b      	mov	r3, r1
  4007e2:	70fb      	strb	r3, [r7, #3]
  4007e4:	687b      	ldr	r3, [r7, #4]
  4007e6:	627b      	str	r3, [r7, #36]	; 0x24
  4007e8:	78fb      	ldrb	r3, [r7, #3]
  4007ea:	f887 3023 	strb.w	r3, [r7, #35]	; 0x23
  4007ee:	6a7b      	ldr	r3, [r7, #36]	; 0x24
  4007f0:	61fb      	str	r3, [r7, #28]
  4007f2:	69fb      	ldr	r3, [r7, #28]
  4007f4:	61bb      	str	r3, [r7, #24]
typedef uint32_t ioport_port_t;
typedef uint32_t ioport_port_mask_t;

__always_inline static ioport_port_t arch_ioport_pin_to_port_id(ioport_pin_t pin)
{
	return pin >> 5;
  4007f6:	69bb      	ldr	r3, [r7, #24]
  4007f8:	095b      	lsrs	r3, r3, #5
  4007fa:	617b      	str	r3, [r7, #20]
	} else {
		return (Pio *)((uintptr_t)IOPORT_BASE_ADDRESS +
		       (IOPORT_PIO_OFFSET * port));
	}
#else
	return (Pio *)((uintptr_t)IOPORT_BASE_ADDRESS +
  4007fc:	697b      	ldr	r3, [r7, #20]
  4007fe:	f503 1300 	add.w	r3, r3, #2097152	; 0x200000
  400802:	f203 7307 	addw	r3, r3, #1799	; 0x707
  400806:	025b      	lsls	r3, r3, #9
}

__always_inline static void arch_ioport_set_pin_level(ioport_pin_t pin,
		bool level)
{
	Pio *base = arch_ioport_pin_to_base(pin);
  400808:	613b      	str	r3, [r7, #16]

	if (level) {
  40080a:	f897 3023 	ldrb.w	r3, [r7, #35]	; 0x23
  40080e:	2b00      	cmp	r3, #0
  400810:	d009      	beq.n	400826 <ioport_set_pin_level+0x4e>
  400812:	6a7b      	ldr	r3, [r7, #36]	; 0x24
  400814:	60fb      	str	r3, [r7, #12]
	return arch_ioport_port_to_base(arch_ioport_pin_to_port_id(pin));
}

__always_inline static ioport_port_mask_t arch_ioport_pin_to_mask(ioport_pin_t pin)
{
	return 1U << (pin & 0x1F);
  400816:	68fb      	ldr	r3, [r7, #12]
  400818:	f003 031f 	and.w	r3, r3, #31
  40081c:	2201      	movs	r2, #1
  40081e:	409a      	lsls	r2, r3
		bool level)
{
	Pio *base = arch_ioport_pin_to_base(pin);

	if (level) {
		base->PIO_SODR = arch_ioport_pin_to_mask(pin);
  400820:	693b      	ldr	r3, [r7, #16]
  400822:	631a      	str	r2, [r3, #48]	; 0x30
  400824:	e008      	b.n	400838 <ioport_set_pin_level+0x60>
  400826:	6a7b      	ldr	r3, [r7, #36]	; 0x24
  400828:	60bb      	str	r3, [r7, #8]
	return arch_ioport_port_to_base(arch_ioport_pin_to_port_id(pin));
}

__always_inline static ioport_port_mask_t arch_ioport_pin_to_mask(ioport_pin_t pin)
{
	return 1U << (pin & 0x1F);
  40082a:	68bb      	ldr	r3, [r7, #8]
  40082c:	f003 031f 	and.w	r3, r3, #31
  400830:	2201      	movs	r2, #1
  400832:	409a      	lsls	r2, r3
	Pio *base = arch_ioport_pin_to_base(pin);

	if (level) {
		base->PIO_SODR = arch_ioport_pin_to_mask(pin);
	} else {
		base->PIO_CODR = arch_ioport_pin_to_mask(pin);
  400834:	693b      	ldr	r3, [r7, #16]
  400836:	635a      	str	r2, [r3, #52]	; 0x34
	arch_ioport_set_pin_level(pin, level);
}
  400838:	372c      	adds	r7, #44	; 0x2c
  40083a:	46bd      	mov	sp, r7
  40083c:	f85d 7b04 	ldr.w	r7, [sp], #4
  400840:	4770      	bx	lr
  400842:	bf00      	nop

00400844 <aat31xx_set_backlight>:
 * \param ul_level backlight level.
 *
 * \note pin BOARD_AAT31XX_SET_GPIO must be configured before calling aat31xx_set_backlight.
 */
void aat31xx_set_backlight(uint32_t ul_level)
{
  400844:	b580      	push	{r7, lr}
  400846:	b084      	sub	sp, #16
  400848:	af00      	add	r7, sp, #0
  40084a:	6078      	str	r0, [r7, #4]
	volatile uint32_t ul_delay;
	uint32_t i;

#ifdef CONF_BOARD_AAT3155
	ul_level = AAT31XX_MAX_BACKLIGHT_LEVEL - ul_level + 1;
  40084c:	687b      	ldr	r3, [r7, #4]
  40084e:	f1c3 0311 	rsb	r3, r3, #17
  400852:	607b      	str	r3, [r7, #4]
#ifdef CONF_BOARD_AAT3193
	ul_level = AAT31XX_MAX_BACKLIGHT_LEVEL - ul_level + 1;
#endif

	/* Ensure valid level */
	ul_level = (ul_level > AAT31XX_MAX_BACKLIGHT_LEVEL) ? AAT31XX_MAX_BACKLIGHT_LEVEL : ul_level;
  400854:	687b      	ldr	r3, [r7, #4]
  400856:	2b10      	cmp	r3, #16
  400858:	bf28      	it	cs
  40085a:	2310      	movcs	r3, #16
  40085c:	607b      	str	r3, [r7, #4]
	ul_level = (ul_level < AAT31XX_MIN_BACKLIGHT_LEVEL) ? AAT31XX_MIN_BACKLIGHT_LEVEL : ul_level;
  40085e:	687b      	ldr	r3, [r7, #4]
  400860:	2b00      	cmp	r3, #0
  400862:	d001      	beq.n	400868 <aat31xx_set_backlight+0x24>
  400864:	687b      	ldr	r3, [r7, #4]
  400866:	e000      	b.n	40086a <aat31xx_set_backlight+0x26>
  400868:	2301      	movs	r3, #1
  40086a:	607b      	str	r3, [r7, #4]

	/* Set new backlight level */
	for (i = 0; i < ul_level; i++) {
  40086c:	2300      	movs	r3, #0
  40086e:	60fb      	str	r3, [r7, #12]
  400870:	e01a      	b.n	4008a8 <aat31xx_set_backlight+0x64>
		ioport_set_pin_level(BOARD_AAT31XX_SET_GPIO, IOPORT_PIN_LEVEL_LOW);
  400872:	204d      	movs	r0, #77	; 0x4d
  400874:	2100      	movs	r1, #0
  400876:	4b14      	ldr	r3, [pc, #80]	; (4008c8 <aat31xx_set_backlight+0x84>)
  400878:	4798      	blx	r3
		ul_delay = DELAY_PULSE;
  40087a:	2318      	movs	r3, #24
  40087c:	60bb      	str	r3, [r7, #8]
		while (ul_delay--) {
  40087e:	bf00      	nop
  400880:	68bb      	ldr	r3, [r7, #8]
  400882:	1e5a      	subs	r2, r3, #1
  400884:	60ba      	str	r2, [r7, #8]
  400886:	2b00      	cmp	r3, #0
  400888:	d1fa      	bne.n	400880 <aat31xx_set_backlight+0x3c>
		}

		ioport_set_pin_level(BOARD_AAT31XX_SET_GPIO, IOPORT_PIN_LEVEL_HIGH);
  40088a:	204d      	movs	r0, #77	; 0x4d
  40088c:	2101      	movs	r1, #1
  40088e:	4b0e      	ldr	r3, [pc, #56]	; (4008c8 <aat31xx_set_backlight+0x84>)
  400890:	4798      	blx	r3

		ul_delay = DELAY_PULSE;
  400892:	2318      	movs	r3, #24
  400894:	60bb      	str	r3, [r7, #8]
		while (ul_delay--) {
  400896:	bf00      	nop
  400898:	68bb      	ldr	r3, [r7, #8]
  40089a:	1e5a      	subs	r2, r3, #1
  40089c:	60ba      	str	r2, [r7, #8]
  40089e:	2b00      	cmp	r3, #0
  4008a0:	d1fa      	bne.n	400898 <aat31xx_set_backlight+0x54>
	/* Ensure valid level */
	ul_level = (ul_level > AAT31XX_MAX_BACKLIGHT_LEVEL) ? AAT31XX_MAX_BACKLIGHT_LEVEL : ul_level;
	ul_level = (ul_level < AAT31XX_MIN_BACKLIGHT_LEVEL) ? AAT31XX_MIN_BACKLIGHT_LEVEL : ul_level;

	/* Set new backlight level */
	for (i = 0; i < ul_level; i++) {
  4008a2:	68fb      	ldr	r3, [r7, #12]
  4008a4:	3301      	adds	r3, #1
  4008a6:	60fb      	str	r3, [r7, #12]
  4008a8:	68fa      	ldr	r2, [r7, #12]
  4008aa:	687b      	ldr	r3, [r7, #4]
  4008ac:	429a      	cmp	r2, r3
  4008ae:	d3e0      	bcc.n	400872 <aat31xx_set_backlight+0x2e>
		ul_delay = DELAY_PULSE;
		while (ul_delay--) {
		}
	}

	ul_delay = DELAY_ENABLE;
  4008b0:	f44f 3300 	mov.w	r3, #131072	; 0x20000
  4008b4:	60bb      	str	r3, [r7, #8]
	while (ul_delay--) {
  4008b6:	bf00      	nop
  4008b8:	68bb      	ldr	r3, [r7, #8]
  4008ba:	1e5a      	subs	r2, r3, #1
  4008bc:	60ba      	str	r2, [r7, #8]
  4008be:	2b00      	cmp	r3, #0
  4008c0:	d1fa      	bne.n	4008b8 <aat31xx_set_backlight+0x74>
	}
}
  4008c2:	3710      	adds	r7, #16
  4008c4:	46bd      	mov	sp, r7
  4008c6:	bd80      	pop	{r7, pc}
  4008c8:	004007d9 	.word	0x004007d9

004008cc <aat31xx_disable_backlight>:

/**
 * \brief Switch off backlight.
 */
void aat31xx_disable_backlight(void)
{
  4008cc:	b580      	push	{r7, lr}
  4008ce:	b082      	sub	sp, #8
  4008d0:	af00      	add	r7, sp, #0
	volatile uint32_t ul_delay;

	ioport_set_pin_level(BOARD_AAT31XX_SET_GPIO, IOPORT_PIN_LEVEL_LOW);
  4008d2:	204d      	movs	r0, #77	; 0x4d
  4008d4:	2100      	movs	r1, #0
  4008d6:	4b07      	ldr	r3, [pc, #28]	; (4008f4 <aat31xx_disable_backlight+0x28>)
  4008d8:	4798      	blx	r3

	ul_delay = DELAY_DISABLE;
  4008da:	f44f 3300 	mov.w	r3, #131072	; 0x20000
  4008de:	607b      	str	r3, [r7, #4]
	while (ul_delay--) {
  4008e0:	bf00      	nop
  4008e2:	687b      	ldr	r3, [r7, #4]
  4008e4:	1e5a      	subs	r2, r3, #1
  4008e6:	607a      	str	r2, [r7, #4]
  4008e8:	2b00      	cmp	r3, #0
  4008ea:	d1fa      	bne.n	4008e2 <aat31xx_disable_backlight+0x16>
	}
}
  4008ec:	3708      	adds	r7, #8
  4008ee:	46bd      	mov	sp, r7
  4008f0:	bd80      	pop	{r7, pc}
  4008f2:	bf00      	nop
  4008f4:	004007d9 	.word	0x004007d9

004008f8 <LCD_IR>:
#define DEVICE_TYPE_ILI9325  1
#define DEVICE_TYPE_ILI9341  2
/** Define EBI access for ILI93xx 8-bit System Interface.*/
#if defined(BOARD_ILI93XX_ADDR) && defined (BOARD_ILI93XX_RS)
static inline void LCD_IR(uint8_t lcd_index)
{
  4008f8:	b480      	push	{r7}
  4008fa:	b083      	sub	sp, #12
  4008fc:	af00      	add	r7, sp, #0
  4008fe:	4603      	mov	r3, r0
  400900:	71fb      	strb	r3, [r7, #7]
	/** ILI93XX index register address */
	*((volatile uint8_t *)(BOARD_ILI93XX_ADDR)) = lcd_index;
  400902:	f04f 42c2 	mov.w	r2, #1627389952	; 0x61000000
  400906:	79fb      	ldrb	r3, [r7, #7]
  400908:	7013      	strb	r3, [r2, #0]
}
  40090a:	370c      	adds	r7, #12
  40090c:	46bd      	mov	sp, r7
  40090e:	f85d 7b04 	ldr.w	r7, [sp], #4
  400912:	4770      	bx	lr

00400914 <LCD_WD>:

static inline void LCD_WD(uint8_t lcd_data)
{
  400914:	b480      	push	{r7}
  400916:	b083      	sub	sp, #12
  400918:	af00      	add	r7, sp, #0
  40091a:	4603      	mov	r3, r0
  40091c:	71fb      	strb	r3, [r7, #7]
	*((volatile uint8_t *)((BOARD_ILI93XX_ADDR) | (BOARD_ILI93XX_RS))) =
  40091e:	4a04      	ldr	r2, [pc, #16]	; (400930 <LCD_WD+0x1c>)
  400920:	79fb      	ldrb	r3, [r7, #7]
  400922:	7013      	strb	r3, [r2, #0]
																lcd_data;
}
  400924:	370c      	adds	r7, #12
  400926:	46bd      	mov	sp, r7
  400928:	f85d 7b04 	ldr.w	r7, [sp], #4
  40092c:	4770      	bx	lr
  40092e:	bf00      	nop
  400930:	61000002 	.word	0x61000002

00400934 <LCD_RD>:

static inline uint8_t LCD_RD(void)
{
  400934:	b480      	push	{r7}
  400936:	af00      	add	r7, sp, #0
	return *((volatile uint8_t *)((BOARD_ILI93XX_ADDR) |(BOARD_ILI93XX_RS)));
  400938:	4b03      	ldr	r3, [pc, #12]	; (400948 <LCD_RD+0x14>)
  40093a:	781b      	ldrb	r3, [r3, #0]
  40093c:	b2db      	uxtb	r3, r3
}
  40093e:	4618      	mov	r0, r3
  400940:	46bd      	mov	sp, r7
  400942:	f85d 7b04 	ldr.w	r7, [sp], #4
  400946:	4770      	bx	lr
  400948:	61000002 	.word	0x61000002

0040094c <ili93xx_write_ram_prepare>:

/**
 * \brief Prepare to write GRAM data for ili93xx.
 */
static void ili93xx_write_ram_prepare(void)
{
  40094c:	b580      	push	{r7, lr}
  40094e:	af00      	add	r7, sp, #0
	if (g_uc_device_type == DEVICE_TYPE_ILI9325) {
  400950:	4b0c      	ldr	r3, [pc, #48]	; (400984 <ili93xx_write_ram_prepare+0x38>)
  400952:	781b      	ldrb	r3, [r3, #0]
  400954:	2b01      	cmp	r3, #1
  400956:	d106      	bne.n	400966 <ili93xx_write_ram_prepare+0x1a>
		/** Write Data to GRAM (R22h) */
		LCD_IR(0);
  400958:	2000      	movs	r0, #0
  40095a:	4b0b      	ldr	r3, [pc, #44]	; (400988 <ili93xx_write_ram_prepare+0x3c>)
  40095c:	4798      	blx	r3
		LCD_IR(ILI9325_GRAM_DATA_REG);
  40095e:	2022      	movs	r0, #34	; 0x22
  400960:	4b09      	ldr	r3, [pc, #36]	; (400988 <ili93xx_write_ram_prepare+0x3c>)
  400962:	4798      	blx	r3
  400964:	e00c      	b.n	400980 <ili93xx_write_ram_prepare+0x34>
	} else if (g_uc_device_type == DEVICE_TYPE_ILI9341) {
  400966:	4b07      	ldr	r3, [pc, #28]	; (400984 <ili93xx_write_ram_prepare+0x38>)
  400968:	781b      	ldrb	r3, [r3, #0]
  40096a:	2b02      	cmp	r3, #2
  40096c:	d108      	bne.n	400980 <ili93xx_write_ram_prepare+0x34>
		/** memory write command (R2Ch)*/
		LCD_IR(ILI9341_CMD_MEMORY_WRITE);
  40096e:	202c      	movs	r0, #44	; 0x2c
  400970:	4b05      	ldr	r3, [pc, #20]	; (400988 <ili93xx_write_ram_prepare+0x3c>)
  400972:	4798      	blx	r3
		LCD_IR(0);
  400974:	2000      	movs	r0, #0
  400976:	4b04      	ldr	r3, [pc, #16]	; (400988 <ili93xx_write_ram_prepare+0x3c>)
  400978:	4798      	blx	r3
		LCD_IR(ILI9341_CMD_WRITE_MEMORY_CONTINUE);
  40097a:	203c      	movs	r0, #60	; 0x3c
  40097c:	4b02      	ldr	r3, [pc, #8]	; (400988 <ili93xx_write_ram_prepare+0x3c>)
  40097e:	4798      	blx	r3
	}
}
  400980:	bd80      	pop	{r7, pc}
  400982:	bf00      	nop
  400984:	200008a0 	.word	0x200008a0
  400988:	004008f9 	.word	0x004008f9

0040098c <ili93xx_write_ram>:
 * \brief Write data to LCD GRAM.
 *
 * \param ul_color 24-bits RGB color.
 */
static void ili93xx_write_ram(ili93xx_color_t ul_color)
{
  40098c:	b580      	push	{r7, lr}
  40098e:	b082      	sub	sp, #8
  400990:	af00      	add	r7, sp, #0
  400992:	6078      	str	r0, [r7, #4]
	LCD_WD((ul_color >> 16) & 0xFF);
  400994:	687b      	ldr	r3, [r7, #4]
  400996:	0c1b      	lsrs	r3, r3, #16
  400998:	b2db      	uxtb	r3, r3
  40099a:	4618      	mov	r0, r3
  40099c:	4b07      	ldr	r3, [pc, #28]	; (4009bc <ili93xx_write_ram+0x30>)
  40099e:	4798      	blx	r3
	LCD_WD((ul_color >> 8) & 0xFF);
  4009a0:	687b      	ldr	r3, [r7, #4]
  4009a2:	0a1b      	lsrs	r3, r3, #8
  4009a4:	b2db      	uxtb	r3, r3
  4009a6:	4618      	mov	r0, r3
  4009a8:	4b04      	ldr	r3, [pc, #16]	; (4009bc <ili93xx_write_ram+0x30>)
  4009aa:	4798      	blx	r3
	LCD_WD(ul_color & 0xFF);
  4009ac:	687b      	ldr	r3, [r7, #4]
  4009ae:	b2db      	uxtb	r3, r3
  4009b0:	4618      	mov	r0, r3
  4009b2:	4b02      	ldr	r3, [pc, #8]	; (4009bc <ili93xx_write_ram+0x30>)
  4009b4:	4798      	blx	r3
}
  4009b6:	3708      	adds	r7, #8
  4009b8:	46bd      	mov	sp, r7
  4009ba:	bd80      	pop	{r7, pc}
  4009bc:	00400915 	.word	0x00400915

004009c0 <ili93xx_write_ram_buffer>:
 * \param p_ul_buf data buffer.
 * \param ul_size size in pixels.
 */
static void ili93xx_write_ram_buffer(const ili93xx_color_t *p_ul_buf,
		uint32_t ul_size)
{
  4009c0:	b580      	push	{r7, lr}
  4009c2:	b084      	sub	sp, #16
  4009c4:	af00      	add	r7, sp, #0
  4009c6:	6078      	str	r0, [r7, #4]
  4009c8:	6039      	str	r1, [r7, #0]
	uint32_t ul_addr;
	for (ul_addr = 0; ul_addr < (ul_size - ul_size % 8); ul_addr += 8) {
  4009ca:	2300      	movs	r3, #0
  4009cc:	60fb      	str	r3, [r7, #12]
  4009ce:	e049      	b.n	400a64 <ili93xx_write_ram_buffer+0xa4>
		ili93xx_write_ram(p_ul_buf[ul_addr]);
  4009d0:	68fb      	ldr	r3, [r7, #12]
  4009d2:	009b      	lsls	r3, r3, #2
  4009d4:	687a      	ldr	r2, [r7, #4]
  4009d6:	4413      	add	r3, r2
  4009d8:	681b      	ldr	r3, [r3, #0]
  4009da:	4618      	mov	r0, r3
  4009dc:	4b2e      	ldr	r3, [pc, #184]	; (400a98 <ili93xx_write_ram_buffer+0xd8>)
  4009de:	4798      	blx	r3
		ili93xx_write_ram(p_ul_buf[ul_addr + 1]);
  4009e0:	68fb      	ldr	r3, [r7, #12]
  4009e2:	3301      	adds	r3, #1
  4009e4:	009b      	lsls	r3, r3, #2
  4009e6:	687a      	ldr	r2, [r7, #4]
  4009e8:	4413      	add	r3, r2
  4009ea:	681b      	ldr	r3, [r3, #0]
  4009ec:	4618      	mov	r0, r3
  4009ee:	4b2a      	ldr	r3, [pc, #168]	; (400a98 <ili93xx_write_ram_buffer+0xd8>)
  4009f0:	4798      	blx	r3
		ili93xx_write_ram(p_ul_buf[ul_addr + 2]);
  4009f2:	68fb      	ldr	r3, [r7, #12]
  4009f4:	3302      	adds	r3, #2
  4009f6:	009b      	lsls	r3, r3, #2
  4009f8:	687a      	ldr	r2, [r7, #4]
  4009fa:	4413      	add	r3, r2
  4009fc:	681b      	ldr	r3, [r3, #0]
  4009fe:	4618      	mov	r0, r3
  400a00:	4b25      	ldr	r3, [pc, #148]	; (400a98 <ili93xx_write_ram_buffer+0xd8>)
  400a02:	4798      	blx	r3
		ili93xx_write_ram(p_ul_buf[ul_addr + 3]);
  400a04:	68fb      	ldr	r3, [r7, #12]
  400a06:	3303      	adds	r3, #3
  400a08:	009b      	lsls	r3, r3, #2
  400a0a:	687a      	ldr	r2, [r7, #4]
  400a0c:	4413      	add	r3, r2
  400a0e:	681b      	ldr	r3, [r3, #0]
  400a10:	4618      	mov	r0, r3
  400a12:	4b21      	ldr	r3, [pc, #132]	; (400a98 <ili93xx_write_ram_buffer+0xd8>)
  400a14:	4798      	blx	r3
		ili93xx_write_ram(p_ul_buf[ul_addr + 4]);
  400a16:	68fb      	ldr	r3, [r7, #12]
  400a18:	3304      	adds	r3, #4
  400a1a:	009b      	lsls	r3, r3, #2
  400a1c:	687a      	ldr	r2, [r7, #4]
  400a1e:	4413      	add	r3, r2
  400a20:	681b      	ldr	r3, [r3, #0]
  400a22:	4618      	mov	r0, r3
  400a24:	4b1c      	ldr	r3, [pc, #112]	; (400a98 <ili93xx_write_ram_buffer+0xd8>)
  400a26:	4798      	blx	r3
		ili93xx_write_ram(p_ul_buf[ul_addr + 5]);
  400a28:	68fb      	ldr	r3, [r7, #12]
  400a2a:	3305      	adds	r3, #5
  400a2c:	009b      	lsls	r3, r3, #2
  400a2e:	687a      	ldr	r2, [r7, #4]
  400a30:	4413      	add	r3, r2
  400a32:	681b      	ldr	r3, [r3, #0]
  400a34:	4618      	mov	r0, r3
  400a36:	4b18      	ldr	r3, [pc, #96]	; (400a98 <ili93xx_write_ram_buffer+0xd8>)
  400a38:	4798      	blx	r3
		ili93xx_write_ram(p_ul_buf[ul_addr + 6]);
  400a3a:	68fb      	ldr	r3, [r7, #12]
  400a3c:	3306      	adds	r3, #6
  400a3e:	009b      	lsls	r3, r3, #2
  400a40:	687a      	ldr	r2, [r7, #4]
  400a42:	4413      	add	r3, r2
  400a44:	681b      	ldr	r3, [r3, #0]
  400a46:	4618      	mov	r0, r3
  400a48:	4b13      	ldr	r3, [pc, #76]	; (400a98 <ili93xx_write_ram_buffer+0xd8>)
  400a4a:	4798      	blx	r3
		ili93xx_write_ram(p_ul_buf[ul_addr + 7]);
  400a4c:	68fb      	ldr	r3, [r7, #12]
  400a4e:	3307      	adds	r3, #7
  400a50:	009b      	lsls	r3, r3, #2
  400a52:	687a      	ldr	r2, [r7, #4]
  400a54:	4413      	add	r3, r2
  400a56:	681b      	ldr	r3, [r3, #0]
  400a58:	4618      	mov	r0, r3
  400a5a:	4b0f      	ldr	r3, [pc, #60]	; (400a98 <ili93xx_write_ram_buffer+0xd8>)
  400a5c:	4798      	blx	r3
 */
static void ili93xx_write_ram_buffer(const ili93xx_color_t *p_ul_buf,
		uint32_t ul_size)
{
	uint32_t ul_addr;
	for (ul_addr = 0; ul_addr < (ul_size - ul_size % 8); ul_addr += 8) {
  400a5e:	68fb      	ldr	r3, [r7, #12]
  400a60:	3308      	adds	r3, #8
  400a62:	60fb      	str	r3, [r7, #12]
  400a64:	683b      	ldr	r3, [r7, #0]
  400a66:	f023 0207 	bic.w	r2, r3, #7
  400a6a:	68fb      	ldr	r3, [r7, #12]
  400a6c:	429a      	cmp	r2, r3
  400a6e:	d8af      	bhi.n	4009d0 <ili93xx_write_ram_buffer+0x10>
		ili93xx_write_ram(p_ul_buf[ul_addr + 4]);
		ili93xx_write_ram(p_ul_buf[ul_addr + 5]);
		ili93xx_write_ram(p_ul_buf[ul_addr + 6]);
		ili93xx_write_ram(p_ul_buf[ul_addr + 7]);
	}
	for (; ul_addr < ul_size; ul_addr++) {
  400a70:	e00a      	b.n	400a88 <ili93xx_write_ram_buffer+0xc8>
		ili93xx_write_ram(p_ul_buf[ul_addr]);
  400a72:	68fb      	ldr	r3, [r7, #12]
  400a74:	009b      	lsls	r3, r3, #2
  400a76:	687a      	ldr	r2, [r7, #4]
  400a78:	4413      	add	r3, r2
  400a7a:	681b      	ldr	r3, [r3, #0]
  400a7c:	4618      	mov	r0, r3
  400a7e:	4b06      	ldr	r3, [pc, #24]	; (400a98 <ili93xx_write_ram_buffer+0xd8>)
  400a80:	4798      	blx	r3
		ili93xx_write_ram(p_ul_buf[ul_addr + 4]);
		ili93xx_write_ram(p_ul_buf[ul_addr + 5]);
		ili93xx_write_ram(p_ul_buf[ul_addr + 6]);
		ili93xx_write_ram(p_ul_buf[ul_addr + 7]);
	}
	for (; ul_addr < ul_size; ul_addr++) {
  400a82:	68fb      	ldr	r3, [r7, #12]
  400a84:	3301      	adds	r3, #1
  400a86:	60fb      	str	r3, [r7, #12]
  400a88:	68fa      	ldr	r2, [r7, #12]
  400a8a:	683b      	ldr	r3, [r7, #0]
  400a8c:	429a      	cmp	r2, r3
  400a8e:	d3f0      	bcc.n	400a72 <ili93xx_write_ram_buffer+0xb2>
		ili93xx_write_ram(p_ul_buf[ul_addr]);
	}
}
  400a90:	3710      	adds	r7, #16
  400a92:	46bd      	mov	sp, r7
  400a94:	bd80      	pop	{r7, pc}
  400a96:	bf00      	nop
  400a98:	0040098d 	.word	0x0040098d

00400a9c <ili93xx_write_register_word>:
 *
 * \param uc_reg register address.
 * \param us_data data to be written.
 */
static void ili93xx_write_register_word(uint8_t uc_reg, uint16_t us_data)
{
  400a9c:	b580      	push	{r7, lr}
  400a9e:	b082      	sub	sp, #8
  400aa0:	af00      	add	r7, sp, #0
  400aa2:	4603      	mov	r3, r0
  400aa4:	460a      	mov	r2, r1
  400aa6:	71fb      	strb	r3, [r7, #7]
  400aa8:	4613      	mov	r3, r2
  400aaa:	80bb      	strh	r3, [r7, #4]
	LCD_IR(0);
  400aac:	2000      	movs	r0, #0
  400aae:	4b0a      	ldr	r3, [pc, #40]	; (400ad8 <ili93xx_write_register_word+0x3c>)
  400ab0:	4798      	blx	r3
	LCD_IR(uc_reg);
  400ab2:	79fb      	ldrb	r3, [r7, #7]
  400ab4:	4618      	mov	r0, r3
  400ab6:	4b08      	ldr	r3, [pc, #32]	; (400ad8 <ili93xx_write_register_word+0x3c>)
  400ab8:	4798      	blx	r3
	LCD_WD((us_data >> 8) & 0xFF);
  400aba:	88bb      	ldrh	r3, [r7, #4]
  400abc:	0a1b      	lsrs	r3, r3, #8
  400abe:	b29b      	uxth	r3, r3
  400ac0:	b2db      	uxtb	r3, r3
  400ac2:	4618      	mov	r0, r3
  400ac4:	4b05      	ldr	r3, [pc, #20]	; (400adc <ili93xx_write_register_word+0x40>)
  400ac6:	4798      	blx	r3
	LCD_WD(us_data & 0xFF);
  400ac8:	88bb      	ldrh	r3, [r7, #4]
  400aca:	b2db      	uxtb	r3, r3
  400acc:	4618      	mov	r0, r3
  400ace:	4b03      	ldr	r3, [pc, #12]	; (400adc <ili93xx_write_register_word+0x40>)
  400ad0:	4798      	blx	r3
}
  400ad2:	3708      	adds	r7, #8
  400ad4:	46bd      	mov	sp, r7
  400ad6:	bd80      	pop	{r7, pc}
  400ad8:	004008f9 	.word	0x004008f9
  400adc:	00400915 	.word	0x00400915

00400ae0 <ili93xx_write_register>:
 * \param uc_reg register address.
 * \param us_data data to be written.
 */
static void ili93xx_write_register(uint8_t uc_reg, uint8_t *p_data,
		uint8_t uc_datacnt)
{
  400ae0:	b580      	push	{r7, lr}
  400ae2:	b084      	sub	sp, #16
  400ae4:	af00      	add	r7, sp, #0
  400ae6:	4603      	mov	r3, r0
  400ae8:	6039      	str	r1, [r7, #0]
  400aea:	71fb      	strb	r3, [r7, #7]
  400aec:	4613      	mov	r3, r2
  400aee:	71bb      	strb	r3, [r7, #6]
	LCD_IR(0);
  400af0:	2000      	movs	r0, #0
  400af2:	4b0d      	ldr	r3, [pc, #52]	; (400b28 <ili93xx_write_register+0x48>)
  400af4:	4798      	blx	r3
	LCD_IR(uc_reg);
  400af6:	79fb      	ldrb	r3, [r7, #7]
  400af8:	4618      	mov	r0, r3
  400afa:	4b0b      	ldr	r3, [pc, #44]	; (400b28 <ili93xx_write_register+0x48>)
  400afc:	4798      	blx	r3
	for (uint8_t i = 0; i < uc_datacnt; i++) {
  400afe:	2300      	movs	r3, #0
  400b00:	73fb      	strb	r3, [r7, #15]
  400b02:	e009      	b.n	400b18 <ili93xx_write_register+0x38>
		LCD_WD(p_data[i]);
  400b04:	7bfb      	ldrb	r3, [r7, #15]
  400b06:	683a      	ldr	r2, [r7, #0]
  400b08:	4413      	add	r3, r2
  400b0a:	781b      	ldrb	r3, [r3, #0]
  400b0c:	4618      	mov	r0, r3
  400b0e:	4b07      	ldr	r3, [pc, #28]	; (400b2c <ili93xx_write_register+0x4c>)
  400b10:	4798      	blx	r3
static void ili93xx_write_register(uint8_t uc_reg, uint8_t *p_data,
		uint8_t uc_datacnt)
{
	LCD_IR(0);
	LCD_IR(uc_reg);
	for (uint8_t i = 0; i < uc_datacnt; i++) {
  400b12:	7bfb      	ldrb	r3, [r7, #15]
  400b14:	3301      	adds	r3, #1
  400b16:	73fb      	strb	r3, [r7, #15]
  400b18:	7bfa      	ldrb	r2, [r7, #15]
  400b1a:	79bb      	ldrb	r3, [r7, #6]
  400b1c:	429a      	cmp	r2, r3
  400b1e:	d3f1      	bcc.n	400b04 <ili93xx_write_register+0x24>
		LCD_WD(p_data[i]);
	}
}
  400b20:	3710      	adds	r7, #16
  400b22:	46bd      	mov	sp, r7
  400b24:	bd80      	pop	{r7, pc}
  400b26:	bf00      	nop
  400b28:	004008f9 	.word	0x004008f9
  400b2c:	00400915 	.word	0x00400915

00400b30 <ili93xx_read_register>:
 * \param p_data the pointer to the read data.
 * \param uc_datacnt the number of the read data
 */
static void ili93xx_read_register(uint8_t uc_reg, uint8_t *p_data,
		uint8_t uc_datacnt)
{
  400b30:	b590      	push	{r4, r7, lr}
  400b32:	b085      	sub	sp, #20
  400b34:	af00      	add	r7, sp, #0
  400b36:	4603      	mov	r3, r0
  400b38:	6039      	str	r1, [r7, #0]
  400b3a:	71fb      	strb	r3, [r7, #7]
  400b3c:	4613      	mov	r3, r2
  400b3e:	71bb      	strb	r3, [r7, #6]
	LCD_IR(0);
  400b40:	2000      	movs	r0, #0
  400b42:	4b0d      	ldr	r3, [pc, #52]	; (400b78 <ili93xx_read_register+0x48>)
  400b44:	4798      	blx	r3
	LCD_IR(uc_reg);
  400b46:	79fb      	ldrb	r3, [r7, #7]
  400b48:	4618      	mov	r0, r3
  400b4a:	4b0b      	ldr	r3, [pc, #44]	; (400b78 <ili93xx_read_register+0x48>)
  400b4c:	4798      	blx	r3

	for (uint8_t i = 0; i < uc_datacnt; i++) {
  400b4e:	2300      	movs	r3, #0
  400b50:	73fb      	strb	r3, [r7, #15]
  400b52:	e009      	b.n	400b68 <ili93xx_read_register+0x38>
		p_data[i] = LCD_RD();
  400b54:	7bfb      	ldrb	r3, [r7, #15]
  400b56:	683a      	ldr	r2, [r7, #0]
  400b58:	18d4      	adds	r4, r2, r3
  400b5a:	4b08      	ldr	r3, [pc, #32]	; (400b7c <ili93xx_read_register+0x4c>)
  400b5c:	4798      	blx	r3
  400b5e:	4603      	mov	r3, r0
  400b60:	7023      	strb	r3, [r4, #0]
		uint8_t uc_datacnt)
{
	LCD_IR(0);
	LCD_IR(uc_reg);

	for (uint8_t i = 0; i < uc_datacnt; i++) {
  400b62:	7bfb      	ldrb	r3, [r7, #15]
  400b64:	3301      	adds	r3, #1
  400b66:	73fb      	strb	r3, [r7, #15]
  400b68:	7bfa      	ldrb	r2, [r7, #15]
  400b6a:	79bb      	ldrb	r3, [r7, #6]
  400b6c:	429a      	cmp	r2, r3
  400b6e:	d3f1      	bcc.n	400b54 <ili93xx_read_register+0x24>
		p_data[i] = LCD_RD();
	}
}
  400b70:	3714      	adds	r7, #20
  400b72:	46bd      	mov	sp, r7
  400b74:	bd90      	pop	{r4, r7, pc}
  400b76:	bf00      	nop
  400b78:	004008f9 	.word	0x004008f9
  400b7c:	00400935 	.word	0x00400935

00400b80 <ili93xx_delay>:

/**
 * \brief Delay function.
 */
static void ili93xx_delay(uint32_t ul_ms)
{
  400b80:	b480      	push	{r7}
  400b82:	b085      	sub	sp, #20
  400b84:	af00      	add	r7, sp, #0
  400b86:	6078      	str	r0, [r7, #4]
	volatile uint32_t i;

	for (i = 0; i < ul_ms; i++) {
  400b88:	2300      	movs	r3, #0
  400b8a:	60fb      	str	r3, [r7, #12]
  400b8c:	e00c      	b.n	400ba8 <ili93xx_delay+0x28>
		for (i = 0; i < 100000; i++) {
  400b8e:	2300      	movs	r3, #0
  400b90:	60fb      	str	r3, [r7, #12]
  400b92:	e002      	b.n	400b9a <ili93xx_delay+0x1a>
  400b94:	68fb      	ldr	r3, [r7, #12]
  400b96:	3301      	adds	r3, #1
  400b98:	60fb      	str	r3, [r7, #12]
  400b9a:	68fb      	ldr	r3, [r7, #12]
  400b9c:	4a07      	ldr	r2, [pc, #28]	; (400bbc <ili93xx_delay+0x3c>)
  400b9e:	4293      	cmp	r3, r2
  400ba0:	d9f8      	bls.n	400b94 <ili93xx_delay+0x14>
 */
static void ili93xx_delay(uint32_t ul_ms)
{
	volatile uint32_t i;

	for (i = 0; i < ul_ms; i++) {
  400ba2:	68fb      	ldr	r3, [r7, #12]
  400ba4:	3301      	adds	r3, #1
  400ba6:	60fb      	str	r3, [r7, #12]
  400ba8:	68fa      	ldr	r2, [r7, #12]
  400baa:	687b      	ldr	r3, [r7, #4]
  400bac:	429a      	cmp	r2, r3
  400bae:	d3ee      	bcc.n	400b8e <ili93xx_delay+0xe>
		for (i = 0; i < 100000; i++) {
		}
	}
}
  400bb0:	3714      	adds	r7, #20
  400bb2:	46bd      	mov	sp, r7
  400bb4:	f85d 7b04 	ldr.w	r7, [sp], #4
  400bb8:	4770      	bx	lr
  400bba:	bf00      	nop
  400bbc:	0001869f 	.word	0x0001869f

00400bc0 <ili93xx_check_box_coordinates>:
 * \param p_ul_x2 X coordinate of lower-right corner on LCD.
 * \param p_ul_y2 Y coordinate of lower-right corner on LCD.
 */
static void ili93xx_check_box_coordinates(uint32_t *p_ul_x1, uint32_t *p_ul_y1,
		uint32_t *p_ul_x2, uint32_t *p_ul_y2)
{
  400bc0:	b480      	push	{r7}
  400bc2:	b087      	sub	sp, #28
  400bc4:	af00      	add	r7, sp, #0
  400bc6:	60f8      	str	r0, [r7, #12]
  400bc8:	60b9      	str	r1, [r7, #8]
  400bca:	607a      	str	r2, [r7, #4]
  400bcc:	603b      	str	r3, [r7, #0]
	uint32_t dw;

	if (*p_ul_x1 >= g_ul_lcd_x_length) {
  400bce:	68fb      	ldr	r3, [r7, #12]
  400bd0:	681a      	ldr	r2, [r3, #0]
  400bd2:	4b27      	ldr	r3, [pc, #156]	; (400c70 <ili93xx_check_box_coordinates+0xb0>)
  400bd4:	681b      	ldr	r3, [r3, #0]
  400bd6:	429a      	cmp	r2, r3
  400bd8:	d304      	bcc.n	400be4 <ili93xx_check_box_coordinates+0x24>
		*p_ul_x1 = g_ul_lcd_x_length - 1;
  400bda:	4b25      	ldr	r3, [pc, #148]	; (400c70 <ili93xx_check_box_coordinates+0xb0>)
  400bdc:	681b      	ldr	r3, [r3, #0]
  400bde:	1e5a      	subs	r2, r3, #1
  400be0:	68fb      	ldr	r3, [r7, #12]
  400be2:	601a      	str	r2, [r3, #0]
	}

	if (*p_ul_x2 >= g_ul_lcd_x_length) {
  400be4:	687b      	ldr	r3, [r7, #4]
  400be6:	681a      	ldr	r2, [r3, #0]
  400be8:	4b21      	ldr	r3, [pc, #132]	; (400c70 <ili93xx_check_box_coordinates+0xb0>)
  400bea:	681b      	ldr	r3, [r3, #0]
  400bec:	429a      	cmp	r2, r3
  400bee:	d304      	bcc.n	400bfa <ili93xx_check_box_coordinates+0x3a>
		*p_ul_x2 = g_ul_lcd_x_length - 1;
  400bf0:	4b1f      	ldr	r3, [pc, #124]	; (400c70 <ili93xx_check_box_coordinates+0xb0>)
  400bf2:	681b      	ldr	r3, [r3, #0]
  400bf4:	1e5a      	subs	r2, r3, #1
  400bf6:	687b      	ldr	r3, [r7, #4]
  400bf8:	601a      	str	r2, [r3, #0]
	}

	if (*p_ul_y1 >= g_ul_lcd_y_length) {
  400bfa:	68bb      	ldr	r3, [r7, #8]
  400bfc:	681a      	ldr	r2, [r3, #0]
  400bfe:	4b1d      	ldr	r3, [pc, #116]	; (400c74 <ili93xx_check_box_coordinates+0xb4>)
  400c00:	681b      	ldr	r3, [r3, #0]
  400c02:	429a      	cmp	r2, r3
  400c04:	d304      	bcc.n	400c10 <ili93xx_check_box_coordinates+0x50>
		*p_ul_y1 = g_ul_lcd_y_length - 1;
  400c06:	4b1b      	ldr	r3, [pc, #108]	; (400c74 <ili93xx_check_box_coordinates+0xb4>)
  400c08:	681b      	ldr	r3, [r3, #0]
  400c0a:	1e5a      	subs	r2, r3, #1
  400c0c:	68bb      	ldr	r3, [r7, #8]
  400c0e:	601a      	str	r2, [r3, #0]
	}

	if (*p_ul_y2 >= g_ul_lcd_y_length) {
  400c10:	683b      	ldr	r3, [r7, #0]
  400c12:	681a      	ldr	r2, [r3, #0]
  400c14:	4b17      	ldr	r3, [pc, #92]	; (400c74 <ili93xx_check_box_coordinates+0xb4>)
  400c16:	681b      	ldr	r3, [r3, #0]
  400c18:	429a      	cmp	r2, r3
  400c1a:	d304      	bcc.n	400c26 <ili93xx_check_box_coordinates+0x66>
		*p_ul_y2 = g_ul_lcd_y_length - 1;
  400c1c:	4b15      	ldr	r3, [pc, #84]	; (400c74 <ili93xx_check_box_coordinates+0xb4>)
  400c1e:	681b      	ldr	r3, [r3, #0]
  400c20:	1e5a      	subs	r2, r3, #1
  400c22:	683b      	ldr	r3, [r7, #0]
  400c24:	601a      	str	r2, [r3, #0]
	}

	if (*p_ul_x1 > *p_ul_x2) {
  400c26:	68fb      	ldr	r3, [r7, #12]
  400c28:	681a      	ldr	r2, [r3, #0]
  400c2a:	687b      	ldr	r3, [r7, #4]
  400c2c:	681b      	ldr	r3, [r3, #0]
  400c2e:	429a      	cmp	r2, r3
  400c30:	d909      	bls.n	400c46 <ili93xx_check_box_coordinates+0x86>
		dw = *p_ul_x1;
  400c32:	68fb      	ldr	r3, [r7, #12]
  400c34:	681b      	ldr	r3, [r3, #0]
  400c36:	617b      	str	r3, [r7, #20]
		*p_ul_x1 = *p_ul_x2;
  400c38:	687b      	ldr	r3, [r7, #4]
  400c3a:	681a      	ldr	r2, [r3, #0]
  400c3c:	68fb      	ldr	r3, [r7, #12]
  400c3e:	601a      	str	r2, [r3, #0]
		*p_ul_x2 = dw;
  400c40:	687b      	ldr	r3, [r7, #4]
  400c42:	697a      	ldr	r2, [r7, #20]
  400c44:	601a      	str	r2, [r3, #0]
	}

	if (*p_ul_y1 > *p_ul_y2) {
  400c46:	68bb      	ldr	r3, [r7, #8]
  400c48:	681a      	ldr	r2, [r3, #0]
  400c4a:	683b      	ldr	r3, [r7, #0]
  400c4c:	681b      	ldr	r3, [r3, #0]
  400c4e:	429a      	cmp	r2, r3
  400c50:	d909      	bls.n	400c66 <ili93xx_check_box_coordinates+0xa6>
		dw = *p_ul_y1;
  400c52:	68bb      	ldr	r3, [r7, #8]
  400c54:	681b      	ldr	r3, [r3, #0]
  400c56:	617b      	str	r3, [r7, #20]
		*p_ul_y1 = *p_ul_y2;
  400c58:	683b      	ldr	r3, [r7, #0]
  400c5a:	681a      	ldr	r2, [r3, #0]
  400c5c:	68bb      	ldr	r3, [r7, #8]
  400c5e:	601a      	str	r2, [r3, #0]
		*p_ul_y2 = dw;
  400c60:	683b      	ldr	r3, [r7, #0]
  400c62:	697a      	ldr	r2, [r7, #20]
  400c64:	601a      	str	r2, [r3, #0]
	}
}
  400c66:	371c      	adds	r7, #28
  400c68:	46bd      	mov	sp, r7
  400c6a:	f85d 7b04 	ldr.w	r7, [sp], #4
  400c6e:	4770      	bx	lr
  400c70:	20000000 	.word	0x20000000
  400c74:	20000004 	.word	0x20000004

00400c78 <ili93xx_device_type_identify>:
 *        ILI9341 device ID locates in Read ID4 (RD3h) register.
 *
 * \return 0 if secceed in identifying device; otherwise fails.
 */
uint8_t ili93xx_device_type_identify(void)
{
  400c78:	b580      	push	{r7, lr}
  400c7a:	b082      	sub	sp, #8
  400c7c:	af00      	add	r7, sp, #0
	uint8_t paratable[6];
	uint16_t chipid;

	/** Read ID4 (RD4h) register to get device code for ILI9341*/
	ili93xx_read_register(ILI9341_CMD_READ_ID4, paratable, 4);
  400c7e:	463b      	mov	r3, r7
  400c80:	20d3      	movs	r0, #211	; 0xd3
  400c82:	4619      	mov	r1, r3
  400c84:	2204      	movs	r2, #4
  400c86:	4b18      	ldr	r3, [pc, #96]	; (400ce8 <ili93xx_device_type_identify+0x70>)
  400c88:	4798      	blx	r3
	chipid = ((uint16_t)paratable[2] << 8) + paratable[3];
  400c8a:	78bb      	ldrb	r3, [r7, #2]
  400c8c:	b29b      	uxth	r3, r3
  400c8e:	021b      	lsls	r3, r3, #8
  400c90:	b29a      	uxth	r2, r3
  400c92:	78fb      	ldrb	r3, [r7, #3]
  400c94:	b29b      	uxth	r3, r3
  400c96:	4413      	add	r3, r2
  400c98:	80fb      	strh	r3, [r7, #6]

	if (chipid == ILI9341_DEVICE_CODE) {
  400c9a:	88fb      	ldrh	r3, [r7, #6]
  400c9c:	f249 3241 	movw	r2, #37697	; 0x9341
  400ca0:	4293      	cmp	r3, r2
  400ca2:	d104      	bne.n	400cae <ili93xx_device_type_identify+0x36>
		g_uc_device_type = DEVICE_TYPE_ILI9341;
  400ca4:	4b11      	ldr	r3, [pc, #68]	; (400cec <ili93xx_device_type_identify+0x74>)
  400ca6:	2202      	movs	r2, #2
  400ca8:	701a      	strb	r2, [r3, #0]
		return 0;
  400caa:	2300      	movs	r3, #0
  400cac:	e018      	b.n	400ce0 <ili93xx_device_type_identify+0x68>
	}

	/** Driver Code Read (R00h) for ILI9325*/
	ili93xx_read_register(ILI9325_DEVICE_CODE_REG, paratable, 2);
  400cae:	463b      	mov	r3, r7
  400cb0:	2000      	movs	r0, #0
  400cb2:	4619      	mov	r1, r3
  400cb4:	2202      	movs	r2, #2
  400cb6:	4b0c      	ldr	r3, [pc, #48]	; (400ce8 <ili93xx_device_type_identify+0x70>)
  400cb8:	4798      	blx	r3
	chipid = ((uint16_t)paratable[0] << 8) + paratable[1];
  400cba:	783b      	ldrb	r3, [r7, #0]
  400cbc:	b29b      	uxth	r3, r3
  400cbe:	021b      	lsls	r3, r3, #8
  400cc0:	b29a      	uxth	r2, r3
  400cc2:	787b      	ldrb	r3, [r7, #1]
  400cc4:	b29b      	uxth	r3, r3
  400cc6:	4413      	add	r3, r2
  400cc8:	80fb      	strh	r3, [r7, #6]
	if (chipid == ILI9325_DEVICE_CODE) {
  400cca:	88fb      	ldrh	r3, [r7, #6]
  400ccc:	f249 3225 	movw	r2, #37669	; 0x9325
  400cd0:	4293      	cmp	r3, r2
  400cd2:	d104      	bne.n	400cde <ili93xx_device_type_identify+0x66>
		g_uc_device_type = DEVICE_TYPE_ILI9325;
  400cd4:	4b05      	ldr	r3, [pc, #20]	; (400cec <ili93xx_device_type_identify+0x74>)
  400cd6:	2201      	movs	r2, #1
  400cd8:	701a      	strb	r2, [r3, #0]
		return 0;
  400cda:	2300      	movs	r3, #0
  400cdc:	e000      	b.n	400ce0 <ili93xx_device_type_identify+0x68>
	}

	return 1;
  400cde:	2301      	movs	r3, #1
}
  400ce0:	4618      	mov	r0, r3
  400ce2:	3708      	adds	r7, #8
  400ce4:	46bd      	mov	sp, r7
  400ce6:	bd80      	pop	{r7, pc}
  400ce8:	00400b31 	.word	0x00400b31
  400cec:	200008a0 	.word	0x200008a0

00400cf0 <ili93xx_init>:
 * \param p_opt pointer to ILI93xx option structure.
 *
 * \return 0 if initialization succeeds, otherwise fails.
 */
uint32_t ili93xx_init(struct ili93xx_opt_t *p_opt)
{
  400cf0:	b590      	push	{r4, r7, lr}
  400cf2:	b085      	sub	sp, #20
  400cf4:	af00      	add	r7, sp, #0
  400cf6:	6078      	str	r0, [r7, #4]
	uint8_t paratable[6];

	/** Identify the LCD driver device*/
	if (ili93xx_device_type_identify() != 0) {
  400cf8:	4b7a      	ldr	r3, [pc, #488]	; (400ee4 <ili93xx_init+0x1f4>)
  400cfa:	4798      	blx	r3
  400cfc:	4603      	mov	r3, r0
  400cfe:	2b00      	cmp	r3, #0
  400d00:	d001      	beq.n	400d06 <ili93xx_init+0x16>
		return 1;
  400d02:	2301      	movs	r3, #1
  400d04:	e1ad      	b.n	401062 <ili93xx_init+0x372>
	}

	g_ul_lcd_x_length = ILI93XX_LCD_WIDTH;
  400d06:	4b78      	ldr	r3, [pc, #480]	; (400ee8 <ili93xx_init+0x1f8>)
  400d08:	22f0      	movs	r2, #240	; 0xf0
  400d0a:	601a      	str	r2, [r3, #0]
	g_ul_lcd_y_length = ILI93XX_LCD_HEIGHT;
  400d0c:	4b77      	ldr	r3, [pc, #476]	; (400eec <ili93xx_init+0x1fc>)
  400d0e:	f44f 72a0 	mov.w	r2, #320	; 0x140
  400d12:	601a      	str	r2, [r3, #0]

	if (g_uc_device_type == DEVICE_TYPE_ILI9325) {
  400d14:	4b76      	ldr	r3, [pc, #472]	; (400ef0 <ili93xx_init+0x200>)
  400d16:	781b      	ldrb	r3, [r3, #0]
  400d18:	2b01      	cmp	r3, #1
  400d1a:	f040 80f5 	bne.w	400f08 <ili93xx_init+0x218>
		/** Turn off LCD */
		ili93xx_write_register_word(ILI9325_DISP_CTRL1, ILI9325_DISP_CTRL1_GON |
  400d1e:	2007      	movs	r0, #7
  400d20:	2133      	movs	r1, #51	; 0x33
  400d22:	4b74      	ldr	r3, [pc, #464]	; (400ef4 <ili93xx_init+0x204>)
  400d24:	4798      	blx	r3
				ILI9325_DISP_CTRL1_DTE | ILI9325_DISP_CTRL1_D(0x03));

		/** Start initial sequence */
		/** Disable sleep and standby mode*/
		ili93xx_write_register_word(ILI9325_POWER_CTRL1, 0x0000);
  400d26:	2010      	movs	r0, #16
  400d28:	2100      	movs	r1, #0
  400d2a:	4b72      	ldr	r3, [pc, #456]	; (400ef4 <ili93xx_init+0x204>)
  400d2c:	4798      	blx	r3
		/** Start internal OSC */
		ili93xx_write_register_word(ILI9325_START_OSC_CTRL,
  400d2e:	2000      	movs	r0, #0
  400d30:	2101      	movs	r1, #1
  400d32:	4b70      	ldr	r3, [pc, #448]	; (400ef4 <ili93xx_init+0x204>)
  400d34:	4798      	blx	r3
				ILI9325_START_OSC_CTRL_EN);
		/** Set SS bit and direction output from S720 to S1 */
		ili93xx_write_register_word(ILI9325_DRIVER_OUTPUT_CTRL1,
  400d36:	2001      	movs	r0, #1
  400d38:	f44f 7180 	mov.w	r1, #256	; 0x100
  400d3c:	4b6d      	ldr	r3, [pc, #436]	; (400ef4 <ili93xx_init+0x204>)
  400d3e:	4798      	blx	r3
				ILI9325_DRIVER_OUTPUT_CTRL1_SS);
		/** Set 1 line inversion */
		ili93xx_write_register_word(ILI9325_LCD_DRIVING_CTRL,
  400d40:	2002      	movs	r0, #2
  400d42:	f44f 61e0 	mov.w	r1, #1792	; 0x700
  400d46:	4b6b      	ldr	r3, [pc, #428]	; (400ef4 <ili93xx_init+0x204>)
  400d48:	4798      	blx	r3
				ILI9325_LCD_DRIVING_CTRL_BIT10 | ILI9325_LCD_DRIVING_CTRL_EOR
				| ILI9325_LCD_DRIVING_CTRL_BC0);
		/** Disable resizing feature */
		ili93xx_write_register_word(ILI9325_RESIZE_CTRL, 0x0000);
  400d4a:	2004      	movs	r0, #4
  400d4c:	2100      	movs	r1, #0
  400d4e:	4b69      	ldr	r3, [pc, #420]	; (400ef4 <ili93xx_init+0x204>)
  400d50:	4798      	blx	r3
		/** Set the back porch and front porch */
		ili93xx_write_register_word(ILI9325_DISP_CTRL2,
  400d52:	2008      	movs	r0, #8
  400d54:	f240 2107 	movw	r1, #519	; 0x207
  400d58:	4b66      	ldr	r3, [pc, #408]	; (400ef4 <ili93xx_init+0x204>)
  400d5a:	4798      	blx	r3
				ILI9325_DISP_CTRL2_BP(
				0x07) | ILI9325_DISP_CTRL2_FP(0x02));
		/** Set non-display area refresh cycle ISC[3:0] */
		ili93xx_write_register_word(ILI9325_DISP_CTRL3, 0x0000);
  400d5c:	2009      	movs	r0, #9
  400d5e:	2100      	movs	r1, #0
  400d60:	4b64      	ldr	r3, [pc, #400]	; (400ef4 <ili93xx_init+0x204>)
  400d62:	4798      	blx	r3
		/** Disable FMARK function */
		ili93xx_write_register_word(ILI9325_DISP_CTRL4, 0x0000);
  400d64:	200a      	movs	r0, #10
  400d66:	2100      	movs	r1, #0
  400d68:	4b62      	ldr	r3, [pc, #392]	; (400ef4 <ili93xx_init+0x204>)
  400d6a:	4798      	blx	r3
		/** 18-bit RGB interface and writing display data by system
		 *interface */
		ili93xx_write_register_word(ILI9325_RGB_DISP_INTERFACE_CTRL1,
  400d6c:	200c      	movs	r0, #12
  400d6e:	2100      	movs	r1, #0
  400d70:	4b60      	ldr	r3, [pc, #384]	; (400ef4 <ili93xx_init+0x204>)
  400d72:	4798      	blx	r3
				0x0000);
		/** Set the output position of frame cycle */
		ili93xx_write_register_word(ILI9325_FRAME_MAKER_POS, 0x0000);
  400d74:	200d      	movs	r0, #13
  400d76:	2100      	movs	r1, #0
  400d78:	4b5e      	ldr	r3, [pc, #376]	; (400ef4 <ili93xx_init+0x204>)
  400d7a:	4798      	blx	r3
		/** RGB interface polarity */
		ili93xx_write_register_word(ILI9325_RGB_DISP_INTERFACE_CTRL2,
  400d7c:	200f      	movs	r0, #15
  400d7e:	2100      	movs	r1, #0
  400d80:	4b5c      	ldr	r3, [pc, #368]	; (400ef4 <ili93xx_init+0x204>)
  400d82:	4798      	blx	r3
				0x0000);

		/** Power on sequence */
		/** Disable sleep and standby mode */
		ili93xx_write_register_word(ILI9325_POWER_CTRL1, 0x0000);
  400d84:	2010      	movs	r0, #16
  400d86:	2100      	movs	r1, #0
  400d88:	4b5a      	ldr	r3, [pc, #360]	; (400ef4 <ili93xx_init+0x204>)
  400d8a:	4798      	blx	r3

		/**
		 * Selects the operating frequency of the step-up circuit 1,2
		 * and Sets the ratio factor of Vci.
		 */
		ili93xx_write_register_word(ILI9325_POWER_CTRL2, 0x0000);
  400d8c:	2011      	movs	r0, #17
  400d8e:	2100      	movs	r1, #0
  400d90:	4b58      	ldr	r3, [pc, #352]	; (400ef4 <ili93xx_init+0x204>)
  400d92:	4798      	blx	r3
		/** Set VREG1OUT voltage */
		ili93xx_write_register_word(ILI9325_POWER_CTRL3, 0x0000);
  400d94:	2012      	movs	r0, #18
  400d96:	2100      	movs	r1, #0
  400d98:	4b56      	ldr	r3, [pc, #344]	; (400ef4 <ili93xx_init+0x204>)
  400d9a:	4798      	blx	r3
		/** Set VCOM amplitude */
		ili93xx_write_register_word(ILI9325_POWER_CTRL4, 0x0000);
  400d9c:	2013      	movs	r0, #19
  400d9e:	2100      	movs	r1, #0
  400da0:	4b54      	ldr	r3, [pc, #336]	; (400ef4 <ili93xx_init+0x204>)
  400da2:	4798      	blx	r3
		ili93xx_delay(200);
  400da4:	20c8      	movs	r0, #200	; 0xc8
  400da6:	4b54      	ldr	r3, [pc, #336]	; (400ef8 <ili93xx_init+0x208>)
  400da8:	4798      	blx	r3

		/**
		 * Adjusts the constant current and Sets the factor used
		 * in the step-up circuits.
		 */
		ili93xx_write_register_word(ILI9325_POWER_CTRL1,
  400daa:	2010      	movs	r0, #16
  400dac:	f241 2190 	movw	r1, #4752	; 0x1290
  400db0:	4b50      	ldr	r3, [pc, #320]	; (400ef4 <ili93xx_init+0x204>)
  400db2:	4798      	blx	r3

		/**
		 * Select the operating frequency of the step-up circuit 1,2 and
		 * Sets the ratio factor of Vci
		 */
		ili93xx_write_register_word(ILI9325_POWER_CTRL2,
  400db4:	2011      	movs	r0, #17
  400db6:	f240 2127 	movw	r1, #551	; 0x227
  400dba:	4b4e      	ldr	r3, [pc, #312]	; (400ef4 <ili93xx_init+0x204>)
  400dbc:	4798      	blx	r3
				ILI9325_POWER_CTRL2_DC1(0x02) |
				ILI9325_POWER_CTRL2_DC0(0x02) | ILI9325_POWER_CTRL2_VC(0x07));
		ili93xx_delay(50);
  400dbe:	2032      	movs	r0, #50	; 0x32
  400dc0:	4b4d      	ldr	r3, [pc, #308]	; (400ef8 <ili93xx_init+0x208>)
  400dc2:	4798      	blx	r3
		/** Internal reference voltage= Vci */
		ili93xx_write_register_word(ILI9325_POWER_CTRL3,
  400dc4:	2012      	movs	r0, #18
  400dc6:	211b      	movs	r1, #27
  400dc8:	4b4a      	ldr	r3, [pc, #296]	; (400ef4 <ili93xx_init+0x204>)
  400dca:	4798      	blx	r3
				ILI9325_POWER_CTRL3_PON | ILI9325_POWER_CTRL3_VRH(0x0B));
		ili93xx_delay(50);
  400dcc:	2032      	movs	r0, #50	; 0x32
  400dce:	4b4a      	ldr	r3, [pc, #296]	; (400ef8 <ili93xx_init+0x208>)
  400dd0:	4798      	blx	r3
		/** Set VDV[4:0] for VCOM amplitude */
		ili93xx_write_register_word(ILI9325_POWER_CTRL4,
  400dd2:	2013      	movs	r0, #19
  400dd4:	f44f 5188 	mov.w	r1, #4352	; 0x1100
  400dd8:	4b46      	ldr	r3, [pc, #280]	; (400ef4 <ili93xx_init+0x204>)
  400dda:	4798      	blx	r3
				ILI9325_POWER_CTRL4_VDV(0x11));
		/** Set VCM[5:0] for VCOMH */
		ili93xx_write_register_word(ILI9325_POWER_CTRL7,
  400ddc:	2029      	movs	r0, #41	; 0x29
  400dde:	2119      	movs	r1, #25
  400de0:	4b44      	ldr	r3, [pc, #272]	; (400ef4 <ili93xx_init+0x204>)
  400de2:	4798      	blx	r3
				ILI9325_POWER_CTRL7_VCM(0x19));
		/** Set Frame Rate */
		ili93xx_write_register_word(ILI9325_FRAME_RATE_AND_COLOR_CTRL,
  400de4:	202b      	movs	r0, #43	; 0x2b
  400de6:	210d      	movs	r1, #13
  400de8:	4b42      	ldr	r3, [pc, #264]	; (400ef4 <ili93xx_init+0x204>)
  400dea:	4798      	blx	r3
				ILI9325_FRAME_RATE_AND_COLOR_CTRL_FRS(0x0D));
		ili93xx_delay(50);
  400dec:	2032      	movs	r0, #50	; 0x32
  400dee:	4b42      	ldr	r3, [pc, #264]	; (400ef8 <ili93xx_init+0x208>)
  400df0:	4798      	blx	r3

		/** Adjust the Gamma Curve */
		ili93xx_write_register_word(ILI9325_GAMMA_CTL1, 0x0000);
  400df2:	2030      	movs	r0, #48	; 0x30
  400df4:	2100      	movs	r1, #0
  400df6:	4b3f      	ldr	r3, [pc, #252]	; (400ef4 <ili93xx_init+0x204>)
  400df8:	4798      	blx	r3
		ili93xx_write_register_word(ILI9325_GAMMA_CTL2,
  400dfa:	2031      	movs	r0, #49	; 0x31
  400dfc:	f44f 7101 	mov.w	r1, #516	; 0x204
  400e00:	4b3c      	ldr	r3, [pc, #240]	; (400ef4 <ili93xx_init+0x204>)
  400e02:	4798      	blx	r3
				ILI9325_GAMMA_CTL2_KP3(0x02) |
				ILI9325_GAMMA_CTL2_KP2(0x04));
		ili93xx_write_register_word(ILI9325_GAMMA_CTL3,
  400e04:	2032      	movs	r0, #50	; 0x32
  400e06:	f44f 7100 	mov.w	r1, #512	; 0x200
  400e0a:	4b3a      	ldr	r3, [pc, #232]	; (400ef4 <ili93xx_init+0x204>)
  400e0c:	4798      	blx	r3
				ILI9325_GAMMA_CTL3_KP5(0x02) |
				ILI9325_GAMMA_CTL3_KP4(0x00));
		ili93xx_write_register_word(ILI9325_GAMMA_CTL4,
  400e0e:	2035      	movs	r0, #53	; 0x35
  400e10:	2107      	movs	r1, #7
  400e12:	4b38      	ldr	r3, [pc, #224]	; (400ef4 <ili93xx_init+0x204>)
  400e14:	4798      	blx	r3
				ILI9325_GAMMA_CTL4_RP1(0x00) |
				ILI9325_GAMMA_CTL4_RP0(0x07));
		ili93xx_write_register_word(ILI9325_GAMMA_CTL5,
  400e16:	2036      	movs	r0, #54	; 0x36
  400e18:	f241 4104 	movw	r1, #5124	; 0x1404
  400e1c:	4b35      	ldr	r3, [pc, #212]	; (400ef4 <ili93xx_init+0x204>)
  400e1e:	4798      	blx	r3
				ILI9325_GAMMA_CTL5_VRP1(0x14) |
				ILI9325_GAMMA_CTL5_VRP0(0x04));
		ili93xx_write_register_word(ILI9325_GAMMA_CTL6,
  400e20:	2037      	movs	r0, #55	; 0x37
  400e22:	f240 7105 	movw	r1, #1797	; 0x705
  400e26:	4b33      	ldr	r3, [pc, #204]	; (400ef4 <ili93xx_init+0x204>)
  400e28:	4798      	blx	r3
				ILI9325_GAMMA_CTL6_KN1(0x07) |
				ILI9325_GAMMA_CTL6_KN0(0x05));
		ili93xx_write_register_word(ILI9325_GAMMA_CTL7,
  400e2a:	2038      	movs	r0, #56	; 0x38
  400e2c:	f240 3105 	movw	r1, #773	; 0x305
  400e30:	4b30      	ldr	r3, [pc, #192]	; (400ef4 <ili93xx_init+0x204>)
  400e32:	4798      	blx	r3
				ILI9325_GAMMA_CTL7_KN3(0x03) |
				ILI9325_GAMMA_CTL7_KN2(0x05));
		ili93xx_write_register_word(ILI9325_GAMMA_CTL8,
  400e34:	2039      	movs	r0, #57	; 0x39
  400e36:	f240 7107 	movw	r1, #1799	; 0x707
  400e3a:	4b2e      	ldr	r3, [pc, #184]	; (400ef4 <ili93xx_init+0x204>)
  400e3c:	4798      	blx	r3
				ILI9325_GAMMA_CTL8_KN5(0x07) |
				ILI9325_GAMMA_CTL8_KN4(0x07));
		ili93xx_write_register_word(ILI9325_GAMMA_CTL9,
  400e3e:	203c      	movs	r0, #60	; 0x3c
  400e40:	f240 7101 	movw	r1, #1793	; 0x701
  400e44:	4b2b      	ldr	r3, [pc, #172]	; (400ef4 <ili93xx_init+0x204>)
  400e46:	4798      	blx	r3
				ILI9325_GAMMA_CTL9_RN1(0x07) |
				ILI9325_GAMMA_CTL9_RN0(0x01));
		ili93xx_write_register_word(ILI9325_GAMMA_CTL10,
  400e48:	203d      	movs	r0, #61	; 0x3d
  400e4a:	210e      	movs	r1, #14
  400e4c:	4b29      	ldr	r3, [pc, #164]	; (400ef4 <ili93xx_init+0x204>)
  400e4e:	4798      	blx	r3
		 * DFM Set the mode of transferring data to the internal RAM
		 * when TRI = 1.
		 * I/D[1:0] = 11 Horizontal : increment Vertical : increment,
		 * AM=0:Horizontal
		 */
		ili93xx_write_register_word(ILI9325_ENTRY_MODE,
  400e50:	2003      	movs	r0, #3
  400e52:	f24d 0110 	movw	r1, #53264	; 0xd010
  400e56:	4b27      	ldr	r3, [pc, #156]	; (400ef4 <ili93xx_init+0x204>)
  400e58:	4798      	blx	r3
				ILI9325_ENTRY_MODE_ID(0x01) | ILI9325_ENTRY_MODE_BGR);
		/**
		 * Sets the number of lines to drive the LCD at an interval of 8
		 * lines. The scan direction is from G320 to G1
		 */
		ili93xx_write_register_word(ILI9325_DRIVER_OUTPUT_CTRL2,
  400e5a:	2060      	movs	r0, #96	; 0x60
  400e5c:	f44f 4127 	mov.w	r1, #42752	; 0xa700
  400e60:	4b24      	ldr	r3, [pc, #144]	; (400ef4 <ili93xx_init+0x204>)
  400e62:	4798      	blx	r3
				ILI9325_DRIVER_OUTPUT_CTRL2_GS |
				ILI9325_DRIVER_OUTPUT_CTRL2_NL(0x27));

		/** Vertical Scrolling */
		/** Disable scrolling and enable the grayscale inversion */
		ili93xx_write_register_word(ILI9325_BASE_IMG_DISP_CTRL,
  400e64:	2061      	movs	r0, #97	; 0x61
  400e66:	2101      	movs	r1, #1
  400e68:	4b22      	ldr	r3, [pc, #136]	; (400ef4 <ili93xx_init+0x204>)
  400e6a:	4798      	blx	r3
				ILI9325_BASE_IMG_DISP_CTRL_REV);
		ili93xx_write_register_word(ILI9325_VERTICAL_SCROLL_CTRL,
  400e6c:	206a      	movs	r0, #106	; 0x6a
  400e6e:	2100      	movs	r1, #0
  400e70:	4b20      	ldr	r3, [pc, #128]	; (400ef4 <ili93xx_init+0x204>)
  400e72:	4798      	blx	r3
				0x0000);

		/** Disable Partial Display */
		ili93xx_write_register_word(ILI9325_PARTIAL_IMG1_DISP_POS,
  400e74:	2080      	movs	r0, #128	; 0x80
  400e76:	2100      	movs	r1, #0
  400e78:	4b1e      	ldr	r3, [pc, #120]	; (400ef4 <ili93xx_init+0x204>)
  400e7a:	4798      	blx	r3
				0x0000);
		ili93xx_write_register_word(
  400e7c:	2081      	movs	r0, #129	; 0x81
  400e7e:	2100      	movs	r1, #0
  400e80:	4b1c      	ldr	r3, [pc, #112]	; (400ef4 <ili93xx_init+0x204>)
  400e82:	4798      	blx	r3
				ILI9325_PARTIAL_IMG1_AREA_START_LINE,
				0x0000);
		ili93xx_write_register_word(ILI9325_PARTIAL_IMG1_AREA_END_LINE,
  400e84:	2082      	movs	r0, #130	; 0x82
  400e86:	2100      	movs	r1, #0
  400e88:	4b1a      	ldr	r3, [pc, #104]	; (400ef4 <ili93xx_init+0x204>)
  400e8a:	4798      	blx	r3
				0x0000);
		ili93xx_write_register_word(ILI9325_PARTIAL_IMG2_DISP_POS,
  400e8c:	2083      	movs	r0, #131	; 0x83
  400e8e:	2100      	movs	r1, #0
  400e90:	4b18      	ldr	r3, [pc, #96]	; (400ef4 <ili93xx_init+0x204>)
  400e92:	4798      	blx	r3
				0x0000);
		ili93xx_write_register_word(
  400e94:	2084      	movs	r0, #132	; 0x84
  400e96:	2100      	movs	r1, #0
  400e98:	4b16      	ldr	r3, [pc, #88]	; (400ef4 <ili93xx_init+0x204>)
  400e9a:	4798      	blx	r3
				ILI9325_PARTIAL_IMG2_AREA_START_LINE,
				0x0000);
		ili93xx_write_register_word(ILI9325_PARTIAL_IMG2_AREA_END_LINE,
  400e9c:	2085      	movs	r0, #133	; 0x85
  400e9e:	2100      	movs	r1, #0
  400ea0:	4b14      	ldr	r3, [pc, #80]	; (400ef4 <ili93xx_init+0x204>)
  400ea2:	4798      	blx	r3
				0x0000);

		/** Panel Control */
		ili93xx_write_register_word(ILI9325_PANEL_INTERFACE_CTRL1,
  400ea4:	2090      	movs	r0, #144	; 0x90
  400ea6:	2110      	movs	r1, #16
  400ea8:	4b12      	ldr	r3, [pc, #72]	; (400ef4 <ili93xx_init+0x204>)
  400eaa:	4798      	blx	r3
				ILI9325_PANEL_INTERFACE_CTRL1_RTNI(0x10));
		ili93xx_write_register_word(ILI9325_PANEL_INTERFACE_CTRL2,
  400eac:	2092      	movs	r0, #146	; 0x92
  400eae:	f44f 61c0 	mov.w	r1, #1536	; 0x600
  400eb2:	4b10      	ldr	r3, [pc, #64]	; (400ef4 <ili93xx_init+0x204>)
  400eb4:	4798      	blx	r3
				ILI9325_PANEL_INTERFACE_CTRL2_NOWI(0x06));
		ili93xx_write_register_word(ILI9325_PANEL_INTERFACE_CTRL4,
  400eb6:	2095      	movs	r0, #149	; 0x95
  400eb8:	f44f 7188 	mov.w	r1, #272	; 0x110
  400ebc:	4b0d      	ldr	r3, [pc, #52]	; (400ef4 <ili93xx_init+0x204>)
  400ebe:	4798      	blx	r3
				ILI9325_PANEL_INTERFACE_CTRL4_DIVE(0x01) |
				ILI9325_PANEL_INTERFACE_CTRL4_RTNE(0x10));

		ili93xx_set_window(0, 0, p_opt->ul_width, p_opt->ul_height);
  400ec0:	687b      	ldr	r3, [r7, #4]
  400ec2:	681a      	ldr	r2, [r3, #0]
  400ec4:	687b      	ldr	r3, [r7, #4]
  400ec6:	685b      	ldr	r3, [r3, #4]
  400ec8:	2000      	movs	r0, #0
  400eca:	2100      	movs	r1, #0
  400ecc:	4c0b      	ldr	r4, [pc, #44]	; (400efc <ili93xx_init+0x20c>)
  400ece:	47a0      	blx	r4
		ili93xx_set_foreground_color(p_opt->foreground_color);
  400ed0:	687b      	ldr	r3, [r7, #4]
  400ed2:	689b      	ldr	r3, [r3, #8]
  400ed4:	4618      	mov	r0, r3
  400ed6:	4b0a      	ldr	r3, [pc, #40]	; (400f00 <ili93xx_init+0x210>)
  400ed8:	4798      	blx	r3
		ili93xx_set_cursor_position(0, 0);
  400eda:	2000      	movs	r0, #0
  400edc:	2100      	movs	r1, #0
  400ede:	4b09      	ldr	r3, [pc, #36]	; (400f04 <ili93xx_init+0x214>)
  400ee0:	4798      	blx	r3
  400ee2:	e0bd      	b.n	401060 <ili93xx_init+0x370>
  400ee4:	00400c79 	.word	0x00400c79
  400ee8:	20000000 	.word	0x20000000
  400eec:	20000004 	.word	0x20000004
  400ef0:	200008a0 	.word	0x200008a0
  400ef4:	00400a9d 	.word	0x00400a9d
  400ef8:	00400b81 	.word	0x00400b81
  400efc:	004010ed 	.word	0x004010ed
  400f00:	004010b9 	.word	0x004010b9
  400f04:	004011e1 	.word	0x004011e1
	} else if (g_uc_device_type == DEVICE_TYPE_ILI9341) {
  400f08:	4b58      	ldr	r3, [pc, #352]	; (40106c <ili93xx_init+0x37c>)
  400f0a:	781b      	ldrb	r3, [r3, #0]
  400f0c:	2b02      	cmp	r3, #2
  400f0e:	f040 80a5 	bne.w	40105c <ili93xx_init+0x36c>
		/** init for ILI9341 **/
		/** power control A configuration*/
		paratable[0] = 0x39;
  400f12:	2339      	movs	r3, #57	; 0x39
  400f14:	723b      	strb	r3, [r7, #8]
		paratable[1] = 0x2C;
  400f16:	232c      	movs	r3, #44	; 0x2c
  400f18:	727b      	strb	r3, [r7, #9]
		paratable[2] = 0x00;
  400f1a:	2300      	movs	r3, #0
  400f1c:	72bb      	strb	r3, [r7, #10]
		paratable[3] = 0x34;
  400f1e:	2334      	movs	r3, #52	; 0x34
  400f20:	72fb      	strb	r3, [r7, #11]
		paratable[4] = 0x02;
  400f22:	2302      	movs	r3, #2
  400f24:	733b      	strb	r3, [r7, #12]
		ili93xx_write_register(ILI9341_CMD_POWER_CONTROL_A, paratable, 5);
  400f26:	f107 0308 	add.w	r3, r7, #8
  400f2a:	20cb      	movs	r0, #203	; 0xcb
  400f2c:	4619      	mov	r1, r3
  400f2e:	2205      	movs	r2, #5
  400f30:	4b4f      	ldr	r3, [pc, #316]	; (401070 <ili93xx_init+0x380>)
  400f32:	4798      	blx	r3

		/** power control B configuration */
		paratable[0] = 0;
  400f34:	2300      	movs	r3, #0
  400f36:	723b      	strb	r3, [r7, #8]
		paratable[1] = 0xAA;
  400f38:	23aa      	movs	r3, #170	; 0xaa
  400f3a:	727b      	strb	r3, [r7, #9]
		paratable[2] = 0xB0;
  400f3c:	23b0      	movs	r3, #176	; 0xb0
  400f3e:	72bb      	strb	r3, [r7, #10]
		ili93xx_write_register(ILI9341_CMD_POWER_CONTROL_B, paratable, 3);
  400f40:	f107 0308 	add.w	r3, r7, #8
  400f44:	20cf      	movs	r0, #207	; 0xcf
  400f46:	4619      	mov	r1, r3
  400f48:	2203      	movs	r2, #3
  400f4a:	4b49      	ldr	r3, [pc, #292]	; (401070 <ili93xx_init+0x380>)
  400f4c:	4798      	blx	r3

		/** Pump Ratio Control configuration */
		paratable[0] = 0x30;
  400f4e:	2330      	movs	r3, #48	; 0x30
  400f50:	723b      	strb	r3, [r7, #8]
		ili93xx_write_register(ILI9341_CMD_PUMP_RATIO_CONTROL,
  400f52:	f107 0308 	add.w	r3, r7, #8
  400f56:	20f7      	movs	r0, #247	; 0xf7
  400f58:	4619      	mov	r1, r3
  400f5a:	2201      	movs	r2, #1
  400f5c:	4b44      	ldr	r3, [pc, #272]	; (401070 <ili93xx_init+0x380>)
  400f5e:	4798      	blx	r3
				paratable, 1);

		/** Power Control 1 configuration*/
		paratable[0] = 0x25;
  400f60:	2325      	movs	r3, #37	; 0x25
  400f62:	723b      	strb	r3, [r7, #8]
		ili93xx_write_register(ILI9341_CMD_POWER_CONTROL_1, paratable, 1);
  400f64:	f107 0308 	add.w	r3, r7, #8
  400f68:	20c0      	movs	r0, #192	; 0xc0
  400f6a:	4619      	mov	r1, r3
  400f6c:	2201      	movs	r2, #1
  400f6e:	4b40      	ldr	r3, [pc, #256]	; (401070 <ili93xx_init+0x380>)
  400f70:	4798      	blx	r3

		/** Power Control 2 configuration*/
		paratable[0] = 0x11;
  400f72:	2311      	movs	r3, #17
  400f74:	723b      	strb	r3, [r7, #8]
		ili93xx_write_register(ILI9341_CMD_POWER_CONTROL_2, paratable, 1);
  400f76:	f107 0308 	add.w	r3, r7, #8
  400f7a:	20c1      	movs	r0, #193	; 0xc1
  400f7c:	4619      	mov	r1, r3
  400f7e:	2201      	movs	r2, #1
  400f80:	4b3b      	ldr	r3, [pc, #236]	; (401070 <ili93xx_init+0x380>)
  400f82:	4798      	blx	r3

		/** VOM Control 1 configuration*/
		paratable[0] = 0x5C;
  400f84:	235c      	movs	r3, #92	; 0x5c
  400f86:	723b      	strb	r3, [r7, #8]
		paratable[1] = 0x4C;
  400f88:	234c      	movs	r3, #76	; 0x4c
  400f8a:	727b      	strb	r3, [r7, #9]
		ili93xx_write_register(ILI9341_CMD_VCOM_CONTROL_1, paratable, 2);
  400f8c:	f107 0308 	add.w	r3, r7, #8
  400f90:	20c5      	movs	r0, #197	; 0xc5
  400f92:	4619      	mov	r1, r3
  400f94:	2202      	movs	r2, #2
  400f96:	4b36      	ldr	r3, [pc, #216]	; (401070 <ili93xx_init+0x380>)
  400f98:	4798      	blx	r3

		/** VOM control 2 configuration*/
		paratable[0] = 0x94;
  400f9a:	2394      	movs	r3, #148	; 0x94
  400f9c:	723b      	strb	r3, [r7, #8]
		ili93xx_write_register(ILI9341_CMD_VCOM_CONTROL_2, paratable, 1);
  400f9e:	f107 0308 	add.w	r3, r7, #8
  400fa2:	20c7      	movs	r0, #199	; 0xc7
  400fa4:	4619      	mov	r1, r3
  400fa6:	2201      	movs	r2, #1
  400fa8:	4b31      	ldr	r3, [pc, #196]	; (401070 <ili93xx_init+0x380>)
  400faa:	4798      	blx	r3

		/** Driver Timing Control A configuration*/
		paratable[0] = 0x85;
  400fac:	2385      	movs	r3, #133	; 0x85
  400fae:	723b      	strb	r3, [r7, #8]
		paratable[1] = 0x01;
  400fb0:	2301      	movs	r3, #1
  400fb2:	727b      	strb	r3, [r7, #9]
		paratable[2] = 0x78;
  400fb4:	2378      	movs	r3, #120	; 0x78
  400fb6:	72bb      	strb	r3, [r7, #10]
		ili93xx_write_register(ILI9341_CMD_DRIVER_TIMING_CTL_A, paratable, 3);
  400fb8:	f107 0308 	add.w	r3, r7, #8
  400fbc:	20e8      	movs	r0, #232	; 0xe8
  400fbe:	4619      	mov	r1, r3
  400fc0:	2203      	movs	r2, #3
  400fc2:	4b2b      	ldr	r3, [pc, #172]	; (401070 <ili93xx_init+0x380>)
  400fc4:	4798      	blx	r3

		/** Driver Timing Control B configuration*/
		paratable[0] = 0x00;
  400fc6:	2300      	movs	r3, #0
  400fc8:	723b      	strb	r3, [r7, #8]
		paratable[1] = 0x00;
  400fca:	2300      	movs	r3, #0
  400fcc:	727b      	strb	r3, [r7, #9]
		ili93xx_write_register(ILI9341_CMD_DRIVER_TIMING_CTL_B, paratable, 2);
  400fce:	f107 0308 	add.w	r3, r7, #8
  400fd2:	20ea      	movs	r0, #234	; 0xea
  400fd4:	4619      	mov	r1, r3
  400fd6:	2202      	movs	r2, #2
  400fd8:	4b25      	ldr	r3, [pc, #148]	; (401070 <ili93xx_init+0x380>)
  400fda:	4798      	blx	r3

		/** Memory Access Control configuration*/
		paratable[0] = ILI9341_CMD_MEMORY_ACCESS_CONTROL_MX |
  400fdc:	2348      	movs	r3, #72	; 0x48
  400fde:	723b      	strb	r3, [r7, #8]
				ILI9341_CMD_MEMORY_ACCESS_CONTROL_BGR;
		ili93xx_write_register(ILI9341_CMD_MEMORY_ACCESS_CONTROL,
  400fe0:	f107 0308 	add.w	r3, r7, #8
  400fe4:	2036      	movs	r0, #54	; 0x36
  400fe6:	4619      	mov	r1, r3
  400fe8:	2201      	movs	r2, #1
  400fea:	4b21      	ldr	r3, [pc, #132]	; (401070 <ili93xx_init+0x380>)
  400fec:	4798      	blx	r3
				paratable, 1);

		/** Colmod Pixel Format Set configuation*/
		paratable[0] = 0x06;
  400fee:	2306      	movs	r3, #6
  400ff0:	723b      	strb	r3, [r7, #8]
		ili93xx_write_register(ILI9341_CMD_PIXEL_FORMAT_SET, paratable, 1);
  400ff2:	f107 0308 	add.w	r3, r7, #8
  400ff6:	203a      	movs	r0, #58	; 0x3a
  400ff8:	4619      	mov	r1, r3
  400ffa:	2201      	movs	r2, #1
  400ffc:	4b1c      	ldr	r3, [pc, #112]	; (401070 <ili93xx_init+0x380>)
  400ffe:	4798      	blx	r3

		/** Display Function Control */
		paratable[0] = 0x02;
  401000:	2302      	movs	r3, #2
  401002:	723b      	strb	r3, [r7, #8]
		paratable[1] = 0x82;
  401004:	2382      	movs	r3, #130	; 0x82
  401006:	727b      	strb	r3, [r7, #9]
		paratable[2] = 0x27;
  401008:	2327      	movs	r3, #39	; 0x27
  40100a:	72bb      	strb	r3, [r7, #10]
		paratable[3] = 0x00;
  40100c:	2300      	movs	r3, #0
  40100e:	72fb      	strb	r3, [r7, #11]
		ili93xx_write_register(ILI9341_CMD_DISPLAY_FUNCTION_CTL, paratable, 4);
  401010:	f107 0308 	add.w	r3, r7, #8
  401014:	20b6      	movs	r0, #182	; 0xb6
  401016:	4619      	mov	r1, r3
  401018:	2204      	movs	r2, #4
  40101a:	4b15      	ldr	r3, [pc, #84]	; (401070 <ili93xx_init+0x380>)
  40101c:	4798      	blx	r3
		
		/** set window area*/
		ili93xx_set_window(0, 0, p_opt->ul_width, p_opt->ul_height);
  40101e:	687b      	ldr	r3, [r7, #4]
  401020:	681a      	ldr	r2, [r3, #0]
  401022:	687b      	ldr	r3, [r7, #4]
  401024:	685b      	ldr	r3, [r3, #4]
  401026:	2000      	movs	r0, #0
  401028:	2100      	movs	r1, #0
  40102a:	4c12      	ldr	r4, [pc, #72]	; (401074 <ili93xx_init+0x384>)
  40102c:	47a0      	blx	r4
		ili93xx_set_foreground_color(p_opt->foreground_color);
  40102e:	687b      	ldr	r3, [r7, #4]
  401030:	689b      	ldr	r3, [r3, #8]
  401032:	4618      	mov	r0, r3
  401034:	4b10      	ldr	r3, [pc, #64]	; (401078 <ili93xx_init+0x388>)
  401036:	4798      	blx	r3
		/** Leave sleep mode*/
		ili93xx_write_register(ILI9341_CMD_SLEEP_OUT, paratable, 0);
  401038:	f107 0308 	add.w	r3, r7, #8
  40103c:	2011      	movs	r0, #17
  40103e:	4619      	mov	r1, r3
  401040:	2200      	movs	r2, #0
  401042:	4b0b      	ldr	r3, [pc, #44]	; (401070 <ili93xx_init+0x380>)
  401044:	4798      	blx	r3
		ili93xx_delay(10);
  401046:	200a      	movs	r0, #10
  401048:	4b0c      	ldr	r3, [pc, #48]	; (40107c <ili93xx_init+0x38c>)
  40104a:	4798      	blx	r3
		/** Display on*/
		ili93xx_write_register(ILI9341_CMD_DISPLAY_ON, paratable, 0);
  40104c:	f107 0308 	add.w	r3, r7, #8
  401050:	2029      	movs	r0, #41	; 0x29
  401052:	4619      	mov	r1, r3
  401054:	2200      	movs	r2, #0
  401056:	4b06      	ldr	r3, [pc, #24]	; (401070 <ili93xx_init+0x380>)
  401058:	4798      	blx	r3
  40105a:	e001      	b.n	401060 <ili93xx_init+0x370>
	} else {
		/** exit with return value 1 if device type is not supported.*/
		return 1;
  40105c:	2301      	movs	r3, #1
  40105e:	e000      	b.n	401062 <ili93xx_init+0x372>
	}

	return 0;
  401060:	2300      	movs	r3, #0
}
  401062:	4618      	mov	r0, r3
  401064:	3714      	adds	r7, #20
  401066:	46bd      	mov	sp, r7
  401068:	bd90      	pop	{r4, r7, pc}
  40106a:	bf00      	nop
  40106c:	200008a0 	.word	0x200008a0
  401070:	00400ae1 	.word	0x00400ae1
  401074:	004010ed 	.word	0x004010ed
  401078:	004010b9 	.word	0x004010b9
  40107c:	00400b81 	.word	0x00400b81

00401080 <ili93xx_display_on>:

/**
 * \brief Turn on the LCD.
 */
void ili93xx_display_on(void)
{
  401080:	b580      	push	{r7, lr}
  401082:	af00      	add	r7, sp, #0
	if (g_uc_device_type == DEVICE_TYPE_ILI9325) {
  401084:	4b09      	ldr	r3, [pc, #36]	; (4010ac <ili93xx_display_on+0x2c>)
  401086:	781b      	ldrb	r3, [r3, #0]
  401088:	2b01      	cmp	r3, #1
  40108a:	d105      	bne.n	401098 <ili93xx_display_on+0x18>
		ili93xx_write_register_word(ILI9325_DISP_CTRL1,
  40108c:	2007      	movs	r0, #7
  40108e:	f240 1133 	movw	r1, #307	; 0x133
  401092:	4b07      	ldr	r3, [pc, #28]	; (4010b0 <ili93xx_display_on+0x30>)
  401094:	4798      	blx	r3
  401096:	e008      	b.n	4010aa <ili93xx_display_on+0x2a>
				ILI9325_DISP_CTRL1_BASEE |
				ILI9325_DISP_CTRL1_GON |
				ILI9325_DISP_CTRL1_DTE |
				ILI9325_DISP_CTRL1_D(0x03));
	} else if (g_uc_device_type == DEVICE_TYPE_ILI9341) {
  401098:	4b04      	ldr	r3, [pc, #16]	; (4010ac <ili93xx_display_on+0x2c>)
  40109a:	781b      	ldrb	r3, [r3, #0]
  40109c:	2b02      	cmp	r3, #2
  40109e:	d104      	bne.n	4010aa <ili93xx_display_on+0x2a>
		ili93xx_write_register(ILI9341_CMD_DISPLAY_ON, NULL, 0);
  4010a0:	2029      	movs	r0, #41	; 0x29
  4010a2:	2100      	movs	r1, #0
  4010a4:	2200      	movs	r2, #0
  4010a6:	4b03      	ldr	r3, [pc, #12]	; (4010b4 <ili93xx_display_on+0x34>)
  4010a8:	4798      	blx	r3
	}
}
  4010aa:	bd80      	pop	{r7, pc}
  4010ac:	200008a0 	.word	0x200008a0
  4010b0:	00400a9d 	.word	0x00400a9d
  4010b4:	00400ae1 	.word	0x00400ae1

004010b8 <ili93xx_set_foreground_color>:
 * \brief Set foreground color.
 *
 * \param ul_color foreground color.
 */
void ili93xx_set_foreground_color(ili93xx_color_t ul_color)
{
  4010b8:	b480      	push	{r7}
  4010ba:	b085      	sub	sp, #20
  4010bc:	af00      	add	r7, sp, #0
  4010be:	6078      	str	r0, [r7, #4]
	uint32_t i;

	/** Fill the cache with selected color */
	for (i = 0; i < LCD_DATA_CACHE_SIZE; ++i) {
  4010c0:	2300      	movs	r3, #0
  4010c2:	60fb      	str	r3, [r7, #12]
  4010c4:	e007      	b.n	4010d6 <ili93xx_set_foreground_color+0x1e>
		g_ul_pixel_cache[i] = ul_color;
  4010c6:	4908      	ldr	r1, [pc, #32]	; (4010e8 <ili93xx_set_foreground_color+0x30>)
  4010c8:	68fb      	ldr	r3, [r7, #12]
  4010ca:	687a      	ldr	r2, [r7, #4]
  4010cc:	f841 2023 	str.w	r2, [r1, r3, lsl #2]
void ili93xx_set_foreground_color(ili93xx_color_t ul_color)
{
	uint32_t i;

	/** Fill the cache with selected color */
	for (i = 0; i < LCD_DATA_CACHE_SIZE; ++i) {
  4010d0:	68fb      	ldr	r3, [r7, #12]
  4010d2:	3301      	adds	r3, #1
  4010d4:	60fb      	str	r3, [r7, #12]
  4010d6:	68fb      	ldr	r3, [r7, #12]
  4010d8:	2bef      	cmp	r3, #239	; 0xef
  4010da:	d9f4      	bls.n	4010c6 <ili93xx_set_foreground_color+0xe>
		g_ul_pixel_cache[i] = ul_color;
	}
}
  4010dc:	3714      	adds	r7, #20
  4010de:	46bd      	mov	sp, r7
  4010e0:	f85d 7b04 	ldr.w	r7, [sp], #4
  4010e4:	4770      	bx	lr
  4010e6:	bf00      	nop
  4010e8:	200008a4 	.word	0x200008a4

004010ec <ili93xx_set_window>:
 * \param ul_width The width of the window.
 * \param ul_height The height of the window.
 */
void ili93xx_set_window(uint32_t ul_x, uint32_t ul_y, uint32_t ul_width,
		uint32_t ul_height)
{
  4010ec:	b580      	push	{r7, lr}
  4010ee:	b086      	sub	sp, #24
  4010f0:	af00      	add	r7, sp, #0
  4010f2:	60f8      	str	r0, [r7, #12]
  4010f4:	60b9      	str	r1, [r7, #8]
  4010f6:	607a      	str	r2, [r7, #4]
  4010f8:	603b      	str	r3, [r7, #0]
	Assert(ul_x <= (g_ul_lcd_x_length - 1));
	Assert(ul_y <= (g_ul_lcd_y_length - 1));
	Assert(ul_width <= (g_ul_lcd_x_length - ul_x));
	Assert(ul_height <= (g_ul_lcd_y_length - ul_y));
	if (g_uc_device_type == DEVICE_TYPE_ILI9325) {
  4010fa:	4b36      	ldr	r3, [pc, #216]	; (4011d4 <ili93xx_set_window+0xe8>)
  4010fc:	781b      	ldrb	r3, [r3, #0]
  4010fe:	2b01      	cmp	r3, #1
  401100:	d124      	bne.n	40114c <ili93xx_set_window+0x60>
		/** Set Horizontal Address Start Position */
		ili93xx_write_register_word(ILI9325_HORIZONTAL_ADDR_START,
  401102:	68fb      	ldr	r3, [r7, #12]
  401104:	b29b      	uxth	r3, r3
  401106:	2050      	movs	r0, #80	; 0x50
  401108:	4619      	mov	r1, r3
  40110a:	4b33      	ldr	r3, [pc, #204]	; (4011d8 <ili93xx_set_window+0xec>)
  40110c:	4798      	blx	r3
				(uint16_t)ul_x);

		/** Set Horizontal Address End Position */
		ili93xx_write_register_word(ILI9325_HORIZONTAL_ADDR_END,
  40110e:	68fb      	ldr	r3, [r7, #12]
  401110:	b29a      	uxth	r2, r3
  401112:	687b      	ldr	r3, [r7, #4]
  401114:	b29b      	uxth	r3, r3
  401116:	4413      	add	r3, r2
  401118:	b29b      	uxth	r3, r3
  40111a:	3b01      	subs	r3, #1
  40111c:	b29b      	uxth	r3, r3
  40111e:	2051      	movs	r0, #81	; 0x51
  401120:	4619      	mov	r1, r3
  401122:	4b2d      	ldr	r3, [pc, #180]	; (4011d8 <ili93xx_set_window+0xec>)
  401124:	4798      	blx	r3
				(uint16_t)(ul_x + ul_width - 1));

		/** Set Vertical Address Start Position */
		ili93xx_write_register_word(ILI9325_VERTICAL_ADDR_START,
  401126:	68bb      	ldr	r3, [r7, #8]
  401128:	b29b      	uxth	r3, r3
  40112a:	2052      	movs	r0, #82	; 0x52
  40112c:	4619      	mov	r1, r3
  40112e:	4b2a      	ldr	r3, [pc, #168]	; (4011d8 <ili93xx_set_window+0xec>)
  401130:	4798      	blx	r3
				(uint16_t)ul_y);

		/** Set Vertical Address End Position */
		ili93xx_write_register_word(ILI9325_VERTICAL_ADDR_END,
  401132:	68bb      	ldr	r3, [r7, #8]
  401134:	b29a      	uxth	r2, r3
  401136:	683b      	ldr	r3, [r7, #0]
  401138:	b29b      	uxth	r3, r3
  40113a:	4413      	add	r3, r2
  40113c:	b29b      	uxth	r3, r3
  40113e:	3b01      	subs	r3, #1
  401140:	b29b      	uxth	r3, r3
  401142:	2053      	movs	r0, #83	; 0x53
  401144:	4619      	mov	r1, r3
  401146:	4b24      	ldr	r3, [pc, #144]	; (4011d8 <ili93xx_set_window+0xec>)
  401148:	4798      	blx	r3
  40114a:	e03f      	b.n	4011cc <ili93xx_set_window+0xe0>
				(uint16_t)(ul_y + ul_height - 1));
	} else if (g_uc_device_type == DEVICE_TYPE_ILI9341) {
  40114c:	4b21      	ldr	r3, [pc, #132]	; (4011d4 <ili93xx_set_window+0xe8>)
  40114e:	781b      	ldrb	r3, [r3, #0]
  401150:	2b02      	cmp	r3, #2
  401152:	d13b      	bne.n	4011cc <ili93xx_set_window+0xe0>
		uint8_t paratable[4];

		/** Set Column Address Position */
		paratable[0] = (ul_x >> 8) & 0xFF;
  401154:	68fb      	ldr	r3, [r7, #12]
  401156:	0a1b      	lsrs	r3, r3, #8
  401158:	b2db      	uxtb	r3, r3
  40115a:	753b      	strb	r3, [r7, #20]
		paratable[1] = ul_x & 0xFF;
  40115c:	68fb      	ldr	r3, [r7, #12]
  40115e:	b2db      	uxtb	r3, r3
  401160:	757b      	strb	r3, [r7, #21]
		paratable[2] = ((ul_x + ul_width - 1) >> 8) & 0xFF;
  401162:	68fa      	ldr	r2, [r7, #12]
  401164:	687b      	ldr	r3, [r7, #4]
  401166:	4413      	add	r3, r2
  401168:	3b01      	subs	r3, #1
  40116a:	0a1b      	lsrs	r3, r3, #8
  40116c:	b2db      	uxtb	r3, r3
  40116e:	75bb      	strb	r3, [r7, #22]
		paratable[3] = (ul_x + ul_width - 1) & 0xFF;
  401170:	68fb      	ldr	r3, [r7, #12]
  401172:	b2da      	uxtb	r2, r3
  401174:	687b      	ldr	r3, [r7, #4]
  401176:	b2db      	uxtb	r3, r3
  401178:	4413      	add	r3, r2
  40117a:	b2db      	uxtb	r3, r3
  40117c:	3b01      	subs	r3, #1
  40117e:	b2db      	uxtb	r3, r3
  401180:	75fb      	strb	r3, [r7, #23]
		ili93xx_write_register(ILI9341_CMD_COLUMN_ADDRESS_SET,
  401182:	f107 0314 	add.w	r3, r7, #20
  401186:	202a      	movs	r0, #42	; 0x2a
  401188:	4619      	mov	r1, r3
  40118a:	2204      	movs	r2, #4
  40118c:	4b13      	ldr	r3, [pc, #76]	; (4011dc <ili93xx_set_window+0xf0>)
  40118e:	4798      	blx	r3
				paratable, 4);

		/** Set Page Address Position */
		paratable[0] = (ul_y >> 8) & 0xFF;
  401190:	68bb      	ldr	r3, [r7, #8]
  401192:	0a1b      	lsrs	r3, r3, #8
  401194:	b2db      	uxtb	r3, r3
  401196:	753b      	strb	r3, [r7, #20]
		paratable[1] = ul_y & 0xFF;
  401198:	68bb      	ldr	r3, [r7, #8]
  40119a:	b2db      	uxtb	r3, r3
  40119c:	757b      	strb	r3, [r7, #21]
		paratable[2] = ((ul_y + ul_height - 1) >> 8) & 0xFF;
  40119e:	68ba      	ldr	r2, [r7, #8]
  4011a0:	683b      	ldr	r3, [r7, #0]
  4011a2:	4413      	add	r3, r2
  4011a4:	3b01      	subs	r3, #1
  4011a6:	0a1b      	lsrs	r3, r3, #8
  4011a8:	b2db      	uxtb	r3, r3
  4011aa:	75bb      	strb	r3, [r7, #22]
		paratable[3] = (ul_y + ul_height - 1) & 0xFF;
  4011ac:	68bb      	ldr	r3, [r7, #8]
  4011ae:	b2da      	uxtb	r2, r3
  4011b0:	683b      	ldr	r3, [r7, #0]
  4011b2:	b2db      	uxtb	r3, r3
  4011b4:	4413      	add	r3, r2
  4011b6:	b2db      	uxtb	r3, r3
  4011b8:	3b01      	subs	r3, #1
  4011ba:	b2db      	uxtb	r3, r3
  4011bc:	75fb      	strb	r3, [r7, #23]
		ili93xx_write_register(ILI9341_CMD_PAGE_ADDRESS_SET,
  4011be:	f107 0314 	add.w	r3, r7, #20
  4011c2:	202b      	movs	r0, #43	; 0x2b
  4011c4:	4619      	mov	r1, r3
  4011c6:	2204      	movs	r2, #4
  4011c8:	4b04      	ldr	r3, [pc, #16]	; (4011dc <ili93xx_set_window+0xf0>)
  4011ca:	4798      	blx	r3
				       paratable, 4);
	}
}
  4011cc:	3718      	adds	r7, #24
  4011ce:	46bd      	mov	sp, r7
  4011d0:	bd80      	pop	{r7, pc}
  4011d2:	bf00      	nop
  4011d4:	200008a0 	.word	0x200008a0
  4011d8:	00400a9d 	.word	0x00400a9d
  4011dc:	00400ae1 	.word	0x00400ae1

004011e0 <ili93xx_set_cursor_position>:
 *
 * \param us_x X coordinate of upper-left corner on LCD.
 * \param us_y Y coordinate of upper-left corner on LCD.
 */
void ili93xx_set_cursor_position(uint16_t us_x, uint16_t us_y)
{
  4011e0:	b580      	push	{r7, lr}
  4011e2:	b082      	sub	sp, #8
  4011e4:	af00      	add	r7, sp, #0
  4011e6:	4603      	mov	r3, r0
  4011e8:	460a      	mov	r2, r1
  4011ea:	80fb      	strh	r3, [r7, #6]
  4011ec:	4613      	mov	r3, r2
  4011ee:	80bb      	strh	r3, [r7, #4]
	if (g_uc_device_type == DEVICE_TYPE_ILI9325) {
  4011f0:	4b08      	ldr	r3, [pc, #32]	; (401214 <ili93xx_set_cursor_position+0x34>)
  4011f2:	781b      	ldrb	r3, [r3, #0]
  4011f4:	2b01      	cmp	r3, #1
  4011f6:	d109      	bne.n	40120c <ili93xx_set_cursor_position+0x2c>
		/** GRAM Horizontal/Vertical Address Set (R20h, R21h) */
		ili93xx_write_register_word(ILI9325_HORIZONTAL_GRAM_ADDR_SET, us_x);
  4011f8:	88fb      	ldrh	r3, [r7, #6]
  4011fa:	2020      	movs	r0, #32
  4011fc:	4619      	mov	r1, r3
  4011fe:	4b06      	ldr	r3, [pc, #24]	; (401218 <ili93xx_set_cursor_position+0x38>)
  401200:	4798      	blx	r3
		ili93xx_write_register_word(ILI9325_VERTICAL_GRAM_ADDR_SET, us_y);
  401202:	88bb      	ldrh	r3, [r7, #4]
  401204:	2021      	movs	r0, #33	; 0x21
  401206:	4619      	mov	r1, r3
  401208:	4b03      	ldr	r3, [pc, #12]	; (401218 <ili93xx_set_cursor_position+0x38>)
  40120a:	4798      	blx	r3
	} else if (g_uc_device_type == DEVICE_TYPE_ILI9341) {
		/** There is no corresponding operation for ILI9341. */
	}
}
  40120c:	3708      	adds	r7, #8
  40120e:	46bd      	mov	sp, r7
  401210:	bd80      	pop	{r7, pc}
  401212:	bf00      	nop
  401214:	200008a0 	.word	0x200008a0
  401218:	00400a9d 	.word	0x00400a9d

0040121c <ili93xx_draw_pixel>:
 * \param ul_y Y coordinate of pixel.
 *
 * \return 0 if succeeds, otherwise fails.
 */
uint32_t ili93xx_draw_pixel(uint32_t ul_x, uint32_t ul_y)
{
  40121c:	b590      	push	{r4, r7, lr}
  40121e:	b083      	sub	sp, #12
  401220:	af00      	add	r7, sp, #0
  401222:	6078      	str	r0, [r7, #4]
  401224:	6039      	str	r1, [r7, #0]
	if ((ul_x >= g_ul_lcd_x_length) || (ul_y >= g_ul_lcd_y_length)) {
  401226:	4b1b      	ldr	r3, [pc, #108]	; (401294 <ili93xx_draw_pixel+0x78>)
  401228:	681b      	ldr	r3, [r3, #0]
  40122a:	687a      	ldr	r2, [r7, #4]
  40122c:	429a      	cmp	r2, r3
  40122e:	d204      	bcs.n	40123a <ili93xx_draw_pixel+0x1e>
  401230:	4b19      	ldr	r3, [pc, #100]	; (401298 <ili93xx_draw_pixel+0x7c>)
  401232:	681b      	ldr	r3, [r3, #0]
  401234:	683a      	ldr	r2, [r7, #0]
  401236:	429a      	cmp	r2, r3
  401238:	d301      	bcc.n	40123e <ili93xx_draw_pixel+0x22>
		return 1;
  40123a:	2301      	movs	r3, #1
  40123c:	e025      	b.n	40128a <ili93xx_draw_pixel+0x6e>
	}

	if (g_uc_device_type == DEVICE_TYPE_ILI9325) {
  40123e:	4b17      	ldr	r3, [pc, #92]	; (40129c <ili93xx_draw_pixel+0x80>)
  401240:	781b      	ldrb	r3, [r3, #0]
  401242:	2b01      	cmp	r3, #1
  401244:	d10f      	bne.n	401266 <ili93xx_draw_pixel+0x4a>
		/** Set cursor */
		ili93xx_set_cursor_position(ul_x, ul_y);
  401246:	687b      	ldr	r3, [r7, #4]
  401248:	b29a      	uxth	r2, r3
  40124a:	683b      	ldr	r3, [r7, #0]
  40124c:	b29b      	uxth	r3, r3
  40124e:	4610      	mov	r0, r2
  401250:	4619      	mov	r1, r3
  401252:	4b13      	ldr	r3, [pc, #76]	; (4012a0 <ili93xx_draw_pixel+0x84>)
  401254:	4798      	blx	r3
		/** Prepare to write in GRAM */
		ili93xx_write_ram_prepare();
  401256:	4b13      	ldr	r3, [pc, #76]	; (4012a4 <ili93xx_draw_pixel+0x88>)
  401258:	4798      	blx	r3
		ili93xx_write_ram(*g_ul_pixel_cache);
  40125a:	4b13      	ldr	r3, [pc, #76]	; (4012a8 <ili93xx_draw_pixel+0x8c>)
  40125c:	681b      	ldr	r3, [r3, #0]
  40125e:	4618      	mov	r0, r3
  401260:	4b12      	ldr	r3, [pc, #72]	; (4012ac <ili93xx_draw_pixel+0x90>)
  401262:	4798      	blx	r3
  401264:	e010      	b.n	401288 <ili93xx_draw_pixel+0x6c>
	} else if (g_uc_device_type == DEVICE_TYPE_ILI9341) {
  401266:	4b0d      	ldr	r3, [pc, #52]	; (40129c <ili93xx_draw_pixel+0x80>)
  401268:	781b      	ldrb	r3, [r3, #0]
  40126a:	2b02      	cmp	r3, #2
  40126c:	d10c      	bne.n	401288 <ili93xx_draw_pixel+0x6c>
		ili93xx_set_window(ul_x, ul_y, 0, 0);
  40126e:	6878      	ldr	r0, [r7, #4]
  401270:	6839      	ldr	r1, [r7, #0]
  401272:	2200      	movs	r2, #0
  401274:	2300      	movs	r3, #0
  401276:	4c0e      	ldr	r4, [pc, #56]	; (4012b0 <ili93xx_draw_pixel+0x94>)
  401278:	47a0      	blx	r4
		/** Prepare to write in GRAM */
		ili93xx_write_ram_prepare();
  40127a:	4b0a      	ldr	r3, [pc, #40]	; (4012a4 <ili93xx_draw_pixel+0x88>)
  40127c:	4798      	blx	r3
		ili93xx_write_ram(*g_ul_pixel_cache);
  40127e:	4b0a      	ldr	r3, [pc, #40]	; (4012a8 <ili93xx_draw_pixel+0x8c>)
  401280:	681b      	ldr	r3, [r3, #0]
  401282:	4618      	mov	r0, r3
  401284:	4b09      	ldr	r3, [pc, #36]	; (4012ac <ili93xx_draw_pixel+0x90>)
  401286:	4798      	blx	r3
	}

	return 0;
  401288:	2300      	movs	r3, #0
}
  40128a:	4618      	mov	r0, r3
  40128c:	370c      	adds	r7, #12
  40128e:	46bd      	mov	sp, r7
  401290:	bd90      	pop	{r4, r7, pc}
  401292:	bf00      	nop
  401294:	20000000 	.word	0x20000000
  401298:	20000004 	.word	0x20000004
  40129c:	200008a0 	.word	0x200008a0
  4012a0:	004011e1 	.word	0x004011e1
  4012a4:	0040094d 	.word	0x0040094d
  4012a8:	200008a4 	.word	0x200008a4
  4012ac:	0040098d 	.word	0x0040098d
  4012b0:	004010ed 	.word	0x004010ed

004012b4 <ili93xx_draw_line_bresenham>:
 * \param ul_x2 X coordinate of line end.
 * \param ul_y2 Y coordinate of line endl.
 */
static void ili93xx_draw_line_bresenham(uint32_t ul_x1, uint32_t ul_y1,
		uint32_t ul_x2, uint32_t ul_y2)
{
  4012b4:	b580      	push	{r7, lr}
  4012b6:	b08c      	sub	sp, #48	; 0x30
  4012b8:	af00      	add	r7, sp, #0
  4012ba:	60f8      	str	r0, [r7, #12]
  4012bc:	60b9      	str	r1, [r7, #8]
  4012be:	607a      	str	r2, [r7, #4]
  4012c0:	603b      	str	r3, [r7, #0]
	int dx, dy;
	int i;
	int xinc, yinc, cumul;
	int x, y;

	x = ul_x1;
  4012c2:	68fb      	ldr	r3, [r7, #12]
  4012c4:	627b      	str	r3, [r7, #36]	; 0x24
	y = ul_y1;
  4012c6:	68bb      	ldr	r3, [r7, #8]
  4012c8:	623b      	str	r3, [r7, #32]
	dx = ul_x2 - ul_x1;
  4012ca:	687a      	ldr	r2, [r7, #4]
  4012cc:	68fb      	ldr	r3, [r7, #12]
  4012ce:	1ad3      	subs	r3, r2, r3
  4012d0:	61fb      	str	r3, [r7, #28]
	dy = ul_y2 - ul_y1;
  4012d2:	683a      	ldr	r2, [r7, #0]
  4012d4:	68bb      	ldr	r3, [r7, #8]
  4012d6:	1ad3      	subs	r3, r2, r3
  4012d8:	61bb      	str	r3, [r7, #24]
	xinc = (dx > 0) ? 1 : -1;
  4012da:	69fb      	ldr	r3, [r7, #28]
  4012dc:	2b00      	cmp	r3, #0
  4012de:	dd01      	ble.n	4012e4 <ili93xx_draw_line_bresenham+0x30>
  4012e0:	2301      	movs	r3, #1
  4012e2:	e001      	b.n	4012e8 <ili93xx_draw_line_bresenham+0x34>
  4012e4:	f04f 33ff 	mov.w	r3, #4294967295
  4012e8:	617b      	str	r3, [r7, #20]
	yinc = (dy > 0) ? 1 : -1;
  4012ea:	69bb      	ldr	r3, [r7, #24]
  4012ec:	2b00      	cmp	r3, #0
  4012ee:	dd01      	ble.n	4012f4 <ili93xx_draw_line_bresenham+0x40>
  4012f0:	2301      	movs	r3, #1
  4012f2:	e001      	b.n	4012f8 <ili93xx_draw_line_bresenham+0x44>
  4012f4:	f04f 33ff 	mov.w	r3, #4294967295
  4012f8:	613b      	str	r3, [r7, #16]
	dx = abs(ul_x2 - ul_x1);
  4012fa:	687a      	ldr	r2, [r7, #4]
  4012fc:	68fb      	ldr	r3, [r7, #12]
  4012fe:	1ad3      	subs	r3, r2, r3
  401300:	2b00      	cmp	r3, #0
  401302:	bfb8      	it	lt
  401304:	425b      	neglt	r3, r3
  401306:	61fb      	str	r3, [r7, #28]
	dy = abs(ul_y2 - ul_y1);
  401308:	683a      	ldr	r2, [r7, #0]
  40130a:	68bb      	ldr	r3, [r7, #8]
  40130c:	1ad3      	subs	r3, r2, r3
  40130e:	2b00      	cmp	r3, #0
  401310:	bfb8      	it	lt
  401312:	425b      	neglt	r3, r3
  401314:	61bb      	str	r3, [r7, #24]

	ili93xx_draw_pixel(x, y);
  401316:	6a7a      	ldr	r2, [r7, #36]	; 0x24
  401318:	6a3b      	ldr	r3, [r7, #32]
  40131a:	4610      	mov	r0, r2
  40131c:	4619      	mov	r1, r3
  40131e:	4b2c      	ldr	r3, [pc, #176]	; (4013d0 <ili93xx_draw_line_bresenham+0x11c>)
  401320:	4798      	blx	r3

	if (dx > dy) {
  401322:	69fa      	ldr	r2, [r7, #28]
  401324:	69bb      	ldr	r3, [r7, #24]
  401326:	429a      	cmp	r2, r3
  401328:	dd27      	ble.n	40137a <ili93xx_draw_line_bresenham+0xc6>
		cumul = dx >> 1;
  40132a:	69fb      	ldr	r3, [r7, #28]
  40132c:	105b      	asrs	r3, r3, #1
  40132e:	62bb      	str	r3, [r7, #40]	; 0x28

		for (i = 1; i <= dx; i++) {
  401330:	2301      	movs	r3, #1
  401332:	62fb      	str	r3, [r7, #44]	; 0x2c
  401334:	e01c      	b.n	401370 <ili93xx_draw_line_bresenham+0xbc>
			x += xinc;
  401336:	6a7a      	ldr	r2, [r7, #36]	; 0x24
  401338:	697b      	ldr	r3, [r7, #20]
  40133a:	4413      	add	r3, r2
  40133c:	627b      	str	r3, [r7, #36]	; 0x24
			cumul += dy;
  40133e:	6aba      	ldr	r2, [r7, #40]	; 0x28
  401340:	69bb      	ldr	r3, [r7, #24]
  401342:	4413      	add	r3, r2
  401344:	62bb      	str	r3, [r7, #40]	; 0x28

			if (cumul >= dx) {
  401346:	6aba      	ldr	r2, [r7, #40]	; 0x28
  401348:	69fb      	ldr	r3, [r7, #28]
  40134a:	429a      	cmp	r2, r3
  40134c:	db07      	blt.n	40135e <ili93xx_draw_line_bresenham+0xaa>
				cumul -= dx;
  40134e:	6aba      	ldr	r2, [r7, #40]	; 0x28
  401350:	69fb      	ldr	r3, [r7, #28]
  401352:	1ad3      	subs	r3, r2, r3
  401354:	62bb      	str	r3, [r7, #40]	; 0x28
				y += yinc;
  401356:	6a3a      	ldr	r2, [r7, #32]
  401358:	693b      	ldr	r3, [r7, #16]
  40135a:	4413      	add	r3, r2
  40135c:	623b      	str	r3, [r7, #32]
			}

			ili93xx_draw_pixel(x, y);
  40135e:	6a7a      	ldr	r2, [r7, #36]	; 0x24
  401360:	6a3b      	ldr	r3, [r7, #32]
  401362:	4610      	mov	r0, r2
  401364:	4619      	mov	r1, r3
  401366:	4b1a      	ldr	r3, [pc, #104]	; (4013d0 <ili93xx_draw_line_bresenham+0x11c>)
  401368:	4798      	blx	r3
	ili93xx_draw_pixel(x, y);

	if (dx > dy) {
		cumul = dx >> 1;

		for (i = 1; i <= dx; i++) {
  40136a:	6afb      	ldr	r3, [r7, #44]	; 0x2c
  40136c:	3301      	adds	r3, #1
  40136e:	62fb      	str	r3, [r7, #44]	; 0x2c
  401370:	6afa      	ldr	r2, [r7, #44]	; 0x2c
  401372:	69fb      	ldr	r3, [r7, #28]
  401374:	429a      	cmp	r2, r3
  401376:	ddde      	ble.n	401336 <ili93xx_draw_line_bresenham+0x82>
  401378:	e026      	b.n	4013c8 <ili93xx_draw_line_bresenham+0x114>
			}

			ili93xx_draw_pixel(x, y);
		}
	} else {
		cumul = dy >> 1;
  40137a:	69bb      	ldr	r3, [r7, #24]
  40137c:	105b      	asrs	r3, r3, #1
  40137e:	62bb      	str	r3, [r7, #40]	; 0x28

		for (i = 1; i <= dy; i++) {
  401380:	2301      	movs	r3, #1
  401382:	62fb      	str	r3, [r7, #44]	; 0x2c
  401384:	e01c      	b.n	4013c0 <ili93xx_draw_line_bresenham+0x10c>
			y += yinc;
  401386:	6a3a      	ldr	r2, [r7, #32]
  401388:	693b      	ldr	r3, [r7, #16]
  40138a:	4413      	add	r3, r2
  40138c:	623b      	str	r3, [r7, #32]
			cumul += dx;
  40138e:	6aba      	ldr	r2, [r7, #40]	; 0x28
  401390:	69fb      	ldr	r3, [r7, #28]
  401392:	4413      	add	r3, r2
  401394:	62bb      	str	r3, [r7, #40]	; 0x28

			if (cumul >= dy) {
  401396:	6aba      	ldr	r2, [r7, #40]	; 0x28
  401398:	69bb      	ldr	r3, [r7, #24]
  40139a:	429a      	cmp	r2, r3
  40139c:	db07      	blt.n	4013ae <ili93xx_draw_line_bresenham+0xfa>
				cumul -= dy;
  40139e:	6aba      	ldr	r2, [r7, #40]	; 0x28
  4013a0:	69bb      	ldr	r3, [r7, #24]
  4013a2:	1ad3      	subs	r3, r2, r3
  4013a4:	62bb      	str	r3, [r7, #40]	; 0x28
				x += xinc;
  4013a6:	6a7a      	ldr	r2, [r7, #36]	; 0x24
  4013a8:	697b      	ldr	r3, [r7, #20]
  4013aa:	4413      	add	r3, r2
  4013ac:	627b      	str	r3, [r7, #36]	; 0x24
			}

			ili93xx_draw_pixel(x, y);
  4013ae:	6a7a      	ldr	r2, [r7, #36]	; 0x24
  4013b0:	6a3b      	ldr	r3, [r7, #32]
  4013b2:	4610      	mov	r0, r2
  4013b4:	4619      	mov	r1, r3
  4013b6:	4b06      	ldr	r3, [pc, #24]	; (4013d0 <ili93xx_draw_line_bresenham+0x11c>)
  4013b8:	4798      	blx	r3
			ili93xx_draw_pixel(x, y);
		}
	} else {
		cumul = dy >> 1;

		for (i = 1; i <= dy; i++) {
  4013ba:	6afb      	ldr	r3, [r7, #44]	; 0x2c
  4013bc:	3301      	adds	r3, #1
  4013be:	62fb      	str	r3, [r7, #44]	; 0x2c
  4013c0:	6afa      	ldr	r2, [r7, #44]	; 0x2c
  4013c2:	69bb      	ldr	r3, [r7, #24]
  4013c4:	429a      	cmp	r2, r3
  4013c6:	ddde      	ble.n	401386 <ili93xx_draw_line_bresenham+0xd2>
			}

			ili93xx_draw_pixel(x, y);
		}
	}
}
  4013c8:	3730      	adds	r7, #48	; 0x30
  4013ca:	46bd      	mov	sp, r7
  4013cc:	bd80      	pop	{r7, pc}
  4013ce:	bf00      	nop
  4013d0:	0040121d 	.word	0x0040121d

004013d4 <ili93xx_draw_line>:
 * \param ul_x2 X coordinate of line end.
 * \param ul_y2 Y coordinate of line end.
 */
void ili93xx_draw_line(uint32_t ul_x1, uint32_t ul_y1,
		uint32_t ul_x2, uint32_t ul_y2)
{
  4013d4:	b590      	push	{r4, r7, lr}
  4013d6:	b085      	sub	sp, #20
  4013d8:	af00      	add	r7, sp, #0
  4013da:	60f8      	str	r0, [r7, #12]
  4013dc:	60b9      	str	r1, [r7, #8]
  4013de:	607a      	str	r2, [r7, #4]
  4013e0:	603b      	str	r3, [r7, #0]
	if ((ul_y1 == ul_y2) || (ul_x1 == ul_x2)) {
  4013e2:	68ba      	ldr	r2, [r7, #8]
  4013e4:	683b      	ldr	r3, [r7, #0]
  4013e6:	429a      	cmp	r2, r3
  4013e8:	d003      	beq.n	4013f2 <ili93xx_draw_line+0x1e>
  4013ea:	68fa      	ldr	r2, [r7, #12]
  4013ec:	687b      	ldr	r3, [r7, #4]
  4013ee:	429a      	cmp	r2, r3
  4013f0:	d106      	bne.n	401400 <ili93xx_draw_line+0x2c>
		ili93xx_draw_filled_rectangle(ul_x1, ul_y1, ul_x2, ul_y2);
  4013f2:	68f8      	ldr	r0, [r7, #12]
  4013f4:	68b9      	ldr	r1, [r7, #8]
  4013f6:	687a      	ldr	r2, [r7, #4]
  4013f8:	683b      	ldr	r3, [r7, #0]
  4013fa:	4c06      	ldr	r4, [pc, #24]	; (401414 <ili93xx_draw_line+0x40>)
  4013fc:	47a0      	blx	r4
  4013fe:	e005      	b.n	40140c <ili93xx_draw_line+0x38>
	} else {
		ili93xx_draw_line_bresenham(ul_x1, ul_y1, ul_x2, ul_y2);
  401400:	68f8      	ldr	r0, [r7, #12]
  401402:	68b9      	ldr	r1, [r7, #8]
  401404:	687a      	ldr	r2, [r7, #4]
  401406:	683b      	ldr	r3, [r7, #0]
  401408:	4c03      	ldr	r4, [pc, #12]	; (401418 <ili93xx_draw_line+0x44>)
  40140a:	47a0      	blx	r4
	}
}
  40140c:	3714      	adds	r7, #20
  40140e:	46bd      	mov	sp, r7
  401410:	bd90      	pop	{r4, r7, pc}
  401412:	bf00      	nop
  401414:	0040141d 	.word	0x0040141d
  401418:	004012b5 	.word	0x004012b5

0040141c <ili93xx_draw_filled_rectangle>:
 * \param ul_x2 X coordinate of lower-right corner on LCD.
 * \param ul_y2 Y coordinate of lower-right corner on LCD.
 */
void ili93xx_draw_filled_rectangle(uint32_t ul_x1, uint32_t ul_y1,
		uint32_t ul_x2, uint32_t ul_y2)
{
  40141c:	b590      	push	{r4, r7, lr}
  40141e:	b087      	sub	sp, #28
  401420:	af00      	add	r7, sp, #0
  401422:	60f8      	str	r0, [r7, #12]
  401424:	60b9      	str	r1, [r7, #8]
  401426:	607a      	str	r2, [r7, #4]
  401428:	603b      	str	r3, [r7, #0]
	uint32_t size, blocks;

	/** Swap coordinates if necessary */
	ili93xx_check_box_coordinates(&ul_x1, &ul_y1, &ul_x2, &ul_y2);
  40142a:	f107 000c 	add.w	r0, r7, #12
  40142e:	f107 0108 	add.w	r1, r7, #8
  401432:	1d3a      	adds	r2, r7, #4
  401434:	463b      	mov	r3, r7
  401436:	4c26      	ldr	r4, [pc, #152]	; (4014d0 <ili93xx_draw_filled_rectangle+0xb4>)
  401438:	47a0      	blx	r4

	/** Determine the refresh window area */
	ili93xx_set_window(ul_x1, ul_y1, (ul_x2 - ul_x1) + 1,
  40143a:	68f8      	ldr	r0, [r7, #12]
  40143c:	68b9      	ldr	r1, [r7, #8]
  40143e:	687a      	ldr	r2, [r7, #4]
  401440:	68fb      	ldr	r3, [r7, #12]
  401442:	1ad3      	subs	r3, r2, r3
  401444:	1c5c      	adds	r4, r3, #1
			(ul_y2 - ul_y1) + 1);
  401446:	683a      	ldr	r2, [r7, #0]
  401448:	68bb      	ldr	r3, [r7, #8]
  40144a:	1ad3      	subs	r3, r2, r3

	/** Swap coordinates if necessary */
	ili93xx_check_box_coordinates(&ul_x1, &ul_y1, &ul_x2, &ul_y2);

	/** Determine the refresh window area */
	ili93xx_set_window(ul_x1, ul_y1, (ul_x2 - ul_x1) + 1,
  40144c:	3301      	adds	r3, #1
  40144e:	4622      	mov	r2, r4
  401450:	4c20      	ldr	r4, [pc, #128]	; (4014d4 <ili93xx_draw_filled_rectangle+0xb8>)
  401452:	47a0      	blx	r4
			(ul_y2 - ul_y1) + 1);

	/** Set cursor */
	ili93xx_set_cursor_position(ul_x1, ul_y1);
  401454:	68fb      	ldr	r3, [r7, #12]
  401456:	b29a      	uxth	r2, r3
  401458:	68bb      	ldr	r3, [r7, #8]
  40145a:	b29b      	uxth	r3, r3
  40145c:	4610      	mov	r0, r2
  40145e:	4619      	mov	r1, r3
  401460:	4b1d      	ldr	r3, [pc, #116]	; (4014d8 <ili93xx_draw_filled_rectangle+0xbc>)
  401462:	4798      	blx	r3

	/** Prepare to write in Graphic RAM */
	ili93xx_write_ram_prepare();
  401464:	4b1d      	ldr	r3, [pc, #116]	; (4014dc <ili93xx_draw_filled_rectangle+0xc0>)
  401466:	4798      	blx	r3

	size = (ul_x2 - ul_x1 + 1) * (ul_y2 - ul_y1 + 1);
  401468:	687a      	ldr	r2, [r7, #4]
  40146a:	68fb      	ldr	r3, [r7, #12]
  40146c:	1ad3      	subs	r3, r2, r3
  40146e:	3301      	adds	r3, #1
  401470:	6839      	ldr	r1, [r7, #0]
  401472:	68ba      	ldr	r2, [r7, #8]
  401474:	1a8a      	subs	r2, r1, r2
  401476:	3201      	adds	r2, #1
  401478:	fb02 f303 	mul.w	r3, r2, r3
  40147c:	613b      	str	r3, [r7, #16]

	/** Send pixels blocks => one SPI IT / block */
	blocks = size / LCD_DATA_CACHE_SIZE;
  40147e:	693b      	ldr	r3, [r7, #16]
  401480:	4a17      	ldr	r2, [pc, #92]	; (4014e0 <ili93xx_draw_filled_rectangle+0xc4>)
  401482:	fba2 2303 	umull	r2, r3, r2, r3
  401486:	09db      	lsrs	r3, r3, #7
  401488:	617b      	str	r3, [r7, #20]
	while (blocks--) {
  40148a:	e003      	b.n	401494 <ili93xx_draw_filled_rectangle+0x78>
		ili93xx_write_ram_buffer(g_ul_pixel_cache,
  40148c:	4815      	ldr	r0, [pc, #84]	; (4014e4 <ili93xx_draw_filled_rectangle+0xc8>)
  40148e:	21f0      	movs	r1, #240	; 0xf0
  401490:	4b15      	ldr	r3, [pc, #84]	; (4014e8 <ili93xx_draw_filled_rectangle+0xcc>)
  401492:	4798      	blx	r3

	size = (ul_x2 - ul_x1 + 1) * (ul_y2 - ul_y1 + 1);

	/** Send pixels blocks => one SPI IT / block */
	blocks = size / LCD_DATA_CACHE_SIZE;
	while (blocks--) {
  401494:	697b      	ldr	r3, [r7, #20]
  401496:	1e5a      	subs	r2, r3, #1
  401498:	617a      	str	r2, [r7, #20]
  40149a:	2b00      	cmp	r3, #0
  40149c:	d1f6      	bne.n	40148c <ili93xx_draw_filled_rectangle+0x70>
		ili93xx_write_ram_buffer(g_ul_pixel_cache,
								LCD_DATA_CACHE_SIZE);
	}

	/** Send remaining pixels */
	ili93xx_write_ram_buffer(g_ul_pixel_cache,
  40149e:	6939      	ldr	r1, [r7, #16]
  4014a0:	4b0f      	ldr	r3, [pc, #60]	; (4014e0 <ili93xx_draw_filled_rectangle+0xc4>)
  4014a2:	fba3 2301 	umull	r2, r3, r3, r1
  4014a6:	09da      	lsrs	r2, r3, #7
  4014a8:	4613      	mov	r3, r2
  4014aa:	011b      	lsls	r3, r3, #4
  4014ac:	1a9b      	subs	r3, r3, r2
  4014ae:	011b      	lsls	r3, r3, #4
  4014b0:	1aca      	subs	r2, r1, r3
  4014b2:	480c      	ldr	r0, [pc, #48]	; (4014e4 <ili93xx_draw_filled_rectangle+0xc8>)
  4014b4:	4611      	mov	r1, r2
  4014b6:	4b0c      	ldr	r3, [pc, #48]	; (4014e8 <ili93xx_draw_filled_rectangle+0xcc>)
  4014b8:	4798      	blx	r3
					size % LCD_DATA_CACHE_SIZE);

	/** Reset the refresh window area */
	ili93xx_set_window(0, 0, g_ul_lcd_x_length, g_ul_lcd_y_length);
  4014ba:	4b0c      	ldr	r3, [pc, #48]	; (4014ec <ili93xx_draw_filled_rectangle+0xd0>)
  4014bc:	681a      	ldr	r2, [r3, #0]
  4014be:	4b0c      	ldr	r3, [pc, #48]	; (4014f0 <ili93xx_draw_filled_rectangle+0xd4>)
  4014c0:	681b      	ldr	r3, [r3, #0]
  4014c2:	2000      	movs	r0, #0
  4014c4:	2100      	movs	r1, #0
  4014c6:	4c03      	ldr	r4, [pc, #12]	; (4014d4 <ili93xx_draw_filled_rectangle+0xb8>)
  4014c8:	47a0      	blx	r4
}
  4014ca:	371c      	adds	r7, #28
  4014cc:	46bd      	mov	sp, r7
  4014ce:	bd90      	pop	{r4, r7, pc}
  4014d0:	00400bc1 	.word	0x00400bc1
  4014d4:	004010ed 	.word	0x004010ed
  4014d8:	004011e1 	.word	0x004011e1
  4014dc:	0040094d 	.word	0x0040094d
  4014e0:	88888889 	.word	0x88888889
  4014e4:	200008a4 	.word	0x200008a4
  4014e8:	004009c1 	.word	0x004009c1
  4014ec:	20000000 	.word	0x20000000
  4014f0:	20000004 	.word	0x20000004

004014f4 <ili93xx_draw_circle>:
 * \param ul_r circle radius.
 *
 * \return 0 if succeeds, otherwise fails.
 */
uint32_t ili93xx_draw_circle(uint32_t ul_x, uint32_t ul_y, uint32_t ul_r)
{
  4014f4:	b580      	push	{r7, lr}
  4014f6:	b088      	sub	sp, #32
  4014f8:	af00      	add	r7, sp, #0
  4014fa:	60f8      	str	r0, [r7, #12]
  4014fc:	60b9      	str	r1, [r7, #8]
  4014fe:	607a      	str	r2, [r7, #4]
	int32_t d;
	uint32_t curX;
	uint32_t curY;

	if (ul_r == 0) {
  401500:	687b      	ldr	r3, [r7, #4]
  401502:	2b00      	cmp	r3, #0
  401504:	d101      	bne.n	40150a <ili93xx_draw_circle+0x16>
		return 1;
  401506:	2301      	movs	r3, #1
  401508:	e076      	b.n	4015f8 <ili93xx_draw_circle+0x104>
	}

	d = 3 - (ul_r << 1);
  40150a:	687b      	ldr	r3, [r7, #4]
  40150c:	005b      	lsls	r3, r3, #1
  40150e:	f1c3 0303 	rsb	r3, r3, #3
  401512:	61fb      	str	r3, [r7, #28]
	curX = 0;
  401514:	2300      	movs	r3, #0
  401516:	61bb      	str	r3, [r7, #24]
	curY = ul_r;
  401518:	687b      	ldr	r3, [r7, #4]
  40151a:	617b      	str	r3, [r7, #20]

	while (curX <= curY) {
  40151c:	e067      	b.n	4015ee <ili93xx_draw_circle+0xfa>
		ili93xx_draw_pixel(ul_x + curX, ul_y + curY);
  40151e:	68fa      	ldr	r2, [r7, #12]
  401520:	69bb      	ldr	r3, [r7, #24]
  401522:	18d1      	adds	r1, r2, r3
  401524:	68ba      	ldr	r2, [r7, #8]
  401526:	697b      	ldr	r3, [r7, #20]
  401528:	4413      	add	r3, r2
  40152a:	4608      	mov	r0, r1
  40152c:	4619      	mov	r1, r3
  40152e:	4b34      	ldr	r3, [pc, #208]	; (401600 <ili93xx_draw_circle+0x10c>)
  401530:	4798      	blx	r3
		ili93xx_draw_pixel(ul_x + curX, ul_y - curY);
  401532:	68fa      	ldr	r2, [r7, #12]
  401534:	69bb      	ldr	r3, [r7, #24]
  401536:	18d1      	adds	r1, r2, r3
  401538:	68ba      	ldr	r2, [r7, #8]
  40153a:	697b      	ldr	r3, [r7, #20]
  40153c:	1ad3      	subs	r3, r2, r3
  40153e:	4608      	mov	r0, r1
  401540:	4619      	mov	r1, r3
  401542:	4b2f      	ldr	r3, [pc, #188]	; (401600 <ili93xx_draw_circle+0x10c>)
  401544:	4798      	blx	r3
		ili93xx_draw_pixel(ul_x - curX, ul_y + curY);
  401546:	68fa      	ldr	r2, [r7, #12]
  401548:	69bb      	ldr	r3, [r7, #24]
  40154a:	1ad1      	subs	r1, r2, r3
  40154c:	68ba      	ldr	r2, [r7, #8]
  40154e:	697b      	ldr	r3, [r7, #20]
  401550:	4413      	add	r3, r2
  401552:	4608      	mov	r0, r1
  401554:	4619      	mov	r1, r3
  401556:	4b2a      	ldr	r3, [pc, #168]	; (401600 <ili93xx_draw_circle+0x10c>)
  401558:	4798      	blx	r3
		ili93xx_draw_pixel(ul_x - curX, ul_y - curY);
  40155a:	68fa      	ldr	r2, [r7, #12]
  40155c:	69bb      	ldr	r3, [r7, #24]
  40155e:	1ad1      	subs	r1, r2, r3
  401560:	68ba      	ldr	r2, [r7, #8]
  401562:	697b      	ldr	r3, [r7, #20]
  401564:	1ad3      	subs	r3, r2, r3
  401566:	4608      	mov	r0, r1
  401568:	4619      	mov	r1, r3
  40156a:	4b25      	ldr	r3, [pc, #148]	; (401600 <ili93xx_draw_circle+0x10c>)
  40156c:	4798      	blx	r3
		ili93xx_draw_pixel(ul_x + curY, ul_y + curX);
  40156e:	68fa      	ldr	r2, [r7, #12]
  401570:	697b      	ldr	r3, [r7, #20]
  401572:	18d1      	adds	r1, r2, r3
  401574:	68ba      	ldr	r2, [r7, #8]
  401576:	69bb      	ldr	r3, [r7, #24]
  401578:	4413      	add	r3, r2
  40157a:	4608      	mov	r0, r1
  40157c:	4619      	mov	r1, r3
  40157e:	4b20      	ldr	r3, [pc, #128]	; (401600 <ili93xx_draw_circle+0x10c>)
  401580:	4798      	blx	r3
		ili93xx_draw_pixel(ul_x + curY, ul_y - curX);
  401582:	68fa      	ldr	r2, [r7, #12]
  401584:	697b      	ldr	r3, [r7, #20]
  401586:	18d1      	adds	r1, r2, r3
  401588:	68ba      	ldr	r2, [r7, #8]
  40158a:	69bb      	ldr	r3, [r7, #24]
  40158c:	1ad3      	subs	r3, r2, r3
  40158e:	4608      	mov	r0, r1
  401590:	4619      	mov	r1, r3
  401592:	4b1b      	ldr	r3, [pc, #108]	; (401600 <ili93xx_draw_circle+0x10c>)
  401594:	4798      	blx	r3
		ili93xx_draw_pixel(ul_x - curY, ul_y + curX);
  401596:	68fa      	ldr	r2, [r7, #12]
  401598:	697b      	ldr	r3, [r7, #20]
  40159a:	1ad1      	subs	r1, r2, r3
  40159c:	68ba      	ldr	r2, [r7, #8]
  40159e:	69bb      	ldr	r3, [r7, #24]
  4015a0:	4413      	add	r3, r2
  4015a2:	4608      	mov	r0, r1
  4015a4:	4619      	mov	r1, r3
  4015a6:	4b16      	ldr	r3, [pc, #88]	; (401600 <ili93xx_draw_circle+0x10c>)
  4015a8:	4798      	blx	r3
		ili93xx_draw_pixel(ul_x - curY, ul_y - curX);
  4015aa:	68fa      	ldr	r2, [r7, #12]
  4015ac:	697b      	ldr	r3, [r7, #20]
  4015ae:	1ad1      	subs	r1, r2, r3
  4015b0:	68ba      	ldr	r2, [r7, #8]
  4015b2:	69bb      	ldr	r3, [r7, #24]
  4015b4:	1ad3      	subs	r3, r2, r3
  4015b6:	4608      	mov	r0, r1
  4015b8:	4619      	mov	r1, r3
  4015ba:	4b11      	ldr	r3, [pc, #68]	; (401600 <ili93xx_draw_circle+0x10c>)
  4015bc:	4798      	blx	r3

		if (d < 0) {
  4015be:	69fb      	ldr	r3, [r7, #28]
  4015c0:	2b00      	cmp	r3, #0
  4015c2:	da06      	bge.n	4015d2 <ili93xx_draw_circle+0xde>
			d += (curX << 2) + 6;
  4015c4:	69bb      	ldr	r3, [r7, #24]
  4015c6:	009a      	lsls	r2, r3, #2
  4015c8:	69fb      	ldr	r3, [r7, #28]
  4015ca:	4413      	add	r3, r2
  4015cc:	3306      	adds	r3, #6
  4015ce:	61fb      	str	r3, [r7, #28]
  4015d0:	e00a      	b.n	4015e8 <ili93xx_draw_circle+0xf4>
		} else {
			d += ((curX - curY) << 2) + 10;
  4015d2:	69ba      	ldr	r2, [r7, #24]
  4015d4:	697b      	ldr	r3, [r7, #20]
  4015d6:	1ad3      	subs	r3, r2, r3
  4015d8:	009a      	lsls	r2, r3, #2
  4015da:	69fb      	ldr	r3, [r7, #28]
  4015dc:	4413      	add	r3, r2
  4015de:	330a      	adds	r3, #10
  4015e0:	61fb      	str	r3, [r7, #28]
			curY--;
  4015e2:	697b      	ldr	r3, [r7, #20]
  4015e4:	3b01      	subs	r3, #1
  4015e6:	617b      	str	r3, [r7, #20]
		}

		curX++;
  4015e8:	69bb      	ldr	r3, [r7, #24]
  4015ea:	3301      	adds	r3, #1
  4015ec:	61bb      	str	r3, [r7, #24]

	d = 3 - (ul_r << 1);
	curX = 0;
	curY = ul_r;

	while (curX <= curY) {
  4015ee:	69ba      	ldr	r2, [r7, #24]
  4015f0:	697b      	ldr	r3, [r7, #20]
  4015f2:	429a      	cmp	r2, r3
  4015f4:	d993      	bls.n	40151e <ili93xx_draw_circle+0x2a>
		}

		curX++;
	}

	return 0;
  4015f6:	2300      	movs	r3, #0
}
  4015f8:	4618      	mov	r0, r3
  4015fa:	3720      	adds	r7, #32
  4015fc:	46bd      	mov	sp, r7
  4015fe:	bd80      	pop	{r7, pc}
  401600:	0040121d 	.word	0x0040121d

00401604 <ili93xx_draw_char>:
 * \param ul_x X coordinate of character upper-left corner.
 * \param ul_y Y coordinate of character upper-left corner.
 * \param uc_c character to print.
 */
static void ili93xx_draw_char(uint32_t ul_x, uint32_t ul_y, uint8_t uc_c)
{
  401604:	b580      	push	{r7, lr}
  401606:	b08a      	sub	sp, #40	; 0x28
  401608:	af00      	add	r7, sp, #0
  40160a:	60f8      	str	r0, [r7, #12]
  40160c:	60b9      	str	r1, [r7, #8]
  40160e:	4613      	mov	r3, r2
  401610:	71fb      	strb	r3, [r7, #7]

	/**
	 * Compute offset according of the specified ASCII character
	 *  Note: the first 32 characters of the ASCII table are not handled
	 */
	offset = ((uint32_t)uc_c - 0x20) * 20;
  401612:	79fa      	ldrb	r2, [r7, #7]
  401614:	4613      	mov	r3, r2
  401616:	009b      	lsls	r3, r3, #2
  401618:	4413      	add	r3, r2
  40161a:	009b      	lsls	r3, r3, #2
  40161c:	f5a3 7320 	sub.w	r3, r3, #640	; 0x280
  401620:	61fb      	str	r3, [r7, #28]

	for (col = 0; col < 10; col++) {
  401622:	2300      	movs	r3, #0
  401624:	623b      	str	r3, [r7, #32]
  401626:	e04d      	b.n	4016c4 <ili93xx_draw_char+0xc0>
		/** Compute the first and second byte offset of a column */
		offset0 = offset + col * 2;
  401628:	6a3b      	ldr	r3, [r7, #32]
  40162a:	005a      	lsls	r2, r3, #1
  40162c:	69fb      	ldr	r3, [r7, #28]
  40162e:	4413      	add	r3, r2
  401630:	61bb      	str	r3, [r7, #24]
		offset1 = offset0 + 1;
  401632:	69bb      	ldr	r3, [r7, #24]
  401634:	3301      	adds	r3, #1
  401636:	617b      	str	r3, [r7, #20]

		/**
		 * Draw pixel on screen depending on the corresponding bit value
		 * from the charset
		 */
		for (row = 0; row < 8; row++) {
  401638:	2300      	movs	r3, #0
  40163a:	627b      	str	r3, [r7, #36]	; 0x24
  40163c:	e01a      	b.n	401674 <ili93xx_draw_char+0x70>
			if ((p_uc_charset10x14[offset0] >> (7 - row)) & 0x1) {
  40163e:	4a24      	ldr	r2, [pc, #144]	; (4016d0 <ili93xx_draw_char+0xcc>)
  401640:	69bb      	ldr	r3, [r7, #24]
  401642:	4413      	add	r3, r2
  401644:	781b      	ldrb	r3, [r3, #0]
  401646:	461a      	mov	r2, r3
  401648:	6a7b      	ldr	r3, [r7, #36]	; 0x24
  40164a:	f1c3 0307 	rsb	r3, r3, #7
  40164e:	fa42 f303 	asr.w	r3, r2, r3
  401652:	f003 0301 	and.w	r3, r3, #1
  401656:	2b00      	cmp	r3, #0
  401658:	d009      	beq.n	40166e <ili93xx_draw_char+0x6a>
				ili93xx_draw_pixel(ul_x + col, ul_y + row);
  40165a:	68fa      	ldr	r2, [r7, #12]
  40165c:	6a3b      	ldr	r3, [r7, #32]
  40165e:	18d1      	adds	r1, r2, r3
  401660:	68ba      	ldr	r2, [r7, #8]
  401662:	6a7b      	ldr	r3, [r7, #36]	; 0x24
  401664:	4413      	add	r3, r2
  401666:	4608      	mov	r0, r1
  401668:	4619      	mov	r1, r3
  40166a:	4b1a      	ldr	r3, [pc, #104]	; (4016d4 <ili93xx_draw_char+0xd0>)
  40166c:	4798      	blx	r3

		/**
		 * Draw pixel on screen depending on the corresponding bit value
		 * from the charset
		 */
		for (row = 0; row < 8; row++) {
  40166e:	6a7b      	ldr	r3, [r7, #36]	; 0x24
  401670:	3301      	adds	r3, #1
  401672:	627b      	str	r3, [r7, #36]	; 0x24
  401674:	6a7b      	ldr	r3, [r7, #36]	; 0x24
  401676:	2b07      	cmp	r3, #7
  401678:	d9e1      	bls.n	40163e <ili93xx_draw_char+0x3a>
			if ((p_uc_charset10x14[offset0] >> (7 - row)) & 0x1) {
				ili93xx_draw_pixel(ul_x + col, ul_y + row);
			}
		}

		for (row = 0; row < 6; row++) {
  40167a:	2300      	movs	r3, #0
  40167c:	627b      	str	r3, [r7, #36]	; 0x24
  40167e:	e01b      	b.n	4016b8 <ili93xx_draw_char+0xb4>
			if ((p_uc_charset10x14[offset1] >> (7 - row)) & 0x1) {
  401680:	4a13      	ldr	r2, [pc, #76]	; (4016d0 <ili93xx_draw_char+0xcc>)
  401682:	697b      	ldr	r3, [r7, #20]
  401684:	4413      	add	r3, r2
  401686:	781b      	ldrb	r3, [r3, #0]
  401688:	461a      	mov	r2, r3
  40168a:	6a7b      	ldr	r3, [r7, #36]	; 0x24
  40168c:	f1c3 0307 	rsb	r3, r3, #7
  401690:	fa42 f303 	asr.w	r3, r2, r3
  401694:	f003 0301 	and.w	r3, r3, #1
  401698:	2b00      	cmp	r3, #0
  40169a:	d00a      	beq.n	4016b2 <ili93xx_draw_char+0xae>
				ili93xx_draw_pixel(ul_x + col, ul_y + row + 8);
  40169c:	68fa      	ldr	r2, [r7, #12]
  40169e:	6a3b      	ldr	r3, [r7, #32]
  4016a0:	18d1      	adds	r1, r2, r3
  4016a2:	68ba      	ldr	r2, [r7, #8]
  4016a4:	6a7b      	ldr	r3, [r7, #36]	; 0x24
  4016a6:	4413      	add	r3, r2
  4016a8:	3308      	adds	r3, #8
  4016aa:	4608      	mov	r0, r1
  4016ac:	4619      	mov	r1, r3
  4016ae:	4b09      	ldr	r3, [pc, #36]	; (4016d4 <ili93xx_draw_char+0xd0>)
  4016b0:	4798      	blx	r3
			if ((p_uc_charset10x14[offset0] >> (7 - row)) & 0x1) {
				ili93xx_draw_pixel(ul_x + col, ul_y + row);
			}
		}

		for (row = 0; row < 6; row++) {
  4016b2:	6a7b      	ldr	r3, [r7, #36]	; 0x24
  4016b4:	3301      	adds	r3, #1
  4016b6:	627b      	str	r3, [r7, #36]	; 0x24
  4016b8:	6a7b      	ldr	r3, [r7, #36]	; 0x24
  4016ba:	2b05      	cmp	r3, #5
  4016bc:	d9e0      	bls.n	401680 <ili93xx_draw_char+0x7c>
	 * Compute offset according of the specified ASCII character
	 *  Note: the first 32 characters of the ASCII table are not handled
	 */
	offset = ((uint32_t)uc_c - 0x20) * 20;

	for (col = 0; col < 10; col++) {
  4016be:	6a3b      	ldr	r3, [r7, #32]
  4016c0:	3301      	adds	r3, #1
  4016c2:	623b      	str	r3, [r7, #32]
  4016c4:	6a3b      	ldr	r3, [r7, #32]
  4016c6:	2b09      	cmp	r3, #9
  4016c8:	d9ae      	bls.n	401628 <ili93xx_draw_char+0x24>
			if ((p_uc_charset10x14[offset1] >> (7 - row)) & 0x1) {
				ili93xx_draw_pixel(ul_x + col, ul_y + row + 8);
			}
		}
	}
}
  4016ca:	3728      	adds	r7, #40	; 0x28
  4016cc:	46bd      	mov	sp, r7
  4016ce:	bd80      	pop	{r7, pc}
  4016d0:	00408fe4 	.word	0x00408fe4
  4016d4:	0040121d 	.word	0x0040121d

004016d8 <ili93xx_draw_string>:
 * \param ul_x X coordinate of string top-left corner.
 * \param ul_y Y coordinate of string top-left corner.
 * \param p_str String to display.
 */
void ili93xx_draw_string(uint32_t ul_x, uint32_t ul_y, const uint8_t *p_str)
{
  4016d8:	b580      	push	{r7, lr}
  4016da:	b086      	sub	sp, #24
  4016dc:	af00      	add	r7, sp, #0
  4016de:	60f8      	str	r0, [r7, #12]
  4016e0:	60b9      	str	r1, [r7, #8]
  4016e2:	607a      	str	r2, [r7, #4]
	uint32_t xorg = ul_x;
  4016e4:	68fb      	ldr	r3, [r7, #12]
  4016e6:	617b      	str	r3, [r7, #20]

	while (*p_str != 0) {
  4016e8:	e01c      	b.n	401724 <ili93xx_draw_string+0x4c>
		/** If newline, jump to the next line (font height + 2) */
		if (*p_str == '\n') {
  4016ea:	687b      	ldr	r3, [r7, #4]
  4016ec:	781b      	ldrb	r3, [r3, #0]
  4016ee:	2b0a      	cmp	r3, #10
  4016f0:	d108      	bne.n	401704 <ili93xx_draw_string+0x2c>
			ul_y += gfont.height + 2;
  4016f2:	230e      	movs	r3, #14
  4016f4:	461a      	mov	r2, r3
  4016f6:	68bb      	ldr	r3, [r7, #8]
  4016f8:	4413      	add	r3, r2
  4016fa:	3302      	adds	r3, #2
  4016fc:	60bb      	str	r3, [r7, #8]
			ul_x = xorg;
  4016fe:	697b      	ldr	r3, [r7, #20]
  401700:	60fb      	str	r3, [r7, #12]
  401702:	e00c      	b.n	40171e <ili93xx_draw_string+0x46>
		} else {
			/**
			 * Draw the character and place cursor right after (font
			 * width + 2)
			 */
			ili93xx_draw_char(ul_x, ul_y, *p_str);
  401704:	687b      	ldr	r3, [r7, #4]
  401706:	781b      	ldrb	r3, [r3, #0]
  401708:	68f8      	ldr	r0, [r7, #12]
  40170a:	68b9      	ldr	r1, [r7, #8]
  40170c:	461a      	mov	r2, r3
  40170e:	4b09      	ldr	r3, [pc, #36]	; (401734 <ili93xx_draw_string+0x5c>)
  401710:	4798      	blx	r3
			ul_x += gfont.width + 2;
  401712:	230a      	movs	r3, #10
  401714:	461a      	mov	r2, r3
  401716:	68fb      	ldr	r3, [r7, #12]
  401718:	4413      	add	r3, r2
  40171a:	3302      	adds	r3, #2
  40171c:	60fb      	str	r3, [r7, #12]
		}

		p_str++;
  40171e:	687b      	ldr	r3, [r7, #4]
  401720:	3301      	adds	r3, #1
  401722:	607b      	str	r3, [r7, #4]
 */
void ili93xx_draw_string(uint32_t ul_x, uint32_t ul_y, const uint8_t *p_str)
{
	uint32_t xorg = ul_x;

	while (*p_str != 0) {
  401724:	687b      	ldr	r3, [r7, #4]
  401726:	781b      	ldrb	r3, [r3, #0]
  401728:	2b00      	cmp	r3, #0
  40172a:	d1de      	bne.n	4016ea <ili93xx_draw_string+0x12>
			ul_x += gfont.width + 2;
		}

		p_str++;
	}
}
  40172c:	3718      	adds	r7, #24
  40172e:	46bd      	mov	sp, r7
  401730:	bd80      	pop	{r7, pc}
  401732:	bf00      	nop
  401734:	00401605 	.word	0x00401605

00401738 <smc_set_setup_timing>:
 * \param ul_cs Chip Select number to be set.
 * \param ul_setup_timing Setup timing for NWE, NCS, NRD.
 */
void smc_set_setup_timing(Smc *p_smc, uint32_t ul_cs,
		uint32_t ul_setup_timing)
{
  401738:	b480      	push	{r7}
  40173a:	b085      	sub	sp, #20
  40173c:	af00      	add	r7, sp, #0
  40173e:	60f8      	str	r0, [r7, #12]
  401740:	60b9      	str	r1, [r7, #8]
  401742:	607a      	str	r2, [r7, #4]
	p_smc->SMC_CS_NUMBER[ul_cs].SMC_SETUP = ul_setup_timing;
  401744:	68fa      	ldr	r2, [r7, #12]
  401746:	68bb      	ldr	r3, [r7, #8]
  401748:	011b      	lsls	r3, r3, #4
  40174a:	4413      	add	r3, r2
  40174c:	687a      	ldr	r2, [r7, #4]
  40174e:	601a      	str	r2, [r3, #0]
}
  401750:	3714      	adds	r7, #20
  401752:	46bd      	mov	sp, r7
  401754:	f85d 7b04 	ldr.w	r7, [sp], #4
  401758:	4770      	bx	lr
  40175a:	bf00      	nop

0040175c <smc_set_pulse_timing>:
 * \param ul_cs Chip Select number to be set.
 * \param ul_pulse_timing Pulse timing for NWE,NCS,NRD.
 */
void smc_set_pulse_timing(Smc *p_smc, uint32_t ul_cs,
		uint32_t ul_pulse_timing)
{
  40175c:	b480      	push	{r7}
  40175e:	b085      	sub	sp, #20
  401760:	af00      	add	r7, sp, #0
  401762:	60f8      	str	r0, [r7, #12]
  401764:	60b9      	str	r1, [r7, #8]
  401766:	607a      	str	r2, [r7, #4]
	p_smc->SMC_CS_NUMBER[ul_cs].SMC_PULSE = ul_pulse_timing;
  401768:	68fa      	ldr	r2, [r7, #12]
  40176a:	68bb      	ldr	r3, [r7, #8]
  40176c:	011b      	lsls	r3, r3, #4
  40176e:	4413      	add	r3, r2
  401770:	687a      	ldr	r2, [r7, #4]
  401772:	605a      	str	r2, [r3, #4]
}
  401774:	3714      	adds	r7, #20
  401776:	46bd      	mov	sp, r7
  401778:	f85d 7b04 	ldr.w	r7, [sp], #4
  40177c:	4770      	bx	lr
  40177e:	bf00      	nop

00401780 <smc_set_cycle_timing>:
 * \param ul_cs Chip Select number to be set.
 * \param ul_cycle_timing Cycle timing for NWE and NRD.
 */
void smc_set_cycle_timing(Smc *p_smc, uint32_t ul_cs,
		uint32_t ul_cycle_timing)
{
  401780:	b480      	push	{r7}
  401782:	b085      	sub	sp, #20
  401784:	af00      	add	r7, sp, #0
  401786:	60f8      	str	r0, [r7, #12]
  401788:	60b9      	str	r1, [r7, #8]
  40178a:	607a      	str	r2, [r7, #4]
	p_smc->SMC_CS_NUMBER[ul_cs].SMC_CYCLE = ul_cycle_timing;
  40178c:	68fa      	ldr	r2, [r7, #12]
  40178e:	68bb      	ldr	r3, [r7, #8]
  401790:	011b      	lsls	r3, r3, #4
  401792:	4413      	add	r3, r2
  401794:	3308      	adds	r3, #8
  401796:	687a      	ldr	r2, [r7, #4]
  401798:	601a      	str	r2, [r3, #0]
}
  40179a:	3714      	adds	r7, #20
  40179c:	46bd      	mov	sp, r7
  40179e:	f85d 7b04 	ldr.w	r7, [sp], #4
  4017a2:	4770      	bx	lr

004017a4 <smc_set_mode>:
 * \param p_smc Pointer to an SMC instance.
 * \param ul_cs Chip select number to be set.
 * \param ul_mode SMC mode.
 */
void smc_set_mode(Smc *p_smc, uint32_t ul_cs, uint32_t ul_mode)
{
  4017a4:	b480      	push	{r7}
  4017a6:	b085      	sub	sp, #20
  4017a8:	af00      	add	r7, sp, #0
  4017aa:	60f8      	str	r0, [r7, #12]
  4017ac:	60b9      	str	r1, [r7, #8]
  4017ae:	607a      	str	r2, [r7, #4]
	p_smc->SMC_CS_NUMBER[ul_cs].SMC_MODE = ul_mode;
  4017b0:	68fa      	ldr	r2, [r7, #12]
  4017b2:	68bb      	ldr	r3, [r7, #8]
  4017b4:	011b      	lsls	r3, r3, #4
  4017b6:	4413      	add	r3, r2
  4017b8:	3308      	adds	r3, #8
  4017ba:	687a      	ldr	r2, [r7, #4]
  4017bc:	605a      	str	r2, [r3, #4]
}
  4017be:	3714      	adds	r7, #20
  4017c0:	46bd      	mov	sp, r7
  4017c2:	f85d 7b04 	ldr.w	r7, [sp], #4
  4017c6:	4770      	bx	lr

004017c8 <pio_pull_up>:
 * \param ul_pull_up_enable Indicates if the pin(s) internal pull-up shall be
 * configured.
 */
void pio_pull_up(Pio *p_pio, const uint32_t ul_mask,
		const uint32_t ul_pull_up_enable)
{
  4017c8:	b480      	push	{r7}
  4017ca:	b085      	sub	sp, #20
  4017cc:	af00      	add	r7, sp, #0
  4017ce:	60f8      	str	r0, [r7, #12]
  4017d0:	60b9      	str	r1, [r7, #8]
  4017d2:	607a      	str	r2, [r7, #4]
	/* Enable the pull-up(s) if necessary */
	if (ul_pull_up_enable) {
  4017d4:	687b      	ldr	r3, [r7, #4]
  4017d6:	2b00      	cmp	r3, #0
  4017d8:	d003      	beq.n	4017e2 <pio_pull_up+0x1a>
		p_pio->PIO_PUER = ul_mask;
  4017da:	68fb      	ldr	r3, [r7, #12]
  4017dc:	68ba      	ldr	r2, [r7, #8]
  4017de:	665a      	str	r2, [r3, #100]	; 0x64
  4017e0:	e002      	b.n	4017e8 <pio_pull_up+0x20>
	} else {
		p_pio->PIO_PUDR = ul_mask;
  4017e2:	68fb      	ldr	r3, [r7, #12]
  4017e4:	68ba      	ldr	r2, [r7, #8]
  4017e6:	661a      	str	r2, [r3, #96]	; 0x60
	}
}
  4017e8:	3714      	adds	r7, #20
  4017ea:	46bd      	mov	sp, r7
  4017ec:	f85d 7b04 	ldr.w	r7, [sp], #4
  4017f0:	4770      	bx	lr
  4017f2:	bf00      	nop

004017f4 <pio_set_peripheral>:
 * \param ul_type PIO type.
 * \param ul_mask Bitmask of one or more pin(s) to configure.
 */
void pio_set_peripheral(Pio *p_pio, const pio_type_t ul_type,
		const uint32_t ul_mask)
{
  4017f4:	b480      	push	{r7}
  4017f6:	b087      	sub	sp, #28
  4017f8:	af00      	add	r7, sp, #0
  4017fa:	60f8      	str	r0, [r7, #12]
  4017fc:	60b9      	str	r1, [r7, #8]
  4017fe:	607a      	str	r2, [r7, #4]
	uint32_t ul_sr;

	/* Disable interrupts on the pin(s) */
	p_pio->PIO_IDR = ul_mask;
  401800:	68fb      	ldr	r3, [r7, #12]
  401802:	687a      	ldr	r2, [r7, #4]
  401804:	645a      	str	r2, [r3, #68]	; 0x44

#if (SAM3S || SAM3N || SAM4S || SAM4E || SAM4N || SAM4C || SAMG || SAM4CP || SAM4CM || SAMV71 || SAMV70 || SAME70 || SAMS70)
	switch (ul_type) {
  401806:	68bb      	ldr	r3, [r7, #8]
  401808:	f1b3 5fc0 	cmp.w	r3, #402653184	; 0x18000000
  40180c:	d04a      	beq.n	4018a4 <pio_set_peripheral+0xb0>
  40180e:	f1b3 5fc0 	cmp.w	r3, #402653184	; 0x18000000
  401812:	d808      	bhi.n	401826 <pio_set_peripheral+0x32>
  401814:	f1b3 6f00 	cmp.w	r3, #134217728	; 0x8000000
  401818:	d016      	beq.n	401848 <pio_set_peripheral+0x54>
  40181a:	f1b3 5f80 	cmp.w	r3, #268435456	; 0x10000000
  40181e:	d02c      	beq.n	40187a <pio_set_peripheral+0x86>
  401820:	2b00      	cmp	r3, #0
  401822:	d069      	beq.n	4018f8 <pio_set_peripheral+0x104>
  401824:	e064      	b.n	4018f0 <pio_set_peripheral+0xfc>
  401826:	f1b3 5f20 	cmp.w	r3, #671088640	; 0x28000000
  40182a:	d065      	beq.n	4018f8 <pio_set_peripheral+0x104>
  40182c:	f1b3 5f20 	cmp.w	r3, #671088640	; 0x28000000
  401830:	d803      	bhi.n	40183a <pio_set_peripheral+0x46>
  401832:	f1b3 5f00 	cmp.w	r3, #536870912	; 0x20000000
  401836:	d04a      	beq.n	4018ce <pio_set_peripheral+0xda>
  401838:	e05a      	b.n	4018f0 <pio_set_peripheral+0xfc>
  40183a:	f1b3 5f40 	cmp.w	r3, #805306368	; 0x30000000
  40183e:	d05b      	beq.n	4018f8 <pio_set_peripheral+0x104>
  401840:	f1b3 5f60 	cmp.w	r3, #939524096	; 0x38000000
  401844:	d058      	beq.n	4018f8 <pio_set_peripheral+0x104>
  401846:	e053      	b.n	4018f0 <pio_set_peripheral+0xfc>
	case PIO_PERIPH_A:
		ul_sr = p_pio->PIO_ABCDSR[0];
  401848:	68fb      	ldr	r3, [r7, #12]
  40184a:	6f1b      	ldr	r3, [r3, #112]	; 0x70
  40184c:	617b      	str	r3, [r7, #20]
		p_pio->PIO_ABCDSR[0] &= (~ul_mask & ul_sr);
  40184e:	68fb      	ldr	r3, [r7, #12]
  401850:	6f1a      	ldr	r2, [r3, #112]	; 0x70
  401852:	687b      	ldr	r3, [r7, #4]
  401854:	43d9      	mvns	r1, r3
  401856:	697b      	ldr	r3, [r7, #20]
  401858:	400b      	ands	r3, r1
  40185a:	401a      	ands	r2, r3
  40185c:	68fb      	ldr	r3, [r7, #12]
  40185e:	671a      	str	r2, [r3, #112]	; 0x70

		ul_sr = p_pio->PIO_ABCDSR[1];
  401860:	68fb      	ldr	r3, [r7, #12]
  401862:	6f5b      	ldr	r3, [r3, #116]	; 0x74
  401864:	617b      	str	r3, [r7, #20]
		p_pio->PIO_ABCDSR[1] &= (~ul_mask & ul_sr);
  401866:	68fb      	ldr	r3, [r7, #12]
  401868:	6f5a      	ldr	r2, [r3, #116]	; 0x74
  40186a:	687b      	ldr	r3, [r7, #4]
  40186c:	43d9      	mvns	r1, r3
  40186e:	697b      	ldr	r3, [r7, #20]
  401870:	400b      	ands	r3, r1
  401872:	401a      	ands	r2, r3
  401874:	68fb      	ldr	r3, [r7, #12]
  401876:	675a      	str	r2, [r3, #116]	; 0x74
		break;
  401878:	e03a      	b.n	4018f0 <pio_set_peripheral+0xfc>
	case PIO_PERIPH_B:
		ul_sr = p_pio->PIO_ABCDSR[0];
  40187a:	68fb      	ldr	r3, [r7, #12]
  40187c:	6f1b      	ldr	r3, [r3, #112]	; 0x70
  40187e:	617b      	str	r3, [r7, #20]
		p_pio->PIO_ABCDSR[0] = (ul_mask | ul_sr);
  401880:	687a      	ldr	r2, [r7, #4]
  401882:	697b      	ldr	r3, [r7, #20]
  401884:	431a      	orrs	r2, r3
  401886:	68fb      	ldr	r3, [r7, #12]
  401888:	671a      	str	r2, [r3, #112]	; 0x70

		ul_sr = p_pio->PIO_ABCDSR[1];
  40188a:	68fb      	ldr	r3, [r7, #12]
  40188c:	6f5b      	ldr	r3, [r3, #116]	; 0x74
  40188e:	617b      	str	r3, [r7, #20]
		p_pio->PIO_ABCDSR[1] &= (~ul_mask & ul_sr);
  401890:	68fb      	ldr	r3, [r7, #12]
  401892:	6f5a      	ldr	r2, [r3, #116]	; 0x74
  401894:	687b      	ldr	r3, [r7, #4]
  401896:	43d9      	mvns	r1, r3
  401898:	697b      	ldr	r3, [r7, #20]
  40189a:	400b      	ands	r3, r1
  40189c:	401a      	ands	r2, r3
  40189e:	68fb      	ldr	r3, [r7, #12]
  4018a0:	675a      	str	r2, [r3, #116]	; 0x74
		break;
  4018a2:	e025      	b.n	4018f0 <pio_set_peripheral+0xfc>
#if (!SAMG)
	case PIO_PERIPH_C:
		ul_sr = p_pio->PIO_ABCDSR[0];
  4018a4:	68fb      	ldr	r3, [r7, #12]
  4018a6:	6f1b      	ldr	r3, [r3, #112]	; 0x70
  4018a8:	617b      	str	r3, [r7, #20]
		p_pio->PIO_ABCDSR[0] &= (~ul_mask & ul_sr);
  4018aa:	68fb      	ldr	r3, [r7, #12]
  4018ac:	6f1a      	ldr	r2, [r3, #112]	; 0x70
  4018ae:	687b      	ldr	r3, [r7, #4]
  4018b0:	43d9      	mvns	r1, r3
  4018b2:	697b      	ldr	r3, [r7, #20]
  4018b4:	400b      	ands	r3, r1
  4018b6:	401a      	ands	r2, r3
  4018b8:	68fb      	ldr	r3, [r7, #12]
  4018ba:	671a      	str	r2, [r3, #112]	; 0x70

		ul_sr = p_pio->PIO_ABCDSR[1];
  4018bc:	68fb      	ldr	r3, [r7, #12]
  4018be:	6f5b      	ldr	r3, [r3, #116]	; 0x74
  4018c0:	617b      	str	r3, [r7, #20]
		p_pio->PIO_ABCDSR[1] = (ul_mask | ul_sr);
  4018c2:	687a      	ldr	r2, [r7, #4]
  4018c4:	697b      	ldr	r3, [r7, #20]
  4018c6:	431a      	orrs	r2, r3
  4018c8:	68fb      	ldr	r3, [r7, #12]
  4018ca:	675a      	str	r2, [r3, #116]	; 0x74
		break;
  4018cc:	e010      	b.n	4018f0 <pio_set_peripheral+0xfc>
	case PIO_PERIPH_D:
		ul_sr = p_pio->PIO_ABCDSR[0];
  4018ce:	68fb      	ldr	r3, [r7, #12]
  4018d0:	6f1b      	ldr	r3, [r3, #112]	; 0x70
  4018d2:	617b      	str	r3, [r7, #20]
		p_pio->PIO_ABCDSR[0] = (ul_mask | ul_sr);
  4018d4:	687a      	ldr	r2, [r7, #4]
  4018d6:	697b      	ldr	r3, [r7, #20]
  4018d8:	431a      	orrs	r2, r3
  4018da:	68fb      	ldr	r3, [r7, #12]
  4018dc:	671a      	str	r2, [r3, #112]	; 0x70

		ul_sr = p_pio->PIO_ABCDSR[1];
  4018de:	68fb      	ldr	r3, [r7, #12]
  4018e0:	6f5b      	ldr	r3, [r3, #116]	; 0x74
  4018e2:	617b      	str	r3, [r7, #20]
		p_pio->PIO_ABCDSR[1] = (ul_mask | ul_sr);
  4018e4:	687a      	ldr	r2, [r7, #4]
  4018e6:	697b      	ldr	r3, [r7, #20]
  4018e8:	431a      	orrs	r2, r3
  4018ea:	68fb      	ldr	r3, [r7, #12]
  4018ec:	675a      	str	r2, [r3, #116]	; 0x74
		break;
  4018ee:	bf00      	nop
#else
#error "Unsupported device"
#endif

	/* Remove the pins from under the control of PIO */
	p_pio->PIO_PDR = ul_mask;
  4018f0:	68fb      	ldr	r3, [r7, #12]
  4018f2:	687a      	ldr	r2, [r7, #4]
  4018f4:	605a      	str	r2, [r3, #4]
  4018f6:	e000      	b.n	4018fa <pio_set_peripheral+0x106>
		/* Other types are invalid in this function */
	case PIO_INPUT:
	case PIO_OUTPUT_0:
	case PIO_OUTPUT_1:
	case PIO_NOT_A_PIN:
		return;
  4018f8:	bf00      	nop
#error "Unsupported device"
#endif

	/* Remove the pins from under the control of PIO */
	p_pio->PIO_PDR = ul_mask;
}
  4018fa:	371c      	adds	r7, #28
  4018fc:	46bd      	mov	sp, r7
  4018fe:	f85d 7b04 	ldr.w	r7, [sp], #4
  401902:	4770      	bx	lr

00401904 <pio_set_input>:
 * \param ul_mask Bitmask indicating which pin(s) to configure as input(s).
 * \param ul_attribute PIO attribute(s).
 */
void pio_set_input(Pio *p_pio, const uint32_t ul_mask,
		const uint32_t ul_attribute)
{
  401904:	b580      	push	{r7, lr}
  401906:	b084      	sub	sp, #16
  401908:	af00      	add	r7, sp, #0
  40190a:	60f8      	str	r0, [r7, #12]
  40190c:	60b9      	str	r1, [r7, #8]
  40190e:	607a      	str	r2, [r7, #4]
	pio_disable_interrupt(p_pio, ul_mask);
  401910:	68f8      	ldr	r0, [r7, #12]
  401912:	68b9      	ldr	r1, [r7, #8]
  401914:	4b18      	ldr	r3, [pc, #96]	; (401978 <pio_set_input+0x74>)
  401916:	4798      	blx	r3
	pio_pull_up(p_pio, ul_mask, ul_attribute & PIO_PULLUP);
  401918:	687b      	ldr	r3, [r7, #4]
  40191a:	f003 0301 	and.w	r3, r3, #1
  40191e:	68f8      	ldr	r0, [r7, #12]
  401920:	68b9      	ldr	r1, [r7, #8]
  401922:	461a      	mov	r2, r3
  401924:	4b15      	ldr	r3, [pc, #84]	; (40197c <pio_set_input+0x78>)
  401926:	4798      	blx	r3

	/* Enable Input Filter if necessary */
	if (ul_attribute & (PIO_DEGLITCH | PIO_DEBOUNCE)) {
  401928:	687b      	ldr	r3, [r7, #4]
  40192a:	f003 030a 	and.w	r3, r3, #10
  40192e:	2b00      	cmp	r3, #0
  401930:	d003      	beq.n	40193a <pio_set_input+0x36>
		p_pio->PIO_IFER = ul_mask;
  401932:	68fb      	ldr	r3, [r7, #12]
  401934:	68ba      	ldr	r2, [r7, #8]
  401936:	621a      	str	r2, [r3, #32]
  401938:	e002      	b.n	401940 <pio_set_input+0x3c>
	} else {
		p_pio->PIO_IFDR = ul_mask;
  40193a:	68fb      	ldr	r3, [r7, #12]
  40193c:	68ba      	ldr	r2, [r7, #8]
  40193e:	625a      	str	r2, [r3, #36]	; 0x24
	}

#if (SAM3S || SAM3N || SAM4S || SAM4E || SAM4N || SAM4C || SAMG || SAM4CP || SAM4CM || SAMV71 || SAMV70 || SAME70 || SAMS70)
	/* Enable de-glitch or de-bounce if necessary */
	if (ul_attribute & PIO_DEGLITCH) {
  401940:	687b      	ldr	r3, [r7, #4]
  401942:	f003 0302 	and.w	r3, r3, #2
  401946:	2b00      	cmp	r3, #0
  401948:	d004      	beq.n	401954 <pio_set_input+0x50>
		p_pio->PIO_IFSCDR = ul_mask;
  40194a:	68fb      	ldr	r3, [r7, #12]
  40194c:	68ba      	ldr	r2, [r7, #8]
  40194e:	f8c3 2080 	str.w	r2, [r3, #128]	; 0x80
  401952:	e008      	b.n	401966 <pio_set_input+0x62>
	} else {
		if (ul_attribute & PIO_DEBOUNCE) {
  401954:	687b      	ldr	r3, [r7, #4]
  401956:	f003 0308 	and.w	r3, r3, #8
  40195a:	2b00      	cmp	r3, #0
  40195c:	d003      	beq.n	401966 <pio_set_input+0x62>
			p_pio->PIO_IFSCER = ul_mask;
  40195e:	68fb      	ldr	r3, [r7, #12]
  401960:	68ba      	ldr	r2, [r7, #8]
  401962:	f8c3 2084 	str.w	r2, [r3, #132]	; 0x84
#else
#error "Unsupported device"
#endif

	/* Configure pin as input */
	p_pio->PIO_ODR = ul_mask;
  401966:	68fb      	ldr	r3, [r7, #12]
  401968:	68ba      	ldr	r2, [r7, #8]
  40196a:	615a      	str	r2, [r3, #20]
	p_pio->PIO_PER = ul_mask;
  40196c:	68fb      	ldr	r3, [r7, #12]
  40196e:	68ba      	ldr	r2, [r7, #8]
  401970:	601a      	str	r2, [r3, #0]
}
  401972:	3710      	adds	r7, #16
  401974:	46bd      	mov	sp, r7
  401976:	bd80      	pop	{r7, pc}
  401978:	004019e5 	.word	0x004019e5
  40197c:	004017c9 	.word	0x004017c9

00401980 <pio_set_output>:
 */
void pio_set_output(Pio *p_pio, const uint32_t ul_mask,
		const uint32_t ul_default_level,
		const uint32_t ul_multidrive_enable,
		const uint32_t ul_pull_up_enable)
{
  401980:	b580      	push	{r7, lr}
  401982:	b084      	sub	sp, #16
  401984:	af00      	add	r7, sp, #0
  401986:	60f8      	str	r0, [r7, #12]
  401988:	60b9      	str	r1, [r7, #8]
  40198a:	607a      	str	r2, [r7, #4]
  40198c:	603b      	str	r3, [r7, #0]
	pio_disable_interrupt(p_pio, ul_mask);
  40198e:	68f8      	ldr	r0, [r7, #12]
  401990:	68b9      	ldr	r1, [r7, #8]
  401992:	4b12      	ldr	r3, [pc, #72]	; (4019dc <pio_set_output+0x5c>)
  401994:	4798      	blx	r3
	pio_pull_up(p_pio, ul_mask, ul_pull_up_enable);
  401996:	68f8      	ldr	r0, [r7, #12]
  401998:	68b9      	ldr	r1, [r7, #8]
  40199a:	69ba      	ldr	r2, [r7, #24]
  40199c:	4b10      	ldr	r3, [pc, #64]	; (4019e0 <pio_set_output+0x60>)
  40199e:	4798      	blx	r3

	/* Enable multi-drive if necessary */
	if (ul_multidrive_enable) {
  4019a0:	683b      	ldr	r3, [r7, #0]
  4019a2:	2b00      	cmp	r3, #0
  4019a4:	d003      	beq.n	4019ae <pio_set_output+0x2e>
		p_pio->PIO_MDER = ul_mask;
  4019a6:	68fb      	ldr	r3, [r7, #12]
  4019a8:	68ba      	ldr	r2, [r7, #8]
  4019aa:	651a      	str	r2, [r3, #80]	; 0x50
  4019ac:	e002      	b.n	4019b4 <pio_set_output+0x34>
	} else {
		p_pio->PIO_MDDR = ul_mask;
  4019ae:	68fb      	ldr	r3, [r7, #12]
  4019b0:	68ba      	ldr	r2, [r7, #8]
  4019b2:	655a      	str	r2, [r3, #84]	; 0x54
	}

	/* Set default value */
	if (ul_default_level) {
  4019b4:	687b      	ldr	r3, [r7, #4]
  4019b6:	2b00      	cmp	r3, #0
  4019b8:	d003      	beq.n	4019c2 <pio_set_output+0x42>
		p_pio->PIO_SODR = ul_mask;
  4019ba:	68fb      	ldr	r3, [r7, #12]
  4019bc:	68ba      	ldr	r2, [r7, #8]
  4019be:	631a      	str	r2, [r3, #48]	; 0x30
  4019c0:	e002      	b.n	4019c8 <pio_set_output+0x48>
	} else {
		p_pio->PIO_CODR = ul_mask;
  4019c2:	68fb      	ldr	r3, [r7, #12]
  4019c4:	68ba      	ldr	r2, [r7, #8]
  4019c6:	635a      	str	r2, [r3, #52]	; 0x34
	}

	/* Configure pin(s) as output(s) */
	p_pio->PIO_OER = ul_mask;
  4019c8:	68fb      	ldr	r3, [r7, #12]
  4019ca:	68ba      	ldr	r2, [r7, #8]
  4019cc:	611a      	str	r2, [r3, #16]
	p_pio->PIO_PER = ul_mask;
  4019ce:	68fb      	ldr	r3, [r7, #12]
  4019d0:	68ba      	ldr	r2, [r7, #8]
  4019d2:	601a      	str	r2, [r3, #0]
}
  4019d4:	3710      	adds	r7, #16
  4019d6:	46bd      	mov	sp, r7
  4019d8:	bd80      	pop	{r7, pc}
  4019da:	bf00      	nop
  4019dc:	004019e5 	.word	0x004019e5
  4019e0:	004017c9 	.word	0x004017c9

004019e4 <pio_disable_interrupt>:
 *
 * \param p_pio Pointer to a PIO instance.
 * \param ul_mask Interrupt sources bit map.
 */
void pio_disable_interrupt(Pio *p_pio, const uint32_t ul_mask)
{
  4019e4:	b480      	push	{r7}
  4019e6:	b083      	sub	sp, #12
  4019e8:	af00      	add	r7, sp, #0
  4019ea:	6078      	str	r0, [r7, #4]
  4019ec:	6039      	str	r1, [r7, #0]
	p_pio->PIO_IDR = ul_mask;
  4019ee:	687b      	ldr	r3, [r7, #4]
  4019f0:	683a      	ldr	r2, [r7, #0]
  4019f2:	645a      	str	r2, [r3, #68]	; 0x44
}
  4019f4:	370c      	adds	r7, #12
  4019f6:	46bd      	mov	sp, r7
  4019f8:	f85d 7b04 	ldr.w	r7, [sp], #4
  4019fc:	4770      	bx	lr
  4019fe:	bf00      	nop

00401a00 <pio_get_interrupt_status>:
 * \param p_pio Pointer to a PIO instance.
 *
 * \return The interrupt status mask value.
 */
uint32_t pio_get_interrupt_status(const Pio *p_pio)
{
  401a00:	b480      	push	{r7}
  401a02:	b083      	sub	sp, #12
  401a04:	af00      	add	r7, sp, #0
  401a06:	6078      	str	r0, [r7, #4]
	return p_pio->PIO_ISR;
  401a08:	687b      	ldr	r3, [r7, #4]
  401a0a:	6cdb      	ldr	r3, [r3, #76]	; 0x4c
}
  401a0c:	4618      	mov	r0, r3
  401a0e:	370c      	adds	r7, #12
  401a10:	46bd      	mov	sp, r7
  401a12:	f85d 7b04 	ldr.w	r7, [sp], #4
  401a16:	4770      	bx	lr

00401a18 <pio_get_interrupt_mask>:
 * \param p_pio Pointer to a PIO instance.
 *
 * \return The interrupt mask value.
 */
uint32_t pio_get_interrupt_mask(const Pio *p_pio)
{
  401a18:	b480      	push	{r7}
  401a1a:	b083      	sub	sp, #12
  401a1c:	af00      	add	r7, sp, #0
  401a1e:	6078      	str	r0, [r7, #4]
	return p_pio->PIO_IMR;
  401a20:	687b      	ldr	r3, [r7, #4]
  401a22:	6c9b      	ldr	r3, [r3, #72]	; 0x48
}
  401a24:	4618      	mov	r0, r3
  401a26:	370c      	adds	r7, #12
  401a28:	46bd      	mov	sp, r7
  401a2a:	f85d 7b04 	ldr.w	r7, [sp], #4
  401a2e:	4770      	bx	lr

00401a30 <pio_configure_pin>:
 * \param ul_flags Pins attributes.
 *
 * \return Whether the pin(s) have been configured properly.
 */
uint32_t pio_configure_pin(uint32_t ul_pin, const uint32_t ul_flags)
{
  401a30:	b590      	push	{r4, r7, lr}
  401a32:	b087      	sub	sp, #28
  401a34:	af02      	add	r7, sp, #8
  401a36:	6078      	str	r0, [r7, #4]
  401a38:	6039      	str	r1, [r7, #0]
	Pio *p_pio = pio_get_pin_group(ul_pin);
  401a3a:	6878      	ldr	r0, [r7, #4]
  401a3c:	4b65      	ldr	r3, [pc, #404]	; (401bd4 <pio_configure_pin+0x1a4>)
  401a3e:	4798      	blx	r3
  401a40:	60f8      	str	r0, [r7, #12]

	/* Configure pins */
	switch (ul_flags & PIO_TYPE_Msk) {
  401a42:	683b      	ldr	r3, [r7, #0]
  401a44:	f003 43f0 	and.w	r3, r3, #2013265920	; 0x78000000
  401a48:	f1b3 5f00 	cmp.w	r3, #536870912	; 0x20000000
  401a4c:	d06b      	beq.n	401b26 <pio_configure_pin+0xf6>
  401a4e:	f1b3 5f00 	cmp.w	r3, #536870912	; 0x20000000
  401a52:	d809      	bhi.n	401a68 <pio_configure_pin+0x38>
  401a54:	f1b3 5f80 	cmp.w	r3, #268435456	; 0x10000000
  401a58:	d02d      	beq.n	401ab6 <pio_configure_pin+0x86>
  401a5a:	f1b3 5fc0 	cmp.w	r3, #402653184	; 0x18000000
  401a5e:	d046      	beq.n	401aee <pio_configure_pin+0xbe>
  401a60:	f1b3 6f00 	cmp.w	r3, #134217728	; 0x8000000
  401a64:	d00b      	beq.n	401a7e <pio_configure_pin+0x4e>
  401a66:	e0ae      	b.n	401bc6 <pio_configure_pin+0x196>
  401a68:	f1b3 5f40 	cmp.w	r3, #805306368	; 0x30000000
  401a6c:	f000 8083 	beq.w	401b76 <pio_configure_pin+0x146>
  401a70:	f1b3 5f60 	cmp.w	r3, #939524096	; 0x38000000
  401a74:	d07f      	beq.n	401b76 <pio_configure_pin+0x146>
  401a76:	f1b3 5f20 	cmp.w	r3, #671088640	; 0x28000000
  401a7a:	d070      	beq.n	401b5e <pio_configure_pin+0x12e>
  401a7c:	e0a3      	b.n	401bc6 <pio_configure_pin+0x196>
	case PIO_TYPE_PIO_PERIPH_A:
		pio_set_peripheral(p_pio, PIO_PERIPH_A, (1 << (ul_pin & 0x1F)));
  401a7e:	687b      	ldr	r3, [r7, #4]
  401a80:	f003 031f 	and.w	r3, r3, #31
  401a84:	2201      	movs	r2, #1
  401a86:	fa02 f303 	lsl.w	r3, r2, r3
  401a8a:	68f8      	ldr	r0, [r7, #12]
  401a8c:	f04f 6100 	mov.w	r1, #134217728	; 0x8000000
  401a90:	461a      	mov	r2, r3
  401a92:	4b51      	ldr	r3, [pc, #324]	; (401bd8 <pio_configure_pin+0x1a8>)
  401a94:	4798      	blx	r3
		pio_pull_up(p_pio, (1 << (ul_pin & 0x1F)),
  401a96:	687b      	ldr	r3, [r7, #4]
  401a98:	f003 031f 	and.w	r3, r3, #31
  401a9c:	2201      	movs	r2, #1
  401a9e:	fa02 f303 	lsl.w	r3, r2, r3
  401aa2:	461a      	mov	r2, r3
  401aa4:	683b      	ldr	r3, [r7, #0]
  401aa6:	f003 0301 	and.w	r3, r3, #1
  401aaa:	68f8      	ldr	r0, [r7, #12]
  401aac:	4611      	mov	r1, r2
  401aae:	461a      	mov	r2, r3
  401ab0:	4b4a      	ldr	r3, [pc, #296]	; (401bdc <pio_configure_pin+0x1ac>)
  401ab2:	4798      	blx	r3
				(ul_flags & PIO_PULLUP));
		break;
  401ab4:	e089      	b.n	401bca <pio_configure_pin+0x19a>
	case PIO_TYPE_PIO_PERIPH_B:
		pio_set_peripheral(p_pio, PIO_PERIPH_B, (1 << (ul_pin & 0x1F)));
  401ab6:	687b      	ldr	r3, [r7, #4]
  401ab8:	f003 031f 	and.w	r3, r3, #31
  401abc:	2201      	movs	r2, #1
  401abe:	fa02 f303 	lsl.w	r3, r2, r3
  401ac2:	68f8      	ldr	r0, [r7, #12]
  401ac4:	f04f 5180 	mov.w	r1, #268435456	; 0x10000000
  401ac8:	461a      	mov	r2, r3
  401aca:	4b43      	ldr	r3, [pc, #268]	; (401bd8 <pio_configure_pin+0x1a8>)
  401acc:	4798      	blx	r3
		pio_pull_up(p_pio, (1 << (ul_pin & 0x1F)),
  401ace:	687b      	ldr	r3, [r7, #4]
  401ad0:	f003 031f 	and.w	r3, r3, #31
  401ad4:	2201      	movs	r2, #1
  401ad6:	fa02 f303 	lsl.w	r3, r2, r3
  401ada:	461a      	mov	r2, r3
  401adc:	683b      	ldr	r3, [r7, #0]
  401ade:	f003 0301 	and.w	r3, r3, #1
  401ae2:	68f8      	ldr	r0, [r7, #12]
  401ae4:	4611      	mov	r1, r2
  401ae6:	461a      	mov	r2, r3
  401ae8:	4b3c      	ldr	r3, [pc, #240]	; (401bdc <pio_configure_pin+0x1ac>)
  401aea:	4798      	blx	r3
				(ul_flags & PIO_PULLUP));
		break;
  401aec:	e06d      	b.n	401bca <pio_configure_pin+0x19a>
#if (SAM3S || SAM3N || SAM4S || SAM4E || SAM4N || SAM4C || SAM4CP || SAM4CM || SAMV71 || SAMV70 || SAME70 || SAMS70)
	case PIO_TYPE_PIO_PERIPH_C:
		pio_set_peripheral(p_pio, PIO_PERIPH_C, (1 << (ul_pin & 0x1F)));
  401aee:	687b      	ldr	r3, [r7, #4]
  401af0:	f003 031f 	and.w	r3, r3, #31
  401af4:	2201      	movs	r2, #1
  401af6:	fa02 f303 	lsl.w	r3, r2, r3
  401afa:	68f8      	ldr	r0, [r7, #12]
  401afc:	f04f 51c0 	mov.w	r1, #402653184	; 0x18000000
  401b00:	461a      	mov	r2, r3
  401b02:	4b35      	ldr	r3, [pc, #212]	; (401bd8 <pio_configure_pin+0x1a8>)
  401b04:	4798      	blx	r3
		pio_pull_up(p_pio, (1 << (ul_pin & 0x1F)),
  401b06:	687b      	ldr	r3, [r7, #4]
  401b08:	f003 031f 	and.w	r3, r3, #31
  401b0c:	2201      	movs	r2, #1
  401b0e:	fa02 f303 	lsl.w	r3, r2, r3
  401b12:	461a      	mov	r2, r3
  401b14:	683b      	ldr	r3, [r7, #0]
  401b16:	f003 0301 	and.w	r3, r3, #1
  401b1a:	68f8      	ldr	r0, [r7, #12]
  401b1c:	4611      	mov	r1, r2
  401b1e:	461a      	mov	r2, r3
  401b20:	4b2e      	ldr	r3, [pc, #184]	; (401bdc <pio_configure_pin+0x1ac>)
  401b22:	4798      	blx	r3
				(ul_flags & PIO_PULLUP));
		break;
  401b24:	e051      	b.n	401bca <pio_configure_pin+0x19a>
	case PIO_TYPE_PIO_PERIPH_D:
		pio_set_peripheral(p_pio, PIO_PERIPH_D, (1 << (ul_pin & 0x1F)));
  401b26:	687b      	ldr	r3, [r7, #4]
  401b28:	f003 031f 	and.w	r3, r3, #31
  401b2c:	2201      	movs	r2, #1
  401b2e:	fa02 f303 	lsl.w	r3, r2, r3
  401b32:	68f8      	ldr	r0, [r7, #12]
  401b34:	f04f 5100 	mov.w	r1, #536870912	; 0x20000000
  401b38:	461a      	mov	r2, r3
  401b3a:	4b27      	ldr	r3, [pc, #156]	; (401bd8 <pio_configure_pin+0x1a8>)
  401b3c:	4798      	blx	r3
		pio_pull_up(p_pio, (1 << (ul_pin & 0x1F)),
  401b3e:	687b      	ldr	r3, [r7, #4]
  401b40:	f003 031f 	and.w	r3, r3, #31
  401b44:	2201      	movs	r2, #1
  401b46:	fa02 f303 	lsl.w	r3, r2, r3
  401b4a:	461a      	mov	r2, r3
  401b4c:	683b      	ldr	r3, [r7, #0]
  401b4e:	f003 0301 	and.w	r3, r3, #1
  401b52:	68f8      	ldr	r0, [r7, #12]
  401b54:	4611      	mov	r1, r2
  401b56:	461a      	mov	r2, r3
  401b58:	4b20      	ldr	r3, [pc, #128]	; (401bdc <pio_configure_pin+0x1ac>)
  401b5a:	4798      	blx	r3
				(ul_flags & PIO_PULLUP));
		break;
  401b5c:	e035      	b.n	401bca <pio_configure_pin+0x19a>
#endif

	case PIO_TYPE_PIO_INPUT:
		pio_set_input(p_pio, (1 << (ul_pin & 0x1F)), ul_flags);
  401b5e:	687b      	ldr	r3, [r7, #4]
  401b60:	f003 031f 	and.w	r3, r3, #31
  401b64:	2201      	movs	r2, #1
  401b66:	fa02 f303 	lsl.w	r3, r2, r3
  401b6a:	68f8      	ldr	r0, [r7, #12]
  401b6c:	4619      	mov	r1, r3
  401b6e:	683a      	ldr	r2, [r7, #0]
  401b70:	4b1b      	ldr	r3, [pc, #108]	; (401be0 <pio_configure_pin+0x1b0>)
  401b72:	4798      	blx	r3
		break;
  401b74:	e029      	b.n	401bca <pio_configure_pin+0x19a>

	case PIO_TYPE_PIO_OUTPUT_0:
	case PIO_TYPE_PIO_OUTPUT_1:
		pio_set_output(p_pio, (1 << (ul_pin & 0x1F)),
  401b76:	687b      	ldr	r3, [r7, #4]
  401b78:	f003 031f 	and.w	r3, r3, #31
  401b7c:	2201      	movs	r2, #1
  401b7e:	fa02 f303 	lsl.w	r3, r2, r3
  401b82:	4619      	mov	r1, r3
				((ul_flags & PIO_TYPE_PIO_OUTPUT_1)
  401b84:	683b      	ldr	r3, [r7, #0]
  401b86:	f003 5360 	and.w	r3, r3, #939524096	; 0x38000000
		pio_set_input(p_pio, (1 << (ul_pin & 0x1F)), ul_flags);
		break;

	case PIO_TYPE_PIO_OUTPUT_0:
	case PIO_TYPE_PIO_OUTPUT_1:
		pio_set_output(p_pio, (1 << (ul_pin & 0x1F)),
  401b8a:	f1b3 5f60 	cmp.w	r3, #939524096	; 0x38000000
  401b8e:	bf0c      	ite	eq
  401b90:	2301      	moveq	r3, #1
  401b92:	2300      	movne	r3, #0
  401b94:	b2db      	uxtb	r3, r3
  401b96:	461a      	mov	r2, r3
				((ul_flags & PIO_TYPE_PIO_OUTPUT_1)
				== PIO_TYPE_PIO_OUTPUT_1) ? 1 : 0,
				(ul_flags & PIO_OPENDRAIN) ? 1 : 0,
  401b98:	683b      	ldr	r3, [r7, #0]
  401b9a:	f003 0304 	and.w	r3, r3, #4
		pio_set_input(p_pio, (1 << (ul_pin & 0x1F)), ul_flags);
		break;

	case PIO_TYPE_PIO_OUTPUT_0:
	case PIO_TYPE_PIO_OUTPUT_1:
		pio_set_output(p_pio, (1 << (ul_pin & 0x1F)),
  401b9e:	2b00      	cmp	r3, #0
  401ba0:	bf14      	ite	ne
  401ba2:	2301      	movne	r3, #1
  401ba4:	2300      	moveq	r3, #0
  401ba6:	b2db      	uxtb	r3, r3
  401ba8:	461c      	mov	r4, r3
				((ul_flags & PIO_TYPE_PIO_OUTPUT_1)
				== PIO_TYPE_PIO_OUTPUT_1) ? 1 : 0,
				(ul_flags & PIO_OPENDRAIN) ? 1 : 0,
				(ul_flags & PIO_PULLUP) ? 1 : 0);
  401baa:	683b      	ldr	r3, [r7, #0]
  401bac:	f003 0301 	and.w	r3, r3, #1
		pio_set_input(p_pio, (1 << (ul_pin & 0x1F)), ul_flags);
		break;

	case PIO_TYPE_PIO_OUTPUT_0:
	case PIO_TYPE_PIO_OUTPUT_1:
		pio_set_output(p_pio, (1 << (ul_pin & 0x1F)),
  401bb0:	2b00      	cmp	r3, #0
  401bb2:	bf14      	ite	ne
  401bb4:	2301      	movne	r3, #1
  401bb6:	2300      	moveq	r3, #0
  401bb8:	b2db      	uxtb	r3, r3
  401bba:	9300      	str	r3, [sp, #0]
  401bbc:	68f8      	ldr	r0, [r7, #12]
  401bbe:	4623      	mov	r3, r4
  401bc0:	4c08      	ldr	r4, [pc, #32]	; (401be4 <pio_configure_pin+0x1b4>)
  401bc2:	47a0      	blx	r4
				((ul_flags & PIO_TYPE_PIO_OUTPUT_1)
				== PIO_TYPE_PIO_OUTPUT_1) ? 1 : 0,
				(ul_flags & PIO_OPENDRAIN) ? 1 : 0,
				(ul_flags & PIO_PULLUP) ? 1 : 0);
		break;
  401bc4:	e001      	b.n	401bca <pio_configure_pin+0x19a>

	default:
		return 0;
  401bc6:	2300      	movs	r3, #0
  401bc8:	e000      	b.n	401bcc <pio_configure_pin+0x19c>
	}

	return 1;
  401bca:	2301      	movs	r3, #1
}
  401bcc:	4618      	mov	r0, r3
  401bce:	3714      	adds	r7, #20
  401bd0:	46bd      	mov	sp, r7
  401bd2:	bd90      	pop	{r4, r7, pc}
  401bd4:	00401d15 	.word	0x00401d15
  401bd8:	004017f5 	.word	0x004017f5
  401bdc:	004017c9 	.word	0x004017c9
  401be0:	00401905 	.word	0x00401905
  401be4:	00401981 	.word	0x00401981

00401be8 <pio_configure_pin_group>:
 *
 * \return Whether the pin(s) have been configured properly.
 */
uint32_t pio_configure_pin_group(Pio *p_pio,
		uint32_t ul_mask, const uint32_t ul_flags)
{
  401be8:	b590      	push	{r4, r7, lr}
  401bea:	b087      	sub	sp, #28
  401bec:	af02      	add	r7, sp, #8
  401bee:	60f8      	str	r0, [r7, #12]
  401bf0:	60b9      	str	r1, [r7, #8]
  401bf2:	607a      	str	r2, [r7, #4]
	/* Configure pins */
	switch (ul_flags & PIO_TYPE_Msk) {
  401bf4:	687b      	ldr	r3, [r7, #4]
  401bf6:	f003 43f0 	and.w	r3, r3, #2013265920	; 0x78000000
  401bfa:	f1b3 5f00 	cmp.w	r3, #536870912	; 0x20000000
  401bfe:	d043      	beq.n	401c88 <pio_configure_pin_group+0xa0>
  401c00:	f1b3 5f00 	cmp.w	r3, #536870912	; 0x20000000
  401c04:	d809      	bhi.n	401c1a <pio_configure_pin_group+0x32>
  401c06:	f1b3 5f80 	cmp.w	r3, #268435456	; 0x10000000
  401c0a:	d01f      	beq.n	401c4c <pio_configure_pin_group+0x64>
  401c0c:	f1b3 5fc0 	cmp.w	r3, #402653184	; 0x18000000
  401c10:	d02b      	beq.n	401c6a <pio_configure_pin_group+0x82>
  401c12:	f1b3 6f00 	cmp.w	r3, #134217728	; 0x8000000
  401c16:	d00a      	beq.n	401c2e <pio_configure_pin_group+0x46>
  401c18:	e06d      	b.n	401cf6 <pio_configure_pin_group+0x10e>
  401c1a:	f1b3 5f40 	cmp.w	r3, #805306368	; 0x30000000
  401c1e:	d048      	beq.n	401cb2 <pio_configure_pin_group+0xca>
  401c20:	f1b3 5f60 	cmp.w	r3, #939524096	; 0x38000000
  401c24:	d045      	beq.n	401cb2 <pio_configure_pin_group+0xca>
  401c26:	f1b3 5f20 	cmp.w	r3, #671088640	; 0x28000000
  401c2a:	d03c      	beq.n	401ca6 <pio_configure_pin_group+0xbe>
  401c2c:	e063      	b.n	401cf6 <pio_configure_pin_group+0x10e>
	case PIO_TYPE_PIO_PERIPH_A:
		pio_set_peripheral(p_pio, PIO_PERIPH_A, ul_mask);
  401c2e:	68f8      	ldr	r0, [r7, #12]
  401c30:	f04f 6100 	mov.w	r1, #134217728	; 0x8000000
  401c34:	68ba      	ldr	r2, [r7, #8]
  401c36:	4b33      	ldr	r3, [pc, #204]	; (401d04 <pio_configure_pin_group+0x11c>)
  401c38:	4798      	blx	r3
		pio_pull_up(p_pio, ul_mask, (ul_flags & PIO_PULLUP));
  401c3a:	687b      	ldr	r3, [r7, #4]
  401c3c:	f003 0301 	and.w	r3, r3, #1
  401c40:	68f8      	ldr	r0, [r7, #12]
  401c42:	68b9      	ldr	r1, [r7, #8]
  401c44:	461a      	mov	r2, r3
  401c46:	4b30      	ldr	r3, [pc, #192]	; (401d08 <pio_configure_pin_group+0x120>)
  401c48:	4798      	blx	r3
		break;
  401c4a:	e056      	b.n	401cfa <pio_configure_pin_group+0x112>
	case PIO_TYPE_PIO_PERIPH_B:
		pio_set_peripheral(p_pio, PIO_PERIPH_B, ul_mask);
  401c4c:	68f8      	ldr	r0, [r7, #12]
  401c4e:	f04f 5180 	mov.w	r1, #268435456	; 0x10000000
  401c52:	68ba      	ldr	r2, [r7, #8]
  401c54:	4b2b      	ldr	r3, [pc, #172]	; (401d04 <pio_configure_pin_group+0x11c>)
  401c56:	4798      	blx	r3
		pio_pull_up(p_pio, ul_mask, (ul_flags & PIO_PULLUP));
  401c58:	687b      	ldr	r3, [r7, #4]
  401c5a:	f003 0301 	and.w	r3, r3, #1
  401c5e:	68f8      	ldr	r0, [r7, #12]
  401c60:	68b9      	ldr	r1, [r7, #8]
  401c62:	461a      	mov	r2, r3
  401c64:	4b28      	ldr	r3, [pc, #160]	; (401d08 <pio_configure_pin_group+0x120>)
  401c66:	4798      	blx	r3
		break;
  401c68:	e047      	b.n	401cfa <pio_configure_pin_group+0x112>
#if (SAM3S || SAM3N || SAM4S || SAM4E || SAM4N || SAM4C || SAM4CP || SAM4CM || SAMV71 || SAMV70 || SAME70 || SAMS70)
	case PIO_TYPE_PIO_PERIPH_C:
		pio_set_peripheral(p_pio, PIO_PERIPH_C, ul_mask);
  401c6a:	68f8      	ldr	r0, [r7, #12]
  401c6c:	f04f 51c0 	mov.w	r1, #402653184	; 0x18000000
  401c70:	68ba      	ldr	r2, [r7, #8]
  401c72:	4b24      	ldr	r3, [pc, #144]	; (401d04 <pio_configure_pin_group+0x11c>)
  401c74:	4798      	blx	r3
		pio_pull_up(p_pio, ul_mask, (ul_flags & PIO_PULLUP));
  401c76:	687b      	ldr	r3, [r7, #4]
  401c78:	f003 0301 	and.w	r3, r3, #1
  401c7c:	68f8      	ldr	r0, [r7, #12]
  401c7e:	68b9      	ldr	r1, [r7, #8]
  401c80:	461a      	mov	r2, r3
  401c82:	4b21      	ldr	r3, [pc, #132]	; (401d08 <pio_configure_pin_group+0x120>)
  401c84:	4798      	blx	r3
		break;
  401c86:	e038      	b.n	401cfa <pio_configure_pin_group+0x112>
	case PIO_TYPE_PIO_PERIPH_D:
		pio_set_peripheral(p_pio, PIO_PERIPH_D, ul_mask);
  401c88:	68f8      	ldr	r0, [r7, #12]
  401c8a:	f04f 5100 	mov.w	r1, #536870912	; 0x20000000
  401c8e:	68ba      	ldr	r2, [r7, #8]
  401c90:	4b1c      	ldr	r3, [pc, #112]	; (401d04 <pio_configure_pin_group+0x11c>)
  401c92:	4798      	blx	r3
		pio_pull_up(p_pio, ul_mask, (ul_flags & PIO_PULLUP));
  401c94:	687b      	ldr	r3, [r7, #4]
  401c96:	f003 0301 	and.w	r3, r3, #1
  401c9a:	68f8      	ldr	r0, [r7, #12]
  401c9c:	68b9      	ldr	r1, [r7, #8]
  401c9e:	461a      	mov	r2, r3
  401ca0:	4b19      	ldr	r3, [pc, #100]	; (401d08 <pio_configure_pin_group+0x120>)
  401ca2:	4798      	blx	r3
		break;
  401ca4:	e029      	b.n	401cfa <pio_configure_pin_group+0x112>
#endif

	case PIO_TYPE_PIO_INPUT:
		pio_set_input(p_pio, ul_mask, ul_flags);
  401ca6:	68f8      	ldr	r0, [r7, #12]
  401ca8:	68b9      	ldr	r1, [r7, #8]
  401caa:	687a      	ldr	r2, [r7, #4]
  401cac:	4b17      	ldr	r3, [pc, #92]	; (401d0c <pio_configure_pin_group+0x124>)
  401cae:	4798      	blx	r3
		break;
  401cb0:	e023      	b.n	401cfa <pio_configure_pin_group+0x112>

	case PIO_TYPE_PIO_OUTPUT_0:
	case PIO_TYPE_PIO_OUTPUT_1:
		pio_set_output(p_pio, ul_mask,
				((ul_flags & PIO_TYPE_PIO_OUTPUT_1)
  401cb2:	687b      	ldr	r3, [r7, #4]
  401cb4:	f003 5360 	and.w	r3, r3, #939524096	; 0x38000000
		pio_set_input(p_pio, ul_mask, ul_flags);
		break;

	case PIO_TYPE_PIO_OUTPUT_0:
	case PIO_TYPE_PIO_OUTPUT_1:
		pio_set_output(p_pio, ul_mask,
  401cb8:	f1b3 5f60 	cmp.w	r3, #939524096	; 0x38000000
  401cbc:	bf0c      	ite	eq
  401cbe:	2301      	moveq	r3, #1
  401cc0:	2300      	movne	r3, #0
  401cc2:	b2db      	uxtb	r3, r3
  401cc4:	461a      	mov	r2, r3
				((ul_flags & PIO_TYPE_PIO_OUTPUT_1)
				== PIO_TYPE_PIO_OUTPUT_1) ? 1 : 0,
				(ul_flags & PIO_OPENDRAIN) ? 1 : 0,
  401cc6:	687b      	ldr	r3, [r7, #4]
  401cc8:	f003 0304 	and.w	r3, r3, #4
		pio_set_input(p_pio, ul_mask, ul_flags);
		break;

	case PIO_TYPE_PIO_OUTPUT_0:
	case PIO_TYPE_PIO_OUTPUT_1:
		pio_set_output(p_pio, ul_mask,
  401ccc:	2b00      	cmp	r3, #0
  401cce:	bf14      	ite	ne
  401cd0:	2301      	movne	r3, #1
  401cd2:	2300      	moveq	r3, #0
  401cd4:	b2db      	uxtb	r3, r3
  401cd6:	461c      	mov	r4, r3
				((ul_flags & PIO_TYPE_PIO_OUTPUT_1)
				== PIO_TYPE_PIO_OUTPUT_1) ? 1 : 0,
				(ul_flags & PIO_OPENDRAIN) ? 1 : 0,
				(ul_flags & PIO_PULLUP) ? 1 : 0);
  401cd8:	687b      	ldr	r3, [r7, #4]
  401cda:	f003 0301 	and.w	r3, r3, #1
		pio_set_input(p_pio, ul_mask, ul_flags);
		break;

	case PIO_TYPE_PIO_OUTPUT_0:
	case PIO_TYPE_PIO_OUTPUT_1:
		pio_set_output(p_pio, ul_mask,
  401cde:	2b00      	cmp	r3, #0
  401ce0:	bf14      	ite	ne
  401ce2:	2301      	movne	r3, #1
  401ce4:	2300      	moveq	r3, #0
  401ce6:	b2db      	uxtb	r3, r3
  401ce8:	9300      	str	r3, [sp, #0]
  401cea:	68f8      	ldr	r0, [r7, #12]
  401cec:	68b9      	ldr	r1, [r7, #8]
  401cee:	4623      	mov	r3, r4
  401cf0:	4c07      	ldr	r4, [pc, #28]	; (401d10 <pio_configure_pin_group+0x128>)
  401cf2:	47a0      	blx	r4
				((ul_flags & PIO_TYPE_PIO_OUTPUT_1)
				== PIO_TYPE_PIO_OUTPUT_1) ? 1 : 0,
				(ul_flags & PIO_OPENDRAIN) ? 1 : 0,
				(ul_flags & PIO_PULLUP) ? 1 : 0);
		break;
  401cf4:	e001      	b.n	401cfa <pio_configure_pin_group+0x112>

	default:
		return 0;
  401cf6:	2300      	movs	r3, #0
  401cf8:	e000      	b.n	401cfc <pio_configure_pin_group+0x114>
	}

	return 1;
  401cfa:	2301      	movs	r3, #1
}
  401cfc:	4618      	mov	r0, r3
  401cfe:	3714      	adds	r7, #20
  401d00:	46bd      	mov	sp, r7
  401d02:	bd90      	pop	{r4, r7, pc}
  401d04:	004017f5 	.word	0x004017f5
  401d08:	004017c9 	.word	0x004017c9
  401d0c:	00401905 	.word	0x00401905
  401d10:	00401981 	.word	0x00401981

00401d14 <pio_get_pin_group>:
 * \param ul_pin The pin index.
 *
 * \return Pointer to \ref Pio struct for GPIO port.
 */
Pio *pio_get_pin_group(uint32_t ul_pin)
{
  401d14:	b480      	push	{r7}
  401d16:	b085      	sub	sp, #20
  401d18:	af00      	add	r7, sp, #0
  401d1a:	6078      	str	r0, [r7, #4]
		p_pio = PIOC;
	} else {
		p_pio = (Pio *)((uint32_t)PIOA + (PIO_DELTA * (ul_pin >> 5)));
	}
#else
	p_pio = (Pio *)((uint32_t)PIOA + (PIO_DELTA * (ul_pin >> 5)));
  401d1c:	687b      	ldr	r3, [r7, #4]
  401d1e:	095b      	lsrs	r3, r3, #5
  401d20:	f503 1300 	add.w	r3, r3, #2097152	; 0x200000
  401d24:	f203 7307 	addw	r3, r3, #1799	; 0x707
  401d28:	025b      	lsls	r3, r3, #9
  401d2a:	60fb      	str	r3, [r7, #12]
#endif
	return p_pio;
  401d2c:	68fb      	ldr	r3, [r7, #12]
}
  401d2e:	4618      	mov	r0, r3
  401d30:	3714      	adds	r7, #20
  401d32:	46bd      	mov	sp, r7
  401d34:	f85d 7b04 	ldr.w	r7, [sp], #4
  401d38:	4770      	bx	lr
  401d3a:	bf00      	nop

00401d3c <pio_handler_process>:
 *
 * \param p_pio PIO controller base address.
 * \param ul_id PIO controller ID.
 */
void pio_handler_process(Pio *p_pio, uint32_t ul_id)
{
  401d3c:	b580      	push	{r7, lr}
  401d3e:	b084      	sub	sp, #16
  401d40:	af00      	add	r7, sp, #0
  401d42:	6078      	str	r0, [r7, #4]
  401d44:	6039      	str	r1, [r7, #0]
	uint32_t status;
	uint32_t i;

	/* Read PIO controller status */
	status = pio_get_interrupt_status(p_pio);
  401d46:	6878      	ldr	r0, [r7, #4]
  401d48:	4b2a      	ldr	r3, [pc, #168]	; (401df4 <pio_handler_process+0xb8>)
  401d4a:	4798      	blx	r3
  401d4c:	60f8      	str	r0, [r7, #12]
	status &= pio_get_interrupt_mask(p_pio);
  401d4e:	6878      	ldr	r0, [r7, #4]
  401d50:	4b29      	ldr	r3, [pc, #164]	; (401df8 <pio_handler_process+0xbc>)
  401d52:	4798      	blx	r3
  401d54:	4602      	mov	r2, r0
  401d56:	68fb      	ldr	r3, [r7, #12]
  401d58:	4013      	ands	r3, r2
  401d5a:	60fb      	str	r3, [r7, #12]

	/* Check pending events */
	if (status != 0) {
  401d5c:	68fb      	ldr	r3, [r7, #12]
  401d5e:	2b00      	cmp	r3, #0
  401d60:	d038      	beq.n	401dd4 <pio_handler_process+0x98>
		/* Find triggering source */
		i = 0;
  401d62:	2300      	movs	r3, #0
  401d64:	60bb      	str	r3, [r7, #8]
		while (status != 0) {
  401d66:	e032      	b.n	401dce <pio_handler_process+0x92>
			/* Source is configured on the same controller */
			if (gs_interrupt_sources[i].id == ul_id) {
  401d68:	4a24      	ldr	r2, [pc, #144]	; (401dfc <pio_handler_process+0xc0>)
  401d6a:	68bb      	ldr	r3, [r7, #8]
  401d6c:	011b      	lsls	r3, r3, #4
  401d6e:	4413      	add	r3, r2
  401d70:	681a      	ldr	r2, [r3, #0]
  401d72:	683b      	ldr	r3, [r7, #0]
  401d74:	429a      	cmp	r2, r3
  401d76:	d123      	bne.n	401dc0 <pio_handler_process+0x84>
				/* Source has PIOs whose statuses have changed */
				if ((status & gs_interrupt_sources[i].mask) != 0) {
  401d78:	4a20      	ldr	r2, [pc, #128]	; (401dfc <pio_handler_process+0xc0>)
  401d7a:	68bb      	ldr	r3, [r7, #8]
  401d7c:	011b      	lsls	r3, r3, #4
  401d7e:	4413      	add	r3, r2
  401d80:	685a      	ldr	r2, [r3, #4]
  401d82:	68fb      	ldr	r3, [r7, #12]
  401d84:	4013      	ands	r3, r2
  401d86:	2b00      	cmp	r3, #0
  401d88:	d01a      	beq.n	401dc0 <pio_handler_process+0x84>
					gs_interrupt_sources[i].handler(gs_interrupt_sources[i].id,
  401d8a:	4a1c      	ldr	r2, [pc, #112]	; (401dfc <pio_handler_process+0xc0>)
  401d8c:	68bb      	ldr	r3, [r7, #8]
  401d8e:	011b      	lsls	r3, r3, #4
  401d90:	4413      	add	r3, r2
  401d92:	3308      	adds	r3, #8
  401d94:	685b      	ldr	r3, [r3, #4]
  401d96:	4919      	ldr	r1, [pc, #100]	; (401dfc <pio_handler_process+0xc0>)
  401d98:	68ba      	ldr	r2, [r7, #8]
  401d9a:	0112      	lsls	r2, r2, #4
  401d9c:	440a      	add	r2, r1
  401d9e:	6810      	ldr	r0, [r2, #0]
  401da0:	4916      	ldr	r1, [pc, #88]	; (401dfc <pio_handler_process+0xc0>)
  401da2:	68ba      	ldr	r2, [r7, #8]
  401da4:	0112      	lsls	r2, r2, #4
  401da6:	440a      	add	r2, r1
  401da8:	6852      	ldr	r2, [r2, #4]
  401daa:	4611      	mov	r1, r2
  401dac:	4798      	blx	r3
							gs_interrupt_sources[i].mask);
					status &= ~(gs_interrupt_sources[i].mask);
  401dae:	4a13      	ldr	r2, [pc, #76]	; (401dfc <pio_handler_process+0xc0>)
  401db0:	68bb      	ldr	r3, [r7, #8]
  401db2:	011b      	lsls	r3, r3, #4
  401db4:	4413      	add	r3, r2
  401db6:	685b      	ldr	r3, [r3, #4]
  401db8:	43db      	mvns	r3, r3
  401dba:	68fa      	ldr	r2, [r7, #12]
  401dbc:	4013      	ands	r3, r2
  401dbe:	60fb      	str	r3, [r7, #12]
				}
			}
			i++;
  401dc0:	68bb      	ldr	r3, [r7, #8]
  401dc2:	3301      	adds	r3, #1
  401dc4:	60bb      	str	r3, [r7, #8]
			if (i >= MAX_INTERRUPT_SOURCES) {
  401dc6:	68bb      	ldr	r3, [r7, #8]
  401dc8:	2b06      	cmp	r3, #6
  401dca:	d900      	bls.n	401dce <pio_handler_process+0x92>
				break;
  401dcc:	e002      	b.n	401dd4 <pio_handler_process+0x98>

	/* Check pending events */
	if (status != 0) {
		/* Find triggering source */
		i = 0;
		while (status != 0) {
  401dce:	68fb      	ldr	r3, [r7, #12]
  401dd0:	2b00      	cmp	r3, #0
  401dd2:	d1c9      	bne.n	401d68 <pio_handler_process+0x2c>
		}
	}

	/* Check capture events */
#if (SAM3S || SAM4S || SAM4E)
	if (pio_capture_enable_flag) {
  401dd4:	4b0a      	ldr	r3, [pc, #40]	; (401e00 <pio_handler_process+0xc4>)
  401dd6:	681b      	ldr	r3, [r3, #0]
  401dd8:	2b00      	cmp	r3, #0
  401dda:	d007      	beq.n	401dec <pio_handler_process+0xb0>
		if (pio_capture_handler) {
  401ddc:	4b09      	ldr	r3, [pc, #36]	; (401e04 <pio_handler_process+0xc8>)
  401dde:	681b      	ldr	r3, [r3, #0]
  401de0:	2b00      	cmp	r3, #0
  401de2:	d003      	beq.n	401dec <pio_handler_process+0xb0>
			pio_capture_handler(p_pio);
  401de4:	4b07      	ldr	r3, [pc, #28]	; (401e04 <pio_handler_process+0xc8>)
  401de6:	681b      	ldr	r3, [r3, #0]
  401de8:	6878      	ldr	r0, [r7, #4]
  401dea:	4798      	blx	r3
		}
	}
#endif
}
  401dec:	3710      	adds	r7, #16
  401dee:	46bd      	mov	sp, r7
  401df0:	bd80      	pop	{r7, pc}
  401df2:	bf00      	nop
  401df4:	00401a01 	.word	0x00401a01
  401df8:	00401a19 	.word	0x00401a19
  401dfc:	20000c64 	.word	0x20000c64
  401e00:	20000d20 	.word	0x20000d20
  401e04:	20000cd4 	.word	0x20000cd4

00401e08 <PIOA_Handler>:
/**
 * \brief Parallel IO Controller A interrupt handler.
 * Redefined PIOA interrupt handler for NVIC interrupt table.
 */
void PIOA_Handler(void)
{
  401e08:	b580      	push	{r7, lr}
  401e0a:	af00      	add	r7, sp, #0
	pio_handler_process(PIOA, ID_PIOA);
  401e0c:	4802      	ldr	r0, [pc, #8]	; (401e18 <PIOA_Handler+0x10>)
  401e0e:	210b      	movs	r1, #11
  401e10:	4b02      	ldr	r3, [pc, #8]	; (401e1c <PIOA_Handler+0x14>)
  401e12:	4798      	blx	r3
}
  401e14:	bd80      	pop	{r7, pc}
  401e16:	bf00      	nop
  401e18:	400e0e00 	.word	0x400e0e00
  401e1c:	00401d3d 	.word	0x00401d3d

00401e20 <PIOB_Handler>:
/**
 * \brief Parallel IO Controller B interrupt handler
 * Redefined PIOB interrupt handler for NVIC interrupt table.
 */
void PIOB_Handler(void)
{
  401e20:	b580      	push	{r7, lr}
  401e22:	af00      	add	r7, sp, #0
    pio_handler_process(PIOB, ID_PIOB);
  401e24:	4802      	ldr	r0, [pc, #8]	; (401e30 <PIOB_Handler+0x10>)
  401e26:	210c      	movs	r1, #12
  401e28:	4b02      	ldr	r3, [pc, #8]	; (401e34 <PIOB_Handler+0x14>)
  401e2a:	4798      	blx	r3
}
  401e2c:	bd80      	pop	{r7, pc}
  401e2e:	bf00      	nop
  401e30:	400e1000 	.word	0x400e1000
  401e34:	00401d3d 	.word	0x00401d3d

00401e38 <PIOC_Handler>:
/**
 * \brief Parallel IO Controller C interrupt handler.
 * Redefined PIOC interrupt handler for NVIC interrupt table.
 */
void PIOC_Handler(void)
{
  401e38:	b580      	push	{r7, lr}
  401e3a:	af00      	add	r7, sp, #0
	pio_handler_process(PIOC, ID_PIOC);
  401e3c:	4802      	ldr	r0, [pc, #8]	; (401e48 <PIOC_Handler+0x10>)
  401e3e:	210d      	movs	r1, #13
  401e40:	4b02      	ldr	r3, [pc, #8]	; (401e4c <PIOC_Handler+0x14>)
  401e42:	4798      	blx	r3
}
  401e44:	bd80      	pop	{r7, pc}
  401e46:	bf00      	nop
  401e48:	400e1200 	.word	0x400e1200
  401e4c:	00401d3d 	.word	0x00401d3d

00401e50 <pmc_switch_mck_to_pllack>:
 *
 * \retval 0 Success.
 * \retval 1 Timeout error.
 */
uint32_t pmc_switch_mck_to_pllack(uint32_t ul_pres)
{
  401e50:	b480      	push	{r7}
  401e52:	b085      	sub	sp, #20
  401e54:	af00      	add	r7, sp, #0
  401e56:	6078      	str	r0, [r7, #4]
	uint32_t ul_timeout;

	PMC->PMC_MCKR = (PMC->PMC_MCKR & (~PMC_MCKR_PRES_Msk)) | ul_pres;
  401e58:	491d      	ldr	r1, [pc, #116]	; (401ed0 <pmc_switch_mck_to_pllack+0x80>)
  401e5a:	4b1d      	ldr	r3, [pc, #116]	; (401ed0 <pmc_switch_mck_to_pllack+0x80>)
  401e5c:	6b1b      	ldr	r3, [r3, #48]	; 0x30
  401e5e:	f023 0270 	bic.w	r2, r3, #112	; 0x70
  401e62:	687b      	ldr	r3, [r7, #4]
  401e64:	4313      	orrs	r3, r2
  401e66:	630b      	str	r3, [r1, #48]	; 0x30
	for (ul_timeout = PMC_TIMEOUT; !(PMC->PMC_SR & PMC_SR_MCKRDY);
  401e68:	f44f 6300 	mov.w	r3, #2048	; 0x800
  401e6c:	60fb      	str	r3, [r7, #12]
  401e6e:	e007      	b.n	401e80 <pmc_switch_mck_to_pllack+0x30>
			--ul_timeout) {
		if (ul_timeout == 0) {
  401e70:	68fb      	ldr	r3, [r7, #12]
  401e72:	2b00      	cmp	r3, #0
  401e74:	d101      	bne.n	401e7a <pmc_switch_mck_to_pllack+0x2a>
			return 1;
  401e76:	2301      	movs	r3, #1
  401e78:	e023      	b.n	401ec2 <pmc_switch_mck_to_pllack+0x72>
{
	uint32_t ul_timeout;

	PMC->PMC_MCKR = (PMC->PMC_MCKR & (~PMC_MCKR_PRES_Msk)) | ul_pres;
	for (ul_timeout = PMC_TIMEOUT; !(PMC->PMC_SR & PMC_SR_MCKRDY);
			--ul_timeout) {
  401e7a:	68fb      	ldr	r3, [r7, #12]
  401e7c:	3b01      	subs	r3, #1
  401e7e:	60fb      	str	r3, [r7, #12]
uint32_t pmc_switch_mck_to_pllack(uint32_t ul_pres)
{
	uint32_t ul_timeout;

	PMC->PMC_MCKR = (PMC->PMC_MCKR & (~PMC_MCKR_PRES_Msk)) | ul_pres;
	for (ul_timeout = PMC_TIMEOUT; !(PMC->PMC_SR & PMC_SR_MCKRDY);
  401e80:	4b13      	ldr	r3, [pc, #76]	; (401ed0 <pmc_switch_mck_to_pllack+0x80>)
  401e82:	6e9b      	ldr	r3, [r3, #104]	; 0x68
  401e84:	f003 0308 	and.w	r3, r3, #8
  401e88:	2b00      	cmp	r3, #0
  401e8a:	d0f1      	beq.n	401e70 <pmc_switch_mck_to_pllack+0x20>
		if (ul_timeout == 0) {
			return 1;
		}
	}

	PMC->PMC_MCKR = (PMC->PMC_MCKR & (~PMC_MCKR_CSS_Msk)) |
  401e8c:	4a10      	ldr	r2, [pc, #64]	; (401ed0 <pmc_switch_mck_to_pllack+0x80>)
  401e8e:	4b10      	ldr	r3, [pc, #64]	; (401ed0 <pmc_switch_mck_to_pllack+0x80>)
  401e90:	6b1b      	ldr	r3, [r3, #48]	; 0x30
  401e92:	f023 0303 	bic.w	r3, r3, #3
  401e96:	f043 0302 	orr.w	r3, r3, #2
  401e9a:	6313      	str	r3, [r2, #48]	; 0x30
			PMC_MCKR_CSS_PLLA_CLK;

	for (ul_timeout = PMC_TIMEOUT; !(PMC->PMC_SR & PMC_SR_MCKRDY);
  401e9c:	f44f 6300 	mov.w	r3, #2048	; 0x800
  401ea0:	60fb      	str	r3, [r7, #12]
  401ea2:	e007      	b.n	401eb4 <pmc_switch_mck_to_pllack+0x64>
			--ul_timeout) {
		if (ul_timeout == 0) {
  401ea4:	68fb      	ldr	r3, [r7, #12]
  401ea6:	2b00      	cmp	r3, #0
  401ea8:	d101      	bne.n	401eae <pmc_switch_mck_to_pllack+0x5e>
			return 1;
  401eaa:	2301      	movs	r3, #1
  401eac:	e009      	b.n	401ec2 <pmc_switch_mck_to_pllack+0x72>

	PMC->PMC_MCKR = (PMC->PMC_MCKR & (~PMC_MCKR_CSS_Msk)) |
			PMC_MCKR_CSS_PLLA_CLK;

	for (ul_timeout = PMC_TIMEOUT; !(PMC->PMC_SR & PMC_SR_MCKRDY);
			--ul_timeout) {
  401eae:	68fb      	ldr	r3, [r7, #12]
  401eb0:	3b01      	subs	r3, #1
  401eb2:	60fb      	str	r3, [r7, #12]
	}

	PMC->PMC_MCKR = (PMC->PMC_MCKR & (~PMC_MCKR_CSS_Msk)) |
			PMC_MCKR_CSS_PLLA_CLK;

	for (ul_timeout = PMC_TIMEOUT; !(PMC->PMC_SR & PMC_SR_MCKRDY);
  401eb4:	4b06      	ldr	r3, [pc, #24]	; (401ed0 <pmc_switch_mck_to_pllack+0x80>)
  401eb6:	6e9b      	ldr	r3, [r3, #104]	; 0x68
  401eb8:	f003 0308 	and.w	r3, r3, #8
  401ebc:	2b00      	cmp	r3, #0
  401ebe:	d0f1      	beq.n	401ea4 <pmc_switch_mck_to_pllack+0x54>
		if (ul_timeout == 0) {
			return 1;
		}
	}

	return 0;
  401ec0:	2300      	movs	r3, #0
}
  401ec2:	4618      	mov	r0, r3
  401ec4:	3714      	adds	r7, #20
  401ec6:	46bd      	mov	sp, r7
  401ec8:	f85d 7b04 	ldr.w	r7, [sp], #4
  401ecc:	4770      	bx	lr
  401ece:	bf00      	nop
  401ed0:	400e0400 	.word	0x400e0400

00401ed4 <pmc_switch_sclk_to_32kxtal>:
 *       VDDIO power supply.
 *
 * \param ul_bypass 0 for Xtal, 1 for bypass.
 */
void pmc_switch_sclk_to_32kxtal(uint32_t ul_bypass)
{
  401ed4:	b480      	push	{r7}
  401ed6:	b083      	sub	sp, #12
  401ed8:	af00      	add	r7, sp, #0
  401eda:	6078      	str	r0, [r7, #4]
	/* Set Bypass mode if required */
	if (ul_bypass == 1) {
  401edc:	687b      	ldr	r3, [r7, #4]
  401ede:	2b01      	cmp	r3, #1
  401ee0:	d107      	bne.n	401ef2 <pmc_switch_sclk_to_32kxtal+0x1e>
		SUPC->SUPC_MR |= SUPC_MR_KEY_PASSWD |
  401ee2:	4a08      	ldr	r2, [pc, #32]	; (401f04 <pmc_switch_sclk_to_32kxtal+0x30>)
  401ee4:	4b07      	ldr	r3, [pc, #28]	; (401f04 <pmc_switch_sclk_to_32kxtal+0x30>)
  401ee6:	689b      	ldr	r3, [r3, #8]
  401ee8:	f043 4325 	orr.w	r3, r3, #2768240640	; 0xa5000000
  401eec:	f443 1380 	orr.w	r3, r3, #1048576	; 0x100000
  401ef0:	6093      	str	r3, [r2, #8]
			SUPC_MR_OSCBYPASS;
	}

	SUPC->SUPC_CR = SUPC_CR_KEY_PASSWD | SUPC_CR_XTALSEL;
  401ef2:	4b04      	ldr	r3, [pc, #16]	; (401f04 <pmc_switch_sclk_to_32kxtal+0x30>)
  401ef4:	4a04      	ldr	r2, [pc, #16]	; (401f08 <pmc_switch_sclk_to_32kxtal+0x34>)
  401ef6:	601a      	str	r2, [r3, #0]
}
  401ef8:	370c      	adds	r7, #12
  401efa:	46bd      	mov	sp, r7
  401efc:	f85d 7b04 	ldr.w	r7, [sp], #4
  401f00:	4770      	bx	lr
  401f02:	bf00      	nop
  401f04:	400e1410 	.word	0x400e1410
  401f08:	a5000008 	.word	0xa5000008

00401f0c <pmc_osc_is_ready_32kxtal>:
 *
 * \retval 1 External 32k Xtal is ready.
 * \retval 0 External 32k Xtal is not ready.
 */
uint32_t pmc_osc_is_ready_32kxtal(void)
{
  401f0c:	b480      	push	{r7}
  401f0e:	af00      	add	r7, sp, #0
	return ((SUPC->SUPC_SR & SUPC_SR_OSCSEL)
  401f10:	4b09      	ldr	r3, [pc, #36]	; (401f38 <pmc_osc_is_ready_32kxtal+0x2c>)
  401f12:	695b      	ldr	r3, [r3, #20]
  401f14:	f003 0380 	and.w	r3, r3, #128	; 0x80
			&& (PMC->PMC_SR & PMC_SR_OSCSELS));
  401f18:	2b00      	cmp	r3, #0
  401f1a:	d007      	beq.n	401f2c <pmc_osc_is_ready_32kxtal+0x20>
  401f1c:	4b07      	ldr	r3, [pc, #28]	; (401f3c <pmc_osc_is_ready_32kxtal+0x30>)
  401f1e:	6e9b      	ldr	r3, [r3, #104]	; 0x68
  401f20:	f003 0380 	and.w	r3, r3, #128	; 0x80
  401f24:	2b00      	cmp	r3, #0
  401f26:	d001      	beq.n	401f2c <pmc_osc_is_ready_32kxtal+0x20>
  401f28:	2301      	movs	r3, #1
  401f2a:	e000      	b.n	401f2e <pmc_osc_is_ready_32kxtal+0x22>
  401f2c:	2300      	movs	r3, #0
}
  401f2e:	4618      	mov	r0, r3
  401f30:	46bd      	mov	sp, r7
  401f32:	f85d 7b04 	ldr.w	r7, [sp], #4
  401f36:	4770      	bx	lr
  401f38:	400e1410 	.word	0x400e1410
  401f3c:	400e0400 	.word	0x400e0400

00401f40 <pmc_switch_mainck_to_fastrc>:
 * \retval 0 Success.
 * \retval 1 Timeout error.
 * \retval 2 Invalid frequency.
 */
void pmc_switch_mainck_to_fastrc(uint32_t ul_moscrcf)
{
  401f40:	b480      	push	{r7}
  401f42:	b083      	sub	sp, #12
  401f44:	af00      	add	r7, sp, #0
  401f46:	6078      	str	r0, [r7, #4]
	/* Enable Fast RC oscillator but DO NOT switch to RC now */
	PMC->CKGR_MOR |= (CKGR_MOR_KEY_PASSWD | CKGR_MOR_MOSCRCEN);
  401f48:	4a18      	ldr	r2, [pc, #96]	; (401fac <pmc_switch_mainck_to_fastrc+0x6c>)
  401f4a:	4b18      	ldr	r3, [pc, #96]	; (401fac <pmc_switch_mainck_to_fastrc+0x6c>)
  401f4c:	6a1b      	ldr	r3, [r3, #32]
  401f4e:	f443 135c 	orr.w	r3, r3, #3604480	; 0x370000
  401f52:	f043 0308 	orr.w	r3, r3, #8
  401f56:	6213      	str	r3, [r2, #32]

	/* Wait the Fast RC to stabilize */
	while (!(PMC->PMC_SR & PMC_SR_MOSCRCS));
  401f58:	bf00      	nop
  401f5a:	4b14      	ldr	r3, [pc, #80]	; (401fac <pmc_switch_mainck_to_fastrc+0x6c>)
  401f5c:	6e9b      	ldr	r3, [r3, #104]	; 0x68
  401f5e:	f403 3300 	and.w	r3, r3, #131072	; 0x20000
  401f62:	2b00      	cmp	r3, #0
  401f64:	d0f9      	beq.n	401f5a <pmc_switch_mainck_to_fastrc+0x1a>

	/* Change Fast RC oscillator frequency */
	PMC->CKGR_MOR = (PMC->CKGR_MOR & ~CKGR_MOR_MOSCRCF_Msk) |
  401f66:	4911      	ldr	r1, [pc, #68]	; (401fac <pmc_switch_mainck_to_fastrc+0x6c>)
  401f68:	4b10      	ldr	r3, [pc, #64]	; (401fac <pmc_switch_mainck_to_fastrc+0x6c>)
  401f6a:	6a1b      	ldr	r3, [r3, #32]
  401f6c:	f423 135c 	bic.w	r3, r3, #3604480	; 0x370000
  401f70:	f023 0370 	bic.w	r3, r3, #112	; 0x70
			CKGR_MOR_KEY_PASSWD | ul_moscrcf;
  401f74:	687a      	ldr	r2, [r7, #4]
  401f76:	4313      	orrs	r3, r2
  401f78:	f443 135c 	orr.w	r3, r3, #3604480	; 0x370000

	/* Wait the Fast RC to stabilize */
	while (!(PMC->PMC_SR & PMC_SR_MOSCRCS));

	/* Change Fast RC oscillator frequency */
	PMC->CKGR_MOR = (PMC->CKGR_MOR & ~CKGR_MOR_MOSCRCF_Msk) |
  401f7c:	620b      	str	r3, [r1, #32]
			CKGR_MOR_KEY_PASSWD | ul_moscrcf;

	/* Wait the Fast RC to stabilize */
	while (!(PMC->PMC_SR & PMC_SR_MOSCRCS));
  401f7e:	bf00      	nop
  401f80:	4b0a      	ldr	r3, [pc, #40]	; (401fac <pmc_switch_mainck_to_fastrc+0x6c>)
  401f82:	6e9b      	ldr	r3, [r3, #104]	; 0x68
  401f84:	f403 3300 	and.w	r3, r3, #131072	; 0x20000
  401f88:	2b00      	cmp	r3, #0
  401f8a:	d0f9      	beq.n	401f80 <pmc_switch_mainck_to_fastrc+0x40>

	/* Switch to Fast RC */
	PMC->CKGR_MOR = (PMC->CKGR_MOR & ~CKGR_MOR_MOSCSEL) |
  401f8c:	4a07      	ldr	r2, [pc, #28]	; (401fac <pmc_switch_mainck_to_fastrc+0x6c>)
  401f8e:	4b07      	ldr	r3, [pc, #28]	; (401fac <pmc_switch_mainck_to_fastrc+0x6c>)
  401f90:	6a1b      	ldr	r3, [r3, #32]
  401f92:	f023 739b 	bic.w	r3, r3, #20316160	; 0x1360000
  401f96:	f423 3380 	bic.w	r3, r3, #65536	; 0x10000
  401f9a:	f443 135c 	orr.w	r3, r3, #3604480	; 0x370000
  401f9e:	6213      	str	r3, [r2, #32]
			CKGR_MOR_KEY_PASSWD;
}
  401fa0:	370c      	adds	r7, #12
  401fa2:	46bd      	mov	sp, r7
  401fa4:	f85d 7b04 	ldr.w	r7, [sp], #4
  401fa8:	4770      	bx	lr
  401faa:	bf00      	nop
  401fac:	400e0400 	.word	0x400e0400

00401fb0 <pmc_switch_mainck_to_xtal>:
 * \retval 0 Success.
 * \retval 1 Timeout error.
 */
void pmc_switch_mainck_to_xtal(uint32_t ul_bypass,
		uint32_t ul_xtal_startup_time)
{
  401fb0:	b480      	push	{r7}
  401fb2:	b083      	sub	sp, #12
  401fb4:	af00      	add	r7, sp, #0
  401fb6:	6078      	str	r0, [r7, #4]
  401fb8:	6039      	str	r1, [r7, #0]
	/* Enable Main Xtal oscillator */
	if (ul_bypass) {
  401fba:	687b      	ldr	r3, [r7, #4]
  401fbc:	2b00      	cmp	r3, #0
  401fbe:	d008      	beq.n	401fd2 <pmc_switch_mainck_to_xtal+0x22>
		PMC->CKGR_MOR = (PMC->CKGR_MOR & ~CKGR_MOR_MOSCXTEN) |
  401fc0:	4916      	ldr	r1, [pc, #88]	; (40201c <pmc_switch_mainck_to_xtal+0x6c>)
  401fc2:	4b16      	ldr	r3, [pc, #88]	; (40201c <pmc_switch_mainck_to_xtal+0x6c>)
  401fc4:	6a1b      	ldr	r3, [r3, #32]
				CKGR_MOR_KEY_PASSWD | CKGR_MOR_MOSCXTBY |
  401fc6:	4a16      	ldr	r2, [pc, #88]	; (402020 <pmc_switch_mainck_to_xtal+0x70>)
  401fc8:	401a      	ands	r2, r3
  401fca:	4b16      	ldr	r3, [pc, #88]	; (402024 <pmc_switch_mainck_to_xtal+0x74>)
  401fcc:	4313      	orrs	r3, r2
void pmc_switch_mainck_to_xtal(uint32_t ul_bypass,
		uint32_t ul_xtal_startup_time)
{
	/* Enable Main Xtal oscillator */
	if (ul_bypass) {
		PMC->CKGR_MOR = (PMC->CKGR_MOR & ~CKGR_MOR_MOSCXTEN) |
  401fce:	620b      	str	r3, [r1, #32]
  401fd0:	e01e      	b.n	402010 <pmc_switch_mainck_to_xtal+0x60>
				CKGR_MOR_KEY_PASSWD | CKGR_MOR_MOSCXTBY |
				CKGR_MOR_MOSCSEL;
	} else {
		PMC->CKGR_MOR = (PMC->CKGR_MOR & ~CKGR_MOR_MOSCXTBY) |
  401fd2:	4912      	ldr	r1, [pc, #72]	; (40201c <pmc_switch_mainck_to_xtal+0x6c>)
  401fd4:	4b11      	ldr	r3, [pc, #68]	; (40201c <pmc_switch_mainck_to_xtal+0x6c>)
  401fd6:	6a1b      	ldr	r3, [r3, #32]
				CKGR_MOR_KEY_PASSWD | CKGR_MOR_MOSCXTEN |
  401fd8:	f423 135c 	bic.w	r3, r3, #3604480	; 0x370000
  401fdc:	f023 0303 	bic.w	r3, r3, #3
				CKGR_MOR_MOSCXTST(ul_xtal_startup_time);
  401fe0:	683a      	ldr	r2, [r7, #0]
  401fe2:	0212      	lsls	r2, r2, #8
  401fe4:	b292      	uxth	r2, r2
		PMC->CKGR_MOR = (PMC->CKGR_MOR & ~CKGR_MOR_MOSCXTEN) |
				CKGR_MOR_KEY_PASSWD | CKGR_MOR_MOSCXTBY |
				CKGR_MOR_MOSCSEL;
	} else {
		PMC->CKGR_MOR = (PMC->CKGR_MOR & ~CKGR_MOR_MOSCXTBY) |
				CKGR_MOR_KEY_PASSWD | CKGR_MOR_MOSCXTEN |
  401fe6:	4313      	orrs	r3, r2
  401fe8:	f443 135c 	orr.w	r3, r3, #3604480	; 0x370000
  401fec:	f043 0301 	orr.w	r3, r3, #1
	if (ul_bypass) {
		PMC->CKGR_MOR = (PMC->CKGR_MOR & ~CKGR_MOR_MOSCXTEN) |
				CKGR_MOR_KEY_PASSWD | CKGR_MOR_MOSCXTBY |
				CKGR_MOR_MOSCSEL;
	} else {
		PMC->CKGR_MOR = (PMC->CKGR_MOR & ~CKGR_MOR_MOSCXTBY) |
  401ff0:	620b      	str	r3, [r1, #32]
				CKGR_MOR_KEY_PASSWD | CKGR_MOR_MOSCXTEN |
				CKGR_MOR_MOSCXTST(ul_xtal_startup_time);
		/* Wait the Xtal to stabilize */
		while (!(PMC->PMC_SR & PMC_SR_MOSCXTS));
  401ff2:	bf00      	nop
  401ff4:	4b09      	ldr	r3, [pc, #36]	; (40201c <pmc_switch_mainck_to_xtal+0x6c>)
  401ff6:	6e9b      	ldr	r3, [r3, #104]	; 0x68
  401ff8:	f003 0301 	and.w	r3, r3, #1
  401ffc:	2b00      	cmp	r3, #0
  401ffe:	d0f9      	beq.n	401ff4 <pmc_switch_mainck_to_xtal+0x44>

		PMC->CKGR_MOR |= CKGR_MOR_KEY_PASSWD | CKGR_MOR_MOSCSEL;
  402000:	4a06      	ldr	r2, [pc, #24]	; (40201c <pmc_switch_mainck_to_xtal+0x6c>)
  402002:	4b06      	ldr	r3, [pc, #24]	; (40201c <pmc_switch_mainck_to_xtal+0x6c>)
  402004:	6a1b      	ldr	r3, [r3, #32]
  402006:	f043 739b 	orr.w	r3, r3, #20316160	; 0x1360000
  40200a:	f443 3380 	orr.w	r3, r3, #65536	; 0x10000
  40200e:	6213      	str	r3, [r2, #32]
	}
}
  402010:	370c      	adds	r7, #12
  402012:	46bd      	mov	sp, r7
  402014:	f85d 7b04 	ldr.w	r7, [sp], #4
  402018:	4770      	bx	lr
  40201a:	bf00      	nop
  40201c:	400e0400 	.word	0x400e0400
  402020:	fec8fffc 	.word	0xfec8fffc
  402024:	01370002 	.word	0x01370002

00402028 <pmc_osc_is_ready_mainck>:
 *
 * \retval 1 Xtal is ready.
 * \retval 0 Xtal is not ready.
 */
uint32_t pmc_osc_is_ready_mainck(void)
{
  402028:	b480      	push	{r7}
  40202a:	af00      	add	r7, sp, #0
	return PMC->PMC_SR & PMC_SR_MOSCSELS;
  40202c:	4b04      	ldr	r3, [pc, #16]	; (402040 <pmc_osc_is_ready_mainck+0x18>)
  40202e:	6e9b      	ldr	r3, [r3, #104]	; 0x68
  402030:	f403 3380 	and.w	r3, r3, #65536	; 0x10000
}
  402034:	4618      	mov	r0, r3
  402036:	46bd      	mov	sp, r7
  402038:	f85d 7b04 	ldr.w	r7, [sp], #4
  40203c:	4770      	bx	lr
  40203e:	bf00      	nop
  402040:	400e0400 	.word	0x400e0400

00402044 <pmc_disable_pllack>:

/**
 * \brief Disable PLLA clock.
 */
void pmc_disable_pllack(void)
{
  402044:	b480      	push	{r7}
  402046:	af00      	add	r7, sp, #0
#if (SAM4C || SAM4CM || SAM4CP || SAMG)
	PMC->CKGR_PLLAR = CKGR_PLLAR_MULA(0);
#else
	PMC->CKGR_PLLAR = CKGR_PLLAR_ONE | CKGR_PLLAR_MULA(0);
  402048:	4b03      	ldr	r3, [pc, #12]	; (402058 <pmc_disable_pllack+0x14>)
  40204a:	f04f 5200 	mov.w	r2, #536870912	; 0x20000000
  40204e:	629a      	str	r2, [r3, #40]	; 0x28
#endif
}
  402050:	46bd      	mov	sp, r7
  402052:	f85d 7b04 	ldr.w	r7, [sp], #4
  402056:	4770      	bx	lr
  402058:	400e0400 	.word	0x400e0400

0040205c <pmc_is_locked_pllack>:
 *
 * \retval 0 Not locked.
 * \retval 1 Locked.
 */
uint32_t pmc_is_locked_pllack(void)
{
  40205c:	b480      	push	{r7}
  40205e:	af00      	add	r7, sp, #0
	return (PMC->PMC_SR & PMC_SR_LOCKA);
  402060:	4b04      	ldr	r3, [pc, #16]	; (402074 <pmc_is_locked_pllack+0x18>)
  402062:	6e9b      	ldr	r3, [r3, #104]	; 0x68
  402064:	f003 0302 	and.w	r3, r3, #2
}
  402068:	4618      	mov	r0, r3
  40206a:	46bd      	mov	sp, r7
  40206c:	f85d 7b04 	ldr.w	r7, [sp], #4
  402070:	4770      	bx	lr
  402072:	bf00      	nop
  402074:	400e0400 	.word	0x400e0400

00402078 <pmc_disable_pllbck>:

/**
 * \brief Disable PLLB clock.
 */
void pmc_disable_pllbck(void)
{
  402078:	b480      	push	{r7}
  40207a:	af00      	add	r7, sp, #0
	PMC->CKGR_PLLBR = CKGR_PLLBR_MULB(0);
  40207c:	4b03      	ldr	r3, [pc, #12]	; (40208c <pmc_disable_pllbck+0x14>)
  40207e:	2200      	movs	r2, #0
  402080:	62da      	str	r2, [r3, #44]	; 0x2c
}
  402082:	46bd      	mov	sp, r7
  402084:	f85d 7b04 	ldr.w	r7, [sp], #4
  402088:	4770      	bx	lr
  40208a:	bf00      	nop
  40208c:	400e0400 	.word	0x400e0400

00402090 <pmc_is_locked_pllbck>:
 *
 * \retval 0 Not locked.
 * \retval 1 Locked.
 */
uint32_t pmc_is_locked_pllbck(void)
{
  402090:	b480      	push	{r7}
  402092:	af00      	add	r7, sp, #0
	return (PMC->PMC_SR & PMC_SR_LOCKB);
  402094:	4b04      	ldr	r3, [pc, #16]	; (4020a8 <pmc_is_locked_pllbck+0x18>)
  402096:	6e9b      	ldr	r3, [r3, #104]	; 0x68
  402098:	f003 0304 	and.w	r3, r3, #4
}
  40209c:	4618      	mov	r0, r3
  40209e:	46bd      	mov	sp, r7
  4020a0:	f85d 7b04 	ldr.w	r7, [sp], #4
  4020a4:	4770      	bx	lr
  4020a6:	bf00      	nop
  4020a8:	400e0400 	.word	0x400e0400

004020ac <pmc_enable_periph_clk>:
 *
 * \retval 0 Success.
 * \retval 1 Invalid parameter.
 */
uint32_t pmc_enable_periph_clk(uint32_t ul_id)
{
  4020ac:	b480      	push	{r7}
  4020ae:	b083      	sub	sp, #12
  4020b0:	af00      	add	r7, sp, #0
  4020b2:	6078      	str	r0, [r7, #4]
	if (ul_id > MAX_PERIPH_ID) {
  4020b4:	687b      	ldr	r3, [r7, #4]
  4020b6:	2b22      	cmp	r3, #34	; 0x22
  4020b8:	d901      	bls.n	4020be <pmc_enable_periph_clk+0x12>
		return 1;
  4020ba:	2301      	movs	r3, #1
  4020bc:	e02f      	b.n	40211e <pmc_enable_periph_clk+0x72>
	}

	if (ul_id < 32) {
  4020be:	687b      	ldr	r3, [r7, #4]
  4020c0:	2b1f      	cmp	r3, #31
  4020c2:	d813      	bhi.n	4020ec <pmc_enable_periph_clk+0x40>
		if ((PMC->PMC_PCSR0 & (1u << ul_id)) != (1u << ul_id)) {
  4020c4:	4b19      	ldr	r3, [pc, #100]	; (40212c <pmc_enable_periph_clk+0x80>)
  4020c6:	699a      	ldr	r2, [r3, #24]
  4020c8:	687b      	ldr	r3, [r7, #4]
  4020ca:	2101      	movs	r1, #1
  4020cc:	fa01 f303 	lsl.w	r3, r1, r3
  4020d0:	401a      	ands	r2, r3
  4020d2:	687b      	ldr	r3, [r7, #4]
  4020d4:	2101      	movs	r1, #1
  4020d6:	fa01 f303 	lsl.w	r3, r1, r3
  4020da:	429a      	cmp	r2, r3
  4020dc:	d01e      	beq.n	40211c <pmc_enable_periph_clk+0x70>
			PMC->PMC_PCER0 = 1 << ul_id;
  4020de:	4a13      	ldr	r2, [pc, #76]	; (40212c <pmc_enable_periph_clk+0x80>)
  4020e0:	687b      	ldr	r3, [r7, #4]
  4020e2:	2101      	movs	r1, #1
  4020e4:	fa01 f303 	lsl.w	r3, r1, r3
  4020e8:	6113      	str	r3, [r2, #16]
  4020ea:	e017      	b.n	40211c <pmc_enable_periph_clk+0x70>
		}
#if (SAM3S || SAM3XA || SAM4S || SAM4E || SAM4C || SAM4CM || SAM4CP || SAMG55 || SAMV71 || SAMV70 || SAME70 || SAMS70)
	} else {
		ul_id -= 32;
  4020ec:	687b      	ldr	r3, [r7, #4]
  4020ee:	3b20      	subs	r3, #32
  4020f0:	607b      	str	r3, [r7, #4]
		if ((PMC->PMC_PCSR1 & (1u << ul_id)) != (1u << ul_id)) {
  4020f2:	4b0e      	ldr	r3, [pc, #56]	; (40212c <pmc_enable_periph_clk+0x80>)
  4020f4:	f8d3 2108 	ldr.w	r2, [r3, #264]	; 0x108
  4020f8:	687b      	ldr	r3, [r7, #4]
  4020fa:	2101      	movs	r1, #1
  4020fc:	fa01 f303 	lsl.w	r3, r1, r3
  402100:	401a      	ands	r2, r3
  402102:	687b      	ldr	r3, [r7, #4]
  402104:	2101      	movs	r1, #1
  402106:	fa01 f303 	lsl.w	r3, r1, r3
  40210a:	429a      	cmp	r2, r3
  40210c:	d006      	beq.n	40211c <pmc_enable_periph_clk+0x70>
			PMC->PMC_PCER1 = 1 << ul_id;
  40210e:	4a07      	ldr	r2, [pc, #28]	; (40212c <pmc_enable_periph_clk+0x80>)
  402110:	687b      	ldr	r3, [r7, #4]
  402112:	2101      	movs	r1, #1
  402114:	fa01 f303 	lsl.w	r3, r1, r3
  402118:	f8c2 3100 	str.w	r3, [r2, #256]	; 0x100
		}
#endif
	}

	return 0;
  40211c:	2300      	movs	r3, #0
}
  40211e:	4618      	mov	r0, r3
  402120:	370c      	adds	r7, #12
  402122:	46bd      	mov	sp, r7
  402124:	f85d 7b04 	ldr.w	r7, [sp], #4
  402128:	4770      	bx	lr
  40212a:	bf00      	nop
  40212c:	400e0400 	.word	0x400e0400

00402130 <Reset_Handler>:
/**
 * \brief This is the code that gets called on processor reset.
 * To initialize the device, and call the main() routine.
 */
void Reset_Handler(void)
{
  402130:	b580      	push	{r7, lr}
  402132:	b084      	sub	sp, #16
  402134:	af00      	add	r7, sp, #0
	uint32_t *pSrc, *pDest;

	/* Initialize the relocate segment */
	pSrc = &_etext;
  402136:	4b27      	ldr	r3, [pc, #156]	; (4021d4 <Reset_Handler+0xa4>)
  402138:	60fb      	str	r3, [r7, #12]
	pDest = &_srelocate;
  40213a:	4b27      	ldr	r3, [pc, #156]	; (4021d8 <Reset_Handler+0xa8>)
  40213c:	60bb      	str	r3, [r7, #8]

	if (pSrc > pDest) {
  40213e:	68fa      	ldr	r2, [r7, #12]
  402140:	68bb      	ldr	r3, [r7, #8]
  402142:	429a      	cmp	r2, r3
  402144:	d90d      	bls.n	402162 <Reset_Handler+0x32>
		for (; pDest < &_erelocate;) {
  402146:	e007      	b.n	402158 <Reset_Handler+0x28>
			*pDest++ = *pSrc++;
  402148:	68bb      	ldr	r3, [r7, #8]
  40214a:	1d1a      	adds	r2, r3, #4
  40214c:	60ba      	str	r2, [r7, #8]
  40214e:	68fa      	ldr	r2, [r7, #12]
  402150:	1d11      	adds	r1, r2, #4
  402152:	60f9      	str	r1, [r7, #12]
  402154:	6812      	ldr	r2, [r2, #0]
  402156:	601a      	str	r2, [r3, #0]
	/* Initialize the relocate segment */
	pSrc = &_etext;
	pDest = &_srelocate;

	if (pSrc > pDest) {
		for (; pDest < &_erelocate;) {
  402158:	68bb      	ldr	r3, [r7, #8]
  40215a:	4a20      	ldr	r2, [pc, #128]	; (4021dc <Reset_Handler+0xac>)
  40215c:	4293      	cmp	r3, r2
  40215e:	d3f3      	bcc.n	402148 <Reset_Handler+0x18>
  402160:	e020      	b.n	4021a4 <Reset_Handler+0x74>
			*pDest++ = *pSrc++;
		}
	} else if (pSrc < pDest) {
  402162:	68fa      	ldr	r2, [r7, #12]
  402164:	68bb      	ldr	r3, [r7, #8]
  402166:	429a      	cmp	r2, r3
  402168:	d21c      	bcs.n	4021a4 <Reset_Handler+0x74>
		uint32_t nb_bytes = (uint32_t)&_erelocate - (uint32_t)&_srelocate;
  40216a:	4a1c      	ldr	r2, [pc, #112]	; (4021dc <Reset_Handler+0xac>)
  40216c:	4b1a      	ldr	r3, [pc, #104]	; (4021d8 <Reset_Handler+0xa8>)
  40216e:	1ad3      	subs	r3, r2, r3
  402170:	607b      	str	r3, [r7, #4]
		pSrc = (uint32_t*)((uint32_t)pSrc + nb_bytes) - 1;
  402172:	68fa      	ldr	r2, [r7, #12]
  402174:	687b      	ldr	r3, [r7, #4]
  402176:	4413      	add	r3, r2
  402178:	3b04      	subs	r3, #4
  40217a:	60fb      	str	r3, [r7, #12]
		pDest = (uint32_t*)((uint32_t)pDest + nb_bytes) - 1;
  40217c:	68ba      	ldr	r2, [r7, #8]
  40217e:	687b      	ldr	r3, [r7, #4]
  402180:	4413      	add	r3, r2
  402182:	3b04      	subs	r3, #4
  402184:	60bb      	str	r3, [r7, #8]
		for (;nb_bytes;nb_bytes -= 4) {
  402186:	e00a      	b.n	40219e <Reset_Handler+0x6e>
			*pDest-- = *pSrc--;
  402188:	68bb      	ldr	r3, [r7, #8]
  40218a:	1f1a      	subs	r2, r3, #4
  40218c:	60ba      	str	r2, [r7, #8]
  40218e:	68fa      	ldr	r2, [r7, #12]
  402190:	1f11      	subs	r1, r2, #4
  402192:	60f9      	str	r1, [r7, #12]
  402194:	6812      	ldr	r2, [r2, #0]
  402196:	601a      	str	r2, [r3, #0]
		}
	} else if (pSrc < pDest) {
		uint32_t nb_bytes = (uint32_t)&_erelocate - (uint32_t)&_srelocate;
		pSrc = (uint32_t*)((uint32_t)pSrc + nb_bytes) - 1;
		pDest = (uint32_t*)((uint32_t)pDest + nb_bytes) - 1;
		for (;nb_bytes;nb_bytes -= 4) {
  402198:	687b      	ldr	r3, [r7, #4]
  40219a:	3b04      	subs	r3, #4
  40219c:	607b      	str	r3, [r7, #4]
  40219e:	687b      	ldr	r3, [r7, #4]
  4021a0:	2b00      	cmp	r3, #0
  4021a2:	d1f1      	bne.n	402188 <Reset_Handler+0x58>

    No Operation does nothing. This instruction can be used for code alignment purposes.
 */
__attribute__( ( always_inline ) ) __STATIC_INLINE void __NOP(void)
{
  __ASM volatile ("nop");
  4021a4:	bf00      	nop
		}
	}
	__NOP();

	/* Clear the zero segment */
	for (pDest = &_szero; pDest < &_ezero;) {
  4021a6:	4b0e      	ldr	r3, [pc, #56]	; (4021e0 <Reset_Handler+0xb0>)
  4021a8:	60bb      	str	r3, [r7, #8]
  4021aa:	e004      	b.n	4021b6 <Reset_Handler+0x86>
		*pDest++ = 0;
  4021ac:	68bb      	ldr	r3, [r7, #8]
  4021ae:	1d1a      	adds	r2, r3, #4
  4021b0:	60ba      	str	r2, [r7, #8]
  4021b2:	2200      	movs	r2, #0
  4021b4:	601a      	str	r2, [r3, #0]
		}
	}
	__NOP();

	/* Clear the zero segment */
	for (pDest = &_szero; pDest < &_ezero;) {
  4021b6:	68bb      	ldr	r3, [r7, #8]
  4021b8:	4a0a      	ldr	r2, [pc, #40]	; (4021e4 <Reset_Handler+0xb4>)
  4021ba:	4293      	cmp	r3, r2
  4021bc:	d3f6      	bcc.n	4021ac <Reset_Handler+0x7c>
		*pDest++ = 0;
	}

	/* Set the vector table base address */
	pSrc = (uint32_t *) & _sfixed;
  4021be:	4b0a      	ldr	r3, [pc, #40]	; (4021e8 <Reset_Handler+0xb8>)
  4021c0:	60fb      	str	r3, [r7, #12]
	SCB->VTOR = ((uint32_t) pSrc);
  4021c2:	4a0a      	ldr	r2, [pc, #40]	; (4021ec <Reset_Handler+0xbc>)
  4021c4:	68fb      	ldr	r3, [r7, #12]
  4021c6:	6093      	str	r3, [r2, #8]

	/* Initialize the C library */
	__libc_init_array();
  4021c8:	4b09      	ldr	r3, [pc, #36]	; (4021f0 <Reset_Handler+0xc0>)
  4021ca:	4798      	blx	r3

	/* Branch to main function */
	main();
  4021cc:	4b09      	ldr	r3, [pc, #36]	; (4021f4 <Reset_Handler+0xc4>)
  4021ce:	4798      	blx	r3

	/* Infinite loop */
	while (1);
  4021d0:	e7fe      	b.n	4021d0 <Reset_Handler+0xa0>
  4021d2:	bf00      	nop
  4021d4:	00409b0c 	.word	0x00409b0c
  4021d8:	20000000 	.word	0x20000000
  4021dc:	20000884 	.word	0x20000884
  4021e0:	20000884 	.word	0x20000884
  4021e4:	20000d58 	.word	0x20000d58
  4021e8:	00400000 	.word	0x00400000
  4021ec:	e000ed00 	.word	0xe000ed00
  4021f0:	00404dad 	.word	0x00404dad
  4021f4:	004028f5 	.word	0x004028f5

004021f8 <Dummy_Handler>:

/**
 * \brief Default interrupt handler for unused IRQs.
 */
void Dummy_Handler(void)
{
  4021f8:	b480      	push	{r7}
  4021fa:	af00      	add	r7, sp, #0
	while (1) {
	}
  4021fc:	e7fe      	b.n	4021fc <Dummy_Handler+0x4>
  4021fe:	bf00      	nop

00402200 <SystemCoreClockUpdate>:

/**
 * \brief Get Core Clock Frequency.
 */
void SystemCoreClockUpdate( void )
{
  402200:	b480      	push	{r7}
  402202:	af00      	add	r7, sp, #0
	/* Determine clock frequency according to clock register values */
	switch ( PMC->PMC_MCKR & (uint32_t) PMC_MCKR_CSS_Msk ) {
  402204:	4b5d      	ldr	r3, [pc, #372]	; (40237c <SystemCoreClockUpdate+0x17c>)
  402206:	6b1b      	ldr	r3, [r3, #48]	; 0x30
  402208:	f003 0303 	and.w	r3, r3, #3
  40220c:	2b03      	cmp	r3, #3
  40220e:	f200 8096 	bhi.w	40233e <SystemCoreClockUpdate+0x13e>
  402212:	a201      	add	r2, pc, #4	; (adr r2, 402218 <SystemCoreClockUpdate+0x18>)
  402214:	f852 f023 	ldr.w	pc, [r2, r3, lsl #2]
  402218:	00402229 	.word	0x00402229
  40221c:	00402249 	.word	0x00402249
  402220:	00402293 	.word	0x00402293
  402224:	00402293 	.word	0x00402293
	case PMC_MCKR_CSS_SLOW_CLK: /* Slow clock */
			if ( SUPC->SUPC_SR & SUPC_SR_OSCSEL ) {
  402228:	4b55      	ldr	r3, [pc, #340]	; (402380 <SystemCoreClockUpdate+0x180>)
  40222a:	695b      	ldr	r3, [r3, #20]
  40222c:	f003 0380 	and.w	r3, r3, #128	; 0x80
  402230:	2b00      	cmp	r3, #0
  402232:	d004      	beq.n	40223e <SystemCoreClockUpdate+0x3e>
				SystemCoreClock = CHIP_FREQ_XTAL_32K;
  402234:	4b53      	ldr	r3, [pc, #332]	; (402384 <SystemCoreClockUpdate+0x184>)
  402236:	f44f 4200 	mov.w	r2, #32768	; 0x8000
  40223a:	601a      	str	r2, [r3, #0]
			} else {
				SystemCoreClock = CHIP_FREQ_SLCK_RC;
			}
		break;
  40223c:	e080      	b.n	402340 <SystemCoreClockUpdate+0x140>
	switch ( PMC->PMC_MCKR & (uint32_t) PMC_MCKR_CSS_Msk ) {
	case PMC_MCKR_CSS_SLOW_CLK: /* Slow clock */
			if ( SUPC->SUPC_SR & SUPC_SR_OSCSEL ) {
				SystemCoreClock = CHIP_FREQ_XTAL_32K;
			} else {
				SystemCoreClock = CHIP_FREQ_SLCK_RC;
  40223e:	4b51      	ldr	r3, [pc, #324]	; (402384 <SystemCoreClockUpdate+0x184>)
  402240:	f44f 42fa 	mov.w	r2, #32000	; 0x7d00
  402244:	601a      	str	r2, [r3, #0]
			}
		break;
  402246:	e07b      	b.n	402340 <SystemCoreClockUpdate+0x140>
		
	case PMC_MCKR_CSS_MAIN_CLK: /* Main clock */
		if ( PMC->CKGR_MOR & CKGR_MOR_MOSCSEL ) {
  402248:	4b4c      	ldr	r3, [pc, #304]	; (40237c <SystemCoreClockUpdate+0x17c>)
  40224a:	6a1b      	ldr	r3, [r3, #32]
  40224c:	f003 7380 	and.w	r3, r3, #16777216	; 0x1000000
  402250:	2b00      	cmp	r3, #0
  402252:	d003      	beq.n	40225c <SystemCoreClockUpdate+0x5c>
			SystemCoreClock = CHIP_FREQ_XTAL;
  402254:	4b4b      	ldr	r3, [pc, #300]	; (402384 <SystemCoreClockUpdate+0x184>)
  402256:	4a4c      	ldr	r2, [pc, #304]	; (402388 <SystemCoreClockUpdate+0x188>)
  402258:	601a      	str	r2, [r3, #0]
  40225a:	e019      	b.n	402290 <SystemCoreClockUpdate+0x90>
		} else {
			SystemCoreClock = CHIP_FREQ_MAINCK_RC_4MHZ;
  40225c:	4b49      	ldr	r3, [pc, #292]	; (402384 <SystemCoreClockUpdate+0x184>)
  40225e:	4a4b      	ldr	r2, [pc, #300]	; (40238c <SystemCoreClockUpdate+0x18c>)
  402260:	601a      	str	r2, [r3, #0]
			
			switch ( PMC->CKGR_MOR & CKGR_MOR_MOSCRCF_Msk ) {
  402262:	4b46      	ldr	r3, [pc, #280]	; (40237c <SystemCoreClockUpdate+0x17c>)
  402264:	6a1b      	ldr	r3, [r3, #32]
  402266:	f003 0370 	and.w	r3, r3, #112	; 0x70
  40226a:	2b10      	cmp	r3, #16
  40226c:	d008      	beq.n	402280 <SystemCoreClockUpdate+0x80>
  40226e:	2b20      	cmp	r3, #32
  402270:	d00a      	beq.n	402288 <SystemCoreClockUpdate+0x88>
  402272:	2b00      	cmp	r3, #0
  402274:	d000      	beq.n	402278 <SystemCoreClockUpdate+0x78>
			case CKGR_MOR_MOSCRCF_12_MHz:
				SystemCoreClock = CHIP_FREQ_MAINCK_RC_12MHZ;
			break;
			
			default:
			break;
  402276:	e00b      	b.n	402290 <SystemCoreClockUpdate+0x90>
		} else {
			SystemCoreClock = CHIP_FREQ_MAINCK_RC_4MHZ;
			
			switch ( PMC->CKGR_MOR & CKGR_MOR_MOSCRCF_Msk ) {
			case CKGR_MOR_MOSCRCF_4_MHz:
				SystemCoreClock = CHIP_FREQ_MAINCK_RC_4MHZ;
  402278:	4b42      	ldr	r3, [pc, #264]	; (402384 <SystemCoreClockUpdate+0x184>)
  40227a:	4a44      	ldr	r2, [pc, #272]	; (40238c <SystemCoreClockUpdate+0x18c>)
  40227c:	601a      	str	r2, [r3, #0]
			break;
  40227e:	e007      	b.n	402290 <SystemCoreClockUpdate+0x90>
			
			case CKGR_MOR_MOSCRCF_8_MHz:
				SystemCoreClock = CHIP_FREQ_MAINCK_RC_8MHZ;
  402280:	4b40      	ldr	r3, [pc, #256]	; (402384 <SystemCoreClockUpdate+0x184>)
  402282:	4a43      	ldr	r2, [pc, #268]	; (402390 <SystemCoreClockUpdate+0x190>)
  402284:	601a      	str	r2, [r3, #0]
			break;
  402286:	e003      	b.n	402290 <SystemCoreClockUpdate+0x90>
			
			case CKGR_MOR_MOSCRCF_12_MHz:
				SystemCoreClock = CHIP_FREQ_MAINCK_RC_12MHZ;
  402288:	4b3e      	ldr	r3, [pc, #248]	; (402384 <SystemCoreClockUpdate+0x184>)
  40228a:	4a3f      	ldr	r2, [pc, #252]	; (402388 <SystemCoreClockUpdate+0x188>)
  40228c:	601a      	str	r2, [r3, #0]
			break;
  40228e:	bf00      	nop
			
			default:
			break;
			}
		}
		break;
  402290:	e056      	b.n	402340 <SystemCoreClockUpdate+0x140>
		
	case PMC_MCKR_CSS_PLLA_CLK:	/* PLLA clock */
	case PMC_MCKR_CSS_PLLB_CLK:	/* PLLB clock */
			if ( PMC->CKGR_MOR & CKGR_MOR_MOSCSEL ) {
  402292:	4b3a      	ldr	r3, [pc, #232]	; (40237c <SystemCoreClockUpdate+0x17c>)
  402294:	6a1b      	ldr	r3, [r3, #32]
  402296:	f003 7380 	and.w	r3, r3, #16777216	; 0x1000000
  40229a:	2b00      	cmp	r3, #0
  40229c:	d003      	beq.n	4022a6 <SystemCoreClockUpdate+0xa6>
				SystemCoreClock = CHIP_FREQ_XTAL;
  40229e:	4b39      	ldr	r3, [pc, #228]	; (402384 <SystemCoreClockUpdate+0x184>)
  4022a0:	4a39      	ldr	r2, [pc, #228]	; (402388 <SystemCoreClockUpdate+0x188>)
  4022a2:	601a      	str	r2, [r3, #0]
  4022a4:	e019      	b.n	4022da <SystemCoreClockUpdate+0xda>
			} else {
				SystemCoreClock = CHIP_FREQ_MAINCK_RC_4MHZ;
  4022a6:	4b37      	ldr	r3, [pc, #220]	; (402384 <SystemCoreClockUpdate+0x184>)
  4022a8:	4a38      	ldr	r2, [pc, #224]	; (40238c <SystemCoreClockUpdate+0x18c>)
  4022aa:	601a      	str	r2, [r3, #0]
				
				switch ( PMC->CKGR_MOR & CKGR_MOR_MOSCRCF_Msk ) {
  4022ac:	4b33      	ldr	r3, [pc, #204]	; (40237c <SystemCoreClockUpdate+0x17c>)
  4022ae:	6a1b      	ldr	r3, [r3, #32]
  4022b0:	f003 0370 	and.w	r3, r3, #112	; 0x70
  4022b4:	2b10      	cmp	r3, #16
  4022b6:	d008      	beq.n	4022ca <SystemCoreClockUpdate+0xca>
  4022b8:	2b20      	cmp	r3, #32
  4022ba:	d00a      	beq.n	4022d2 <SystemCoreClockUpdate+0xd2>
  4022bc:	2b00      	cmp	r3, #0
  4022be:	d000      	beq.n	4022c2 <SystemCoreClockUpdate+0xc2>
				case CKGR_MOR_MOSCRCF_12_MHz:
					SystemCoreClock = CHIP_FREQ_MAINCK_RC_12MHZ;
					break;
				
				default:
					break;
  4022c0:	e00b      	b.n	4022da <SystemCoreClockUpdate+0xda>
			} else {
				SystemCoreClock = CHIP_FREQ_MAINCK_RC_4MHZ;
				
				switch ( PMC->CKGR_MOR & CKGR_MOR_MOSCRCF_Msk ) {
				case CKGR_MOR_MOSCRCF_4_MHz:
					SystemCoreClock = CHIP_FREQ_MAINCK_RC_4MHZ;
  4022c2:	4b30      	ldr	r3, [pc, #192]	; (402384 <SystemCoreClockUpdate+0x184>)
  4022c4:	4a31      	ldr	r2, [pc, #196]	; (40238c <SystemCoreClockUpdate+0x18c>)
  4022c6:	601a      	str	r2, [r3, #0]
					break;
  4022c8:	e007      	b.n	4022da <SystemCoreClockUpdate+0xda>
				
				case CKGR_MOR_MOSCRCF_8_MHz:
					SystemCoreClock = CHIP_FREQ_MAINCK_RC_8MHZ;
  4022ca:	4b2e      	ldr	r3, [pc, #184]	; (402384 <SystemCoreClockUpdate+0x184>)
  4022cc:	4a30      	ldr	r2, [pc, #192]	; (402390 <SystemCoreClockUpdate+0x190>)
  4022ce:	601a      	str	r2, [r3, #0]
					break;
  4022d0:	e003      	b.n	4022da <SystemCoreClockUpdate+0xda>
				
				case CKGR_MOR_MOSCRCF_12_MHz:
					SystemCoreClock = CHIP_FREQ_MAINCK_RC_12MHZ;
  4022d2:	4b2c      	ldr	r3, [pc, #176]	; (402384 <SystemCoreClockUpdate+0x184>)
  4022d4:	4a2c      	ldr	r2, [pc, #176]	; (402388 <SystemCoreClockUpdate+0x188>)
  4022d6:	601a      	str	r2, [r3, #0]
					break;
  4022d8:	bf00      	nop
				default:
					break;
				}
			}
			
			if ( (uint32_t)(PMC->PMC_MCKR & (uint32_t) PMC_MCKR_CSS_Msk) ==
  4022da:	4b28      	ldr	r3, [pc, #160]	; (40237c <SystemCoreClockUpdate+0x17c>)
  4022dc:	6b1b      	ldr	r3, [r3, #48]	; 0x30
  4022de:	f003 0303 	and.w	r3, r3, #3
  4022e2:	2b02      	cmp	r3, #2
  4022e4:	d115      	bne.n	402312 <SystemCoreClockUpdate+0x112>
					PMC_MCKR_CSS_PLLA_CLK ) {
				SystemCoreClock *= ((((PMC->CKGR_PLLAR) & CKGR_PLLAR_MULA_Msk)
  4022e6:	4b25      	ldr	r3, [pc, #148]	; (40237c <SystemCoreClockUpdate+0x17c>)
  4022e8:	6a9a      	ldr	r2, [r3, #40]	; 0x28
  4022ea:	4b2a      	ldr	r3, [pc, #168]	; (402394 <SystemCoreClockUpdate+0x194>)
  4022ec:	4013      	ands	r3, r2
						>> CKGR_PLLAR_MULA_Pos) + 1U);
  4022ee:	0c1b      	lsrs	r3, r3, #16
  4022f0:	3301      	adds	r3, #1
				}
			}
			
			if ( (uint32_t)(PMC->PMC_MCKR & (uint32_t) PMC_MCKR_CSS_Msk) ==
					PMC_MCKR_CSS_PLLA_CLK ) {
				SystemCoreClock *= ((((PMC->CKGR_PLLAR) & CKGR_PLLAR_MULA_Msk)
  4022f2:	4a24      	ldr	r2, [pc, #144]	; (402384 <SystemCoreClockUpdate+0x184>)
  4022f4:	6812      	ldr	r2, [r2, #0]
  4022f6:	fb02 f303 	mul.w	r3, r2, r3
  4022fa:	4a22      	ldr	r2, [pc, #136]	; (402384 <SystemCoreClockUpdate+0x184>)
  4022fc:	6013      	str	r3, [r2, #0]
						>> CKGR_PLLAR_MULA_Pos) + 1U);
				SystemCoreClock /= ((((PMC->CKGR_PLLAR) & CKGR_PLLAR_DIVA_Msk)
  4022fe:	4b1f      	ldr	r3, [pc, #124]	; (40237c <SystemCoreClockUpdate+0x17c>)
  402300:	6a9b      	ldr	r3, [r3, #40]	; 0x28
						>> CKGR_PLLAR_DIVA_Pos));
  402302:	b2db      	uxtb	r3, r3
			
			if ( (uint32_t)(PMC->PMC_MCKR & (uint32_t) PMC_MCKR_CSS_Msk) ==
					PMC_MCKR_CSS_PLLA_CLK ) {
				SystemCoreClock *= ((((PMC->CKGR_PLLAR) & CKGR_PLLAR_MULA_Msk)
						>> CKGR_PLLAR_MULA_Pos) + 1U);
				SystemCoreClock /= ((((PMC->CKGR_PLLAR) & CKGR_PLLAR_DIVA_Msk)
  402304:	4a1f      	ldr	r2, [pc, #124]	; (402384 <SystemCoreClockUpdate+0x184>)
  402306:	6812      	ldr	r2, [r2, #0]
  402308:	fbb2 f3f3 	udiv	r3, r2, r3
  40230c:	4a1d      	ldr	r2, [pc, #116]	; (402384 <SystemCoreClockUpdate+0x184>)
  40230e:	6013      	str	r3, [r2, #0]
				SystemCoreClock *= ((((PMC->CKGR_PLLBR) & CKGR_PLLBR_MULB_Msk)
						>> CKGR_PLLBR_MULB_Pos) + 1U);
				SystemCoreClock /= ((((PMC->CKGR_PLLBR) & CKGR_PLLBR_DIVB_Msk)
						>> CKGR_PLLBR_DIVB_Pos));
			}
		break;
  402310:	e016      	b.n	402340 <SystemCoreClockUpdate+0x140>
				SystemCoreClock *= ((((PMC->CKGR_PLLAR) & CKGR_PLLAR_MULA_Msk)
						>> CKGR_PLLAR_MULA_Pos) + 1U);
				SystemCoreClock /= ((((PMC->CKGR_PLLAR) & CKGR_PLLAR_DIVA_Msk)
						>> CKGR_PLLAR_DIVA_Pos));
			} else {
				SystemCoreClock *= ((((PMC->CKGR_PLLBR) & CKGR_PLLBR_MULB_Msk)
  402312:	4b1a      	ldr	r3, [pc, #104]	; (40237c <SystemCoreClockUpdate+0x17c>)
  402314:	6ada      	ldr	r2, [r3, #44]	; 0x2c
  402316:	4b1f      	ldr	r3, [pc, #124]	; (402394 <SystemCoreClockUpdate+0x194>)
  402318:	4013      	ands	r3, r2
						>> CKGR_PLLBR_MULB_Pos) + 1U);
  40231a:	0c1b      	lsrs	r3, r3, #16
  40231c:	3301      	adds	r3, #1
				SystemCoreClock *= ((((PMC->CKGR_PLLAR) & CKGR_PLLAR_MULA_Msk)
						>> CKGR_PLLAR_MULA_Pos) + 1U);
				SystemCoreClock /= ((((PMC->CKGR_PLLAR) & CKGR_PLLAR_DIVA_Msk)
						>> CKGR_PLLAR_DIVA_Pos));
			} else {
				SystemCoreClock *= ((((PMC->CKGR_PLLBR) & CKGR_PLLBR_MULB_Msk)
  40231e:	4a19      	ldr	r2, [pc, #100]	; (402384 <SystemCoreClockUpdate+0x184>)
  402320:	6812      	ldr	r2, [r2, #0]
  402322:	fb02 f303 	mul.w	r3, r2, r3
  402326:	4a17      	ldr	r2, [pc, #92]	; (402384 <SystemCoreClockUpdate+0x184>)
  402328:	6013      	str	r3, [r2, #0]
						>> CKGR_PLLBR_MULB_Pos) + 1U);
				SystemCoreClock /= ((((PMC->CKGR_PLLBR) & CKGR_PLLBR_DIVB_Msk)
  40232a:	4b14      	ldr	r3, [pc, #80]	; (40237c <SystemCoreClockUpdate+0x17c>)
  40232c:	6adb      	ldr	r3, [r3, #44]	; 0x2c
						>> CKGR_PLLBR_DIVB_Pos));
  40232e:	b2db      	uxtb	r3, r3
				SystemCoreClock /= ((((PMC->CKGR_PLLAR) & CKGR_PLLAR_DIVA_Msk)
						>> CKGR_PLLAR_DIVA_Pos));
			} else {
				SystemCoreClock *= ((((PMC->CKGR_PLLBR) & CKGR_PLLBR_MULB_Msk)
						>> CKGR_PLLBR_MULB_Pos) + 1U);
				SystemCoreClock /= ((((PMC->CKGR_PLLBR) & CKGR_PLLBR_DIVB_Msk)
  402330:	4a14      	ldr	r2, [pc, #80]	; (402384 <SystemCoreClockUpdate+0x184>)
  402332:	6812      	ldr	r2, [r2, #0]
  402334:	fbb2 f3f3 	udiv	r3, r2, r3
  402338:	4a12      	ldr	r2, [pc, #72]	; (402384 <SystemCoreClockUpdate+0x184>)
  40233a:	6013      	str	r3, [r2, #0]
						>> CKGR_PLLBR_DIVB_Pos));
			}
		break;
  40233c:	e000      	b.n	402340 <SystemCoreClockUpdate+0x140>
		
	default:
		break;
  40233e:	bf00      	nop
	}

	if ( (PMC->PMC_MCKR & PMC_MCKR_PRES_Msk) == PMC_MCKR_PRES_CLK_3 ) {
  402340:	4b0e      	ldr	r3, [pc, #56]	; (40237c <SystemCoreClockUpdate+0x17c>)
  402342:	6b1b      	ldr	r3, [r3, #48]	; 0x30
  402344:	f003 0370 	and.w	r3, r3, #112	; 0x70
  402348:	2b70      	cmp	r3, #112	; 0x70
  40234a:	d108      	bne.n	40235e <SystemCoreClockUpdate+0x15e>
		SystemCoreClock /= 3U;
  40234c:	4b0d      	ldr	r3, [pc, #52]	; (402384 <SystemCoreClockUpdate+0x184>)
  40234e:	681b      	ldr	r3, [r3, #0]
  402350:	4a11      	ldr	r2, [pc, #68]	; (402398 <SystemCoreClockUpdate+0x198>)
  402352:	fba2 2303 	umull	r2, r3, r2, r3
  402356:	085b      	lsrs	r3, r3, #1
  402358:	4a0a      	ldr	r2, [pc, #40]	; (402384 <SystemCoreClockUpdate+0x184>)
  40235a:	6013      	str	r3, [r2, #0]
  40235c:	e009      	b.n	402372 <SystemCoreClockUpdate+0x172>
	} else {
		SystemCoreClock >>=
			((PMC->PMC_MCKR & PMC_MCKR_PRES_Msk) >> PMC_MCKR_PRES_Pos);
  40235e:	4b07      	ldr	r3, [pc, #28]	; (40237c <SystemCoreClockUpdate+0x17c>)
  402360:	6b1b      	ldr	r3, [r3, #48]	; 0x30
  402362:	f003 0370 	and.w	r3, r3, #112	; 0x70
  402366:	091a      	lsrs	r2, r3, #4
	}

	if ( (PMC->PMC_MCKR & PMC_MCKR_PRES_Msk) == PMC_MCKR_PRES_CLK_3 ) {
		SystemCoreClock /= 3U;
	} else {
		SystemCoreClock >>=
  402368:	4b06      	ldr	r3, [pc, #24]	; (402384 <SystemCoreClockUpdate+0x184>)
  40236a:	681b      	ldr	r3, [r3, #0]
  40236c:	40d3      	lsrs	r3, r2
  40236e:	4a05      	ldr	r2, [pc, #20]	; (402384 <SystemCoreClockUpdate+0x184>)
  402370:	6013      	str	r3, [r2, #0]
			((PMC->PMC_MCKR & PMC_MCKR_PRES_Msk) >> PMC_MCKR_PRES_Pos);
	}
}
  402372:	46bd      	mov	sp, r7
  402374:	f85d 7b04 	ldr.w	r7, [sp], #4
  402378:	4770      	bx	lr
  40237a:	bf00      	nop
  40237c:	400e0400 	.word	0x400e0400
  402380:	400e1410 	.word	0x400e1410
  402384:	20000008 	.word	0x20000008
  402388:	00b71b00 	.word	0x00b71b00
  40238c:	003d0900 	.word	0x003d0900
  402390:	007a1200 	.word	0x007a1200
  402394:	07ff0000 	.word	0x07ff0000
  402398:	aaaaaaab 	.word	0xaaaaaaab

0040239c <system_init_flash>:
 * \brief Initialize flash wait state according to operating frequency.
 *
 * \param ul_clk System clock frequency.
 */
void system_init_flash( uint32_t ul_clk )
{
  40239c:	b480      	push	{r7}
  40239e:	b083      	sub	sp, #12
  4023a0:	af00      	add	r7, sp, #0
  4023a2:	6078      	str	r0, [r7, #4]
				}
			}
		}
	}
#else
	if ( ul_clk < CHIP_FREQ_FWS_0 ) {
  4023a4:	687b      	ldr	r3, [r7, #4]
  4023a6:	4a22      	ldr	r2, [pc, #136]	; (402430 <system_init_flash+0x94>)
  4023a8:	4293      	cmp	r3, r2
  4023aa:	d808      	bhi.n	4023be <system_init_flash+0x22>
		EFC0->EEFC_FMR = EEFC_FMR_FWS(0)|EEFC_FMR_CLOE;
  4023ac:	4b21      	ldr	r3, [pc, #132]	; (402434 <system_init_flash+0x98>)
  4023ae:	f04f 6280 	mov.w	r2, #67108864	; 0x4000000
  4023b2:	601a      	str	r2, [r3, #0]
		EFC1->EEFC_FMR = EEFC_FMR_FWS(0)|EEFC_FMR_CLOE;
  4023b4:	4b20      	ldr	r3, [pc, #128]	; (402438 <system_init_flash+0x9c>)
  4023b6:	f04f 6280 	mov.w	r2, #67108864	; 0x4000000
  4023ba:	601a      	str	r2, [r3, #0]
  4023bc:	e033      	b.n	402426 <system_init_flash+0x8a>
	} else {
		if ( ul_clk < CHIP_FREQ_FWS_1 ) {
  4023be:	687b      	ldr	r3, [r7, #4]
  4023c0:	4a1e      	ldr	r2, [pc, #120]	; (40243c <system_init_flash+0xa0>)
  4023c2:	4293      	cmp	r3, r2
  4023c4:	d806      	bhi.n	4023d4 <system_init_flash+0x38>
			EFC0->EEFC_FMR = EEFC_FMR_FWS(1)|EEFC_FMR_CLOE;
  4023c6:	4b1b      	ldr	r3, [pc, #108]	; (402434 <system_init_flash+0x98>)
  4023c8:	4a1d      	ldr	r2, [pc, #116]	; (402440 <system_init_flash+0xa4>)
  4023ca:	601a      	str	r2, [r3, #0]
			EFC1->EEFC_FMR = EEFC_FMR_FWS(1)|EEFC_FMR_CLOE;
  4023cc:	4b1a      	ldr	r3, [pc, #104]	; (402438 <system_init_flash+0x9c>)
  4023ce:	4a1c      	ldr	r2, [pc, #112]	; (402440 <system_init_flash+0xa4>)
  4023d0:	601a      	str	r2, [r3, #0]
  4023d2:	e028      	b.n	402426 <system_init_flash+0x8a>
		} else {
			if ( ul_clk < CHIP_FREQ_FWS_2 ) {
  4023d4:	687b      	ldr	r3, [r7, #4]
  4023d6:	4a1b      	ldr	r2, [pc, #108]	; (402444 <system_init_flash+0xa8>)
  4023d8:	4293      	cmp	r3, r2
  4023da:	d806      	bhi.n	4023ea <system_init_flash+0x4e>
				EFC0->EEFC_FMR = EEFC_FMR_FWS(2)|EEFC_FMR_CLOE;
  4023dc:	4b15      	ldr	r3, [pc, #84]	; (402434 <system_init_flash+0x98>)
  4023de:	4a1a      	ldr	r2, [pc, #104]	; (402448 <system_init_flash+0xac>)
  4023e0:	601a      	str	r2, [r3, #0]
				EFC1->EEFC_FMR = EEFC_FMR_FWS(2)|EEFC_FMR_CLOE;
  4023e2:	4b15      	ldr	r3, [pc, #84]	; (402438 <system_init_flash+0x9c>)
  4023e4:	4a18      	ldr	r2, [pc, #96]	; (402448 <system_init_flash+0xac>)
  4023e6:	601a      	str	r2, [r3, #0]
  4023e8:	e01d      	b.n	402426 <system_init_flash+0x8a>
			} else {
				if ( ul_clk < CHIP_FREQ_FWS_3 ) {
  4023ea:	687b      	ldr	r3, [r7, #4]
  4023ec:	4a17      	ldr	r2, [pc, #92]	; (40244c <system_init_flash+0xb0>)
  4023ee:	4293      	cmp	r3, r2
  4023f0:	d806      	bhi.n	402400 <system_init_flash+0x64>
					EFC0->EEFC_FMR = EEFC_FMR_FWS(3)|EEFC_FMR_CLOE;
  4023f2:	4b10      	ldr	r3, [pc, #64]	; (402434 <system_init_flash+0x98>)
  4023f4:	4a16      	ldr	r2, [pc, #88]	; (402450 <system_init_flash+0xb4>)
  4023f6:	601a      	str	r2, [r3, #0]
					EFC1->EEFC_FMR = EEFC_FMR_FWS(3)|EEFC_FMR_CLOE;
  4023f8:	4b0f      	ldr	r3, [pc, #60]	; (402438 <system_init_flash+0x9c>)
  4023fa:	4a15      	ldr	r2, [pc, #84]	; (402450 <system_init_flash+0xb4>)
  4023fc:	601a      	str	r2, [r3, #0]
  4023fe:	e012      	b.n	402426 <system_init_flash+0x8a>
				} else {
					if ( ul_clk < CHIP_FREQ_FWS_4 ) {
  402400:	687b      	ldr	r3, [r7, #4]
  402402:	4a14      	ldr	r2, [pc, #80]	; (402454 <system_init_flash+0xb8>)
  402404:	4293      	cmp	r3, r2
  402406:	d808      	bhi.n	40241a <system_init_flash+0x7e>
						EFC0->EEFC_FMR = EEFC_FMR_FWS(4)|EEFC_FMR_CLOE;
  402408:	4b0a      	ldr	r3, [pc, #40]	; (402434 <system_init_flash+0x98>)
  40240a:	f04f 2204 	mov.w	r2, #67109888	; 0x4000400
  40240e:	601a      	str	r2, [r3, #0]
						EFC1->EEFC_FMR = EEFC_FMR_FWS(4)|EEFC_FMR_CLOE;
  402410:	4b09      	ldr	r3, [pc, #36]	; (402438 <system_init_flash+0x9c>)
  402412:	f04f 2204 	mov.w	r2, #67109888	; 0x4000400
  402416:	601a      	str	r2, [r3, #0]
  402418:	e005      	b.n	402426 <system_init_flash+0x8a>
					} else {
						EFC0->EEFC_FMR = EEFC_FMR_FWS(5)|EEFC_FMR_CLOE;
  40241a:	4b06      	ldr	r3, [pc, #24]	; (402434 <system_init_flash+0x98>)
  40241c:	4a0e      	ldr	r2, [pc, #56]	; (402458 <system_init_flash+0xbc>)
  40241e:	601a      	str	r2, [r3, #0]
						EFC1->EEFC_FMR = EEFC_FMR_FWS(5)|EEFC_FMR_CLOE;
  402420:	4b05      	ldr	r3, [pc, #20]	; (402438 <system_init_flash+0x9c>)
  402422:	4a0d      	ldr	r2, [pc, #52]	; (402458 <system_init_flash+0xbc>)
  402424:	601a      	str	r2, [r3, #0]
				}
			}
		}
	}
#endif
}
  402426:	370c      	adds	r7, #12
  402428:	46bd      	mov	sp, r7
  40242a:	f85d 7b04 	ldr.w	r7, [sp], #4
  40242e:	4770      	bx	lr
  402430:	01312cff 	.word	0x01312cff
  402434:	400e0a00 	.word	0x400e0a00
  402438:	400e0c00 	.word	0x400e0c00
  40243c:	026259ff 	.word	0x026259ff
  402440:	04000100 	.word	0x04000100
  402444:	039386ff 	.word	0x039386ff
  402448:	04000200 	.word	0x04000200
  40244c:	04c4b3ff 	.word	0x04c4b3ff
  402450:	04000300 	.word	0x04000300
  402454:	05f5e0ff 	.word	0x05f5e0ff
  402458:	04000500 	.word	0x04000500

0040245c <_sbrk>:
extern void _exit(int status);
extern void _kill(int pid, int sig);
extern int _getpid(void);

extern caddr_t _sbrk(int incr)
{
  40245c:	b480      	push	{r7}
  40245e:	b085      	sub	sp, #20
  402460:	af00      	add	r7, sp, #0
  402462:	6078      	str	r0, [r7, #4]
	static unsigned char *heap = NULL;
	unsigned char *prev_heap;
	int ramend = (int)&__ram_end__;
  402464:	4b10      	ldr	r3, [pc, #64]	; (4024a8 <_sbrk+0x4c>)
  402466:	60fb      	str	r3, [r7, #12]

	if (heap == NULL) {
  402468:	4b10      	ldr	r3, [pc, #64]	; (4024ac <_sbrk+0x50>)
  40246a:	681b      	ldr	r3, [r3, #0]
  40246c:	2b00      	cmp	r3, #0
  40246e:	d102      	bne.n	402476 <_sbrk+0x1a>
		heap = (unsigned char *)&_end;
  402470:	4b0e      	ldr	r3, [pc, #56]	; (4024ac <_sbrk+0x50>)
  402472:	4a0f      	ldr	r2, [pc, #60]	; (4024b0 <_sbrk+0x54>)
  402474:	601a      	str	r2, [r3, #0]
	}
	prev_heap = heap;
  402476:	4b0d      	ldr	r3, [pc, #52]	; (4024ac <_sbrk+0x50>)
  402478:	681b      	ldr	r3, [r3, #0]
  40247a:	60bb      	str	r3, [r7, #8]

	if (((int)prev_heap + incr) > ramend) {
  40247c:	68ba      	ldr	r2, [r7, #8]
  40247e:	687b      	ldr	r3, [r7, #4]
  402480:	441a      	add	r2, r3
  402482:	68fb      	ldr	r3, [r7, #12]
  402484:	429a      	cmp	r2, r3
  402486:	dd02      	ble.n	40248e <_sbrk+0x32>
		return (caddr_t) -1;	
  402488:	f04f 33ff 	mov.w	r3, #4294967295
  40248c:	e006      	b.n	40249c <_sbrk+0x40>
	}

	heap += incr;
  40248e:	4b07      	ldr	r3, [pc, #28]	; (4024ac <_sbrk+0x50>)
  402490:	681a      	ldr	r2, [r3, #0]
  402492:	687b      	ldr	r3, [r7, #4]
  402494:	4413      	add	r3, r2
  402496:	4a05      	ldr	r2, [pc, #20]	; (4024ac <_sbrk+0x50>)
  402498:	6013      	str	r3, [r2, #0]

	return (caddr_t) prev_heap;
  40249a:	68bb      	ldr	r3, [r7, #8]
}
  40249c:	4618      	mov	r0, r3
  40249e:	3714      	adds	r7, #20
  4024a0:	46bd      	mov	sp, r7
  4024a2:	f85d 7b04 	ldr.w	r7, [sp], #4
  4024a6:	4770      	bx	lr
  4024a8:	20027ffc 	.word	0x20027ffc
  4024ac:	20000cd8 	.word	0x20000cd8
  4024b0:	20003d58 	.word	0x20003d58

004024b4 <NVIC_EnableIRQ>:
    The function enables a device-specific interrupt in the NVIC interrupt controller.

    \param [in]      IRQn  External interrupt number. Value cannot be negative.
 */
__STATIC_INLINE void NVIC_EnableIRQ(IRQn_Type IRQn)
{
  4024b4:	b480      	push	{r7}
  4024b6:	b083      	sub	sp, #12
  4024b8:	af00      	add	r7, sp, #0
  4024ba:	4603      	mov	r3, r0
  4024bc:	71fb      	strb	r3, [r7, #7]
/*  NVIC->ISER[((uint32_t)(IRQn) >> 5)] = (1 << ((uint32_t)(IRQn) & 0x1F));  enable interrupt */
  NVIC->ISER[(uint32_t)((int32_t)IRQn) >> 5] = (uint32_t)(1 << ((uint32_t)((int32_t)IRQn) & (uint32_t)0x1F)); /* enable interrupt */
  4024be:	4908      	ldr	r1, [pc, #32]	; (4024e0 <NVIC_EnableIRQ+0x2c>)
  4024c0:	f997 3007 	ldrsb.w	r3, [r7, #7]
  4024c4:	095b      	lsrs	r3, r3, #5
  4024c6:	79fa      	ldrb	r2, [r7, #7]
  4024c8:	f002 021f 	and.w	r2, r2, #31
  4024cc:	2001      	movs	r0, #1
  4024ce:	fa00 f202 	lsl.w	r2, r0, r2
  4024d2:	f841 2023 	str.w	r2, [r1, r3, lsl #2]
}
  4024d6:	370c      	adds	r7, #12
  4024d8:	46bd      	mov	sp, r7
  4024da:	f85d 7b04 	ldr.w	r7, [sp], #4
  4024de:	4770      	bx	lr
  4024e0:	e000e100 	.word	0xe000e100

004024e4 <NVIC_SetPriority>:

    \param [in]      IRQn  Interrupt number.
    \param [in]  priority  Priority to set.
 */
__STATIC_INLINE void NVIC_SetPriority(IRQn_Type IRQn, uint32_t priority)
{
  4024e4:	b480      	push	{r7}
  4024e6:	b083      	sub	sp, #12
  4024e8:	af00      	add	r7, sp, #0
  4024ea:	4603      	mov	r3, r0
  4024ec:	6039      	str	r1, [r7, #0]
  4024ee:	71fb      	strb	r3, [r7, #7]
  if(IRQn < 0) {
  4024f0:	f997 3007 	ldrsb.w	r3, [r7, #7]
  4024f4:	2b00      	cmp	r3, #0
  4024f6:	da0b      	bge.n	402510 <NVIC_SetPriority+0x2c>
    SCB->SHP[((uint32_t)(IRQn) & 0xF)-4] = ((priority << (8 - __NVIC_PRIO_BITS)) & 0xff); } /* set Priority for Cortex-M  System Interrupts */
  4024f8:	490d      	ldr	r1, [pc, #52]	; (402530 <NVIC_SetPriority+0x4c>)
  4024fa:	79fb      	ldrb	r3, [r7, #7]
  4024fc:	f003 030f 	and.w	r3, r3, #15
  402500:	3b04      	subs	r3, #4
  402502:	683a      	ldr	r2, [r7, #0]
  402504:	b2d2      	uxtb	r2, r2
  402506:	0112      	lsls	r2, r2, #4
  402508:	b2d2      	uxtb	r2, r2
  40250a:	440b      	add	r3, r1
  40250c:	761a      	strb	r2, [r3, #24]
  40250e:	e009      	b.n	402524 <NVIC_SetPriority+0x40>
  else {
    NVIC->IP[(uint32_t)(IRQn)] = ((priority << (8 - __NVIC_PRIO_BITS)) & 0xff);    }        /* set Priority for device specific Interrupts  */
  402510:	4908      	ldr	r1, [pc, #32]	; (402534 <NVIC_SetPriority+0x50>)
  402512:	f997 3007 	ldrsb.w	r3, [r7, #7]
  402516:	683a      	ldr	r2, [r7, #0]
  402518:	b2d2      	uxtb	r2, r2
  40251a:	0112      	lsls	r2, r2, #4
  40251c:	b2d2      	uxtb	r2, r2
  40251e:	440b      	add	r3, r1
  402520:	f883 2300 	strb.w	r2, [r3, #768]	; 0x300
}
  402524:	370c      	adds	r7, #12
  402526:	46bd      	mov	sp, r7
  402528:	f85d 7b04 	ldr.w	r7, [sp], #4
  40252c:	4770      	bx	lr
  40252e:	bf00      	nop
  402530:	e000ed00 	.word	0xe000ed00
  402534:	e000e100 	.word	0xe000e100

00402538 <osc_get_rate>:

	return 0;
}

static inline uint32_t osc_get_rate(uint32_t ul_id)
{
  402538:	b480      	push	{r7}
  40253a:	b083      	sub	sp, #12
  40253c:	af00      	add	r7, sp, #0
  40253e:	6078      	str	r0, [r7, #4]
	switch (ul_id) {
  402540:	687b      	ldr	r3, [r7, #4]
  402542:	2b07      	cmp	r3, #7
  402544:	d825      	bhi.n	402592 <osc_get_rate+0x5a>
  402546:	a201      	add	r2, pc, #4	; (adr r2, 40254c <osc_get_rate+0x14>)
  402548:	f852 f023 	ldr.w	pc, [r2, r3, lsl #2]
  40254c:	0040256d 	.word	0x0040256d
  402550:	00402573 	.word	0x00402573
  402554:	00402579 	.word	0x00402579
  402558:	0040257f 	.word	0x0040257f
  40255c:	00402583 	.word	0x00402583
  402560:	00402587 	.word	0x00402587
  402564:	0040258b 	.word	0x0040258b
  402568:	0040258f 	.word	0x0040258f
	case OSC_SLCK_32K_RC:
		return OSC_SLCK_32K_RC_HZ;
  40256c:	f44f 43fa 	mov.w	r3, #32000	; 0x7d00
  402570:	e010      	b.n	402594 <osc_get_rate+0x5c>

	case OSC_SLCK_32K_XTAL:
		return BOARD_FREQ_SLCK_XTAL;
  402572:	f44f 4300 	mov.w	r3, #32768	; 0x8000
  402576:	e00d      	b.n	402594 <osc_get_rate+0x5c>

	case OSC_SLCK_32K_BYPASS:
		return BOARD_FREQ_SLCK_BYPASS;
  402578:	f44f 4300 	mov.w	r3, #32768	; 0x8000
  40257c:	e00a      	b.n	402594 <osc_get_rate+0x5c>

	case OSC_MAINCK_4M_RC:
		return OSC_MAINCK_4M_RC_HZ;
  40257e:	4b08      	ldr	r3, [pc, #32]	; (4025a0 <osc_get_rate+0x68>)
  402580:	e008      	b.n	402594 <osc_get_rate+0x5c>

	case OSC_MAINCK_8M_RC:
		return OSC_MAINCK_8M_RC_HZ;
  402582:	4b08      	ldr	r3, [pc, #32]	; (4025a4 <osc_get_rate+0x6c>)
  402584:	e006      	b.n	402594 <osc_get_rate+0x5c>

	case OSC_MAINCK_12M_RC:
		return OSC_MAINCK_12M_RC_HZ;
  402586:	4b08      	ldr	r3, [pc, #32]	; (4025a8 <osc_get_rate+0x70>)
  402588:	e004      	b.n	402594 <osc_get_rate+0x5c>

	case OSC_MAINCK_XTAL:
		return BOARD_FREQ_MAINCK_XTAL;
  40258a:	4b07      	ldr	r3, [pc, #28]	; (4025a8 <osc_get_rate+0x70>)
  40258c:	e002      	b.n	402594 <osc_get_rate+0x5c>

	case OSC_MAINCK_BYPASS:
		return BOARD_FREQ_MAINCK_BYPASS;
  40258e:	4b06      	ldr	r3, [pc, #24]	; (4025a8 <osc_get_rate+0x70>)
  402590:	e000      	b.n	402594 <osc_get_rate+0x5c>
	}

	return 0;
  402592:	2300      	movs	r3, #0
}
  402594:	4618      	mov	r0, r3
  402596:	370c      	adds	r7, #12
  402598:	46bd      	mov	sp, r7
  40259a:	f85d 7b04 	ldr.w	r7, [sp], #4
  40259e:	4770      	bx	lr
  4025a0:	003d0900 	.word	0x003d0900
  4025a4:	007a1200 	.word	0x007a1200
  4025a8:	00b71b00 	.word	0x00b71b00

004025ac <sysclk_get_main_hz>:
 */
#if (defined CONFIG_SYSCLK_DEFAULT_RETURNS_SLOW_OSC)
extern uint32_t sysclk_initialized;
#endif
static inline uint32_t sysclk_get_main_hz(void)
{
  4025ac:	b580      	push	{r7, lr}
  4025ae:	af00      	add	r7, sp, #0
	} else if (CONFIG_SYSCLK_SOURCE == SYSCLK_SRC_MAINCK_BYPASS) {
		return OSC_MAINCK_BYPASS_HZ;
	}
#ifdef CONFIG_PLL0_SOURCE
	else if (CONFIG_SYSCLK_SOURCE == SYSCLK_SRC_PLLACK) {
		return pll_get_default_rate(0);
  4025b0:	2006      	movs	r0, #6
  4025b2:	4b04      	ldr	r3, [pc, #16]	; (4025c4 <sysclk_get_main_hz+0x18>)
  4025b4:	4798      	blx	r3
  4025b6:	4602      	mov	r2, r0
  4025b8:	4613      	mov	r3, r2
  4025ba:	009b      	lsls	r3, r3, #2
  4025bc:	4413      	add	r3, r2
  4025be:	009b      	lsls	r3, r3, #2

	else {
		/* unhandled_case(CONFIG_SYSCLK_SOURCE); */
		return 0;
	}
}
  4025c0:	4618      	mov	r0, r3
  4025c2:	bd80      	pop	{r7, pc}
  4025c4:	00402539 	.word	0x00402539

004025c8 <sysclk_get_cpu_hz>:
 * clocks.
 *
 * \return Frequency of the CPU clock, in Hz.
 */
static inline uint32_t sysclk_get_cpu_hz(void)
{
  4025c8:	b580      	push	{r7, lr}
  4025ca:	af00      	add	r7, sp, #0
	/* CONFIG_SYSCLK_PRES is the register value for setting the expected */
	/* prescaler, not an immediate value. */
	return sysclk_get_main_hz() /
  4025cc:	4b02      	ldr	r3, [pc, #8]	; (4025d8 <sysclk_get_cpu_hz+0x10>)
  4025ce:	4798      	blx	r3
  4025d0:	4603      	mov	r3, r0
  4025d2:	085b      	lsrs	r3, r3, #1
		((CONFIG_SYSCLK_PRES == SYSCLK_PRES_3) ? 3 :
			(1 << (CONFIG_SYSCLK_PRES >> PMC_MCKR_PRES_Pos)));
}
  4025d4:	4618      	mov	r0, r3
  4025d6:	bd80      	pop	{r7, pc}
  4025d8:	004025ad 	.word	0x004025ad

004025dc <TC0_Handler>:

/************************************************************************/
/* HANDLER                                                              */
/************************************************************************/
void TC0_Handler(void)
{
  4025dc:	b580      	push	{r7, lr}
  4025de:	b082      	sub	sp, #8
  4025e0:	af00      	add	r7, sp, #0
	volatile uint32_t ul_dummy;

    /****************************************************************
	* Devemos indicar ao TC que a interrupo foi satisfeita.
    ******************************************************************/
	ul_dummy = tc_get_status(TC0, 0);
  4025e2:	4806      	ldr	r0, [pc, #24]	; (4025fc <TC0_Handler+0x20>)
  4025e4:	2100      	movs	r1, #0
  4025e6:	4b06      	ldr	r3, [pc, #24]	; (402600 <TC0_Handler+0x24>)
  4025e8:	4798      	blx	r3
  4025ea:	4603      	mov	r3, r0
  4025ec:	607b      	str	r3, [r7, #4]

	/* Avoid compiler warning */
	UNUSED(ul_dummy);
  4025ee:	687b      	ldr	r3, [r7, #4]
	
	adc_start(ADC);
  4025f0:	4804      	ldr	r0, [pc, #16]	; (402604 <TC0_Handler+0x28>)
  4025f2:	4b05      	ldr	r3, [pc, #20]	; (402608 <TC0_Handler+0x2c>)
  4025f4:	4798      	blx	r3

}
  4025f6:	3708      	adds	r7, #8
  4025f8:	46bd      	mov	sp, r7
  4025fa:	bd80      	pop	{r7, pc}
  4025fc:	40010000 	.word	0x40010000
  402600:	00400365 	.word	0x00400365
  402604:	40038000 	.word	0x40038000
  402608:	004001fd 	.word	0x004001fd
  40260c:	00000000 	.word	0x00000000

00402610 <ADC_Handler>:

void ADC_Handler(void)
{
  402610:	b590      	push	{r4, r7, lr}
  402612:	b083      	sub	sp, #12
  402614:	af00      	add	r7, sp, #0
	uint32_t tmp;
	uint32_t status ;

	status = adc_get_status(ADC);
  402616:	4832      	ldr	r0, [pc, #200]	; (4026e0 <ADC_Handler+0xd0>)
  402618:	4b32      	ldr	r3, [pc, #200]	; (4026e4 <ADC_Handler+0xd4>)
  40261a:	4798      	blx	r3
  40261c:	6078      	str	r0, [r7, #4]
	
	/* Checa se a interrupo  devido ao canal 5 */
	if ((status & ADC_ISR_EOC5)) {
  40261e:	687b      	ldr	r3, [r7, #4]
  402620:	f003 0320 	and.w	r3, r3, #32
  402624:	2b00      	cmp	r3, #0
  402626:	d047      	beq.n	4026b8 <ADC_Handler+0xa8>
		tmp = adc_get_channel_value(ADC, ADC_POT_CHANNEL);
  402628:	482d      	ldr	r0, [pc, #180]	; (4026e0 <ADC_Handler+0xd0>)
  40262a:	2105      	movs	r1, #5
  40262c:	4b2e      	ldr	r3, [pc, #184]	; (4026e8 <ADC_Handler+0xd8>)
  40262e:	4798      	blx	r3
  402630:	6038      	str	r0, [r7, #0]
		sample = tmp;
  402632:	4a2e      	ldr	r2, [pc, #184]	; (4026ec <ADC_Handler+0xdc>)
  402634:	683b      	ldr	r3, [r7, #0]
  402636:	6013      	str	r3, [r2, #0]
		voltage = 3.3 * sample / (float)4095;
  402638:	4b2c      	ldr	r3, [pc, #176]	; (4026ec <ADC_Handler+0xdc>)
  40263a:	681a      	ldr	r2, [r3, #0]
  40263c:	4b2c      	ldr	r3, [pc, #176]	; (4026f0 <ADC_Handler+0xe0>)
  40263e:	4610      	mov	r0, r2
  402640:	4798      	blx	r3
  402642:	4602      	mov	r2, r0
  402644:	460b      	mov	r3, r1
  402646:	4c2b      	ldr	r4, [pc, #172]	; (4026f4 <ADC_Handler+0xe4>)
  402648:	4610      	mov	r0, r2
  40264a:	4619      	mov	r1, r3
  40264c:	a31e      	add	r3, pc, #120	; (adr r3, 4026c8 <ADC_Handler+0xb8>)
  40264e:	e9d3 2300 	ldrd	r2, r3, [r3]
  402652:	47a0      	blx	r4
  402654:	4602      	mov	r2, r0
  402656:	460b      	mov	r3, r1
  402658:	4c27      	ldr	r4, [pc, #156]	; (4026f8 <ADC_Handler+0xe8>)
  40265a:	4610      	mov	r0, r2
  40265c:	4619      	mov	r1, r3
  40265e:	a31c      	add	r3, pc, #112	; (adr r3, 4026d0 <ADC_Handler+0xc0>)
  402660:	e9d3 2300 	ldrd	r2, r3, [r3]
  402664:	47a0      	blx	r4
  402666:	4602      	mov	r2, r0
  402668:	460b      	mov	r3, r1
  40266a:	4610      	mov	r0, r2
  40266c:	4619      	mov	r1, r3
  40266e:	4b23      	ldr	r3, [pc, #140]	; (4026fc <ADC_Handler+0xec>)
  402670:	4798      	blx	r3
  402672:	4602      	mov	r2, r0
  402674:	4b22      	ldr	r3, [pc, #136]	; (402700 <ADC_Handler+0xf0>)
  402676:	601a      	str	r2, [r3, #0]
		theta = 3.1415 * sample / (float)4095;
  402678:	4b1c      	ldr	r3, [pc, #112]	; (4026ec <ADC_Handler+0xdc>)
  40267a:	681a      	ldr	r2, [r3, #0]
  40267c:	4b1c      	ldr	r3, [pc, #112]	; (4026f0 <ADC_Handler+0xe0>)
  40267e:	4610      	mov	r0, r2
  402680:	4798      	blx	r3
  402682:	4602      	mov	r2, r0
  402684:	460b      	mov	r3, r1
  402686:	4c1b      	ldr	r4, [pc, #108]	; (4026f4 <ADC_Handler+0xe4>)
  402688:	4610      	mov	r0, r2
  40268a:	4619      	mov	r1, r3
  40268c:	a312      	add	r3, pc, #72	; (adr r3, 4026d8 <ADC_Handler+0xc8>)
  40268e:	e9d3 2300 	ldrd	r2, r3, [r3]
  402692:	47a0      	blx	r4
  402694:	4602      	mov	r2, r0
  402696:	460b      	mov	r3, r1
  402698:	4c17      	ldr	r4, [pc, #92]	; (4026f8 <ADC_Handler+0xe8>)
  40269a:	4610      	mov	r0, r2
  40269c:	4619      	mov	r1, r3
  40269e:	a30c      	add	r3, pc, #48	; (adr r3, 4026d0 <ADC_Handler+0xc0>)
  4026a0:	e9d3 2300 	ldrd	r2, r3, [r3]
  4026a4:	47a0      	blx	r4
  4026a6:	4602      	mov	r2, r0
  4026a8:	460b      	mov	r3, r1
  4026aa:	4610      	mov	r0, r2
  4026ac:	4619      	mov	r1, r3
  4026ae:	4b13      	ldr	r3, [pc, #76]	; (4026fc <ADC_Handler+0xec>)
  4026b0:	4798      	blx	r3
  4026b2:	4602      	mov	r2, r0
  4026b4:	4b13      	ldr	r3, [pc, #76]	; (402704 <ADC_Handler+0xf4>)
  4026b6:	601a      	str	r2, [r3, #0]
	}
	
	lcd_refresh = 1;
  4026b8:	4b13      	ldr	r3, [pc, #76]	; (402708 <ADC_Handler+0xf8>)
  4026ba:	2201      	movs	r2, #1
  4026bc:	701a      	strb	r2, [r3, #0]
}
  4026be:	370c      	adds	r7, #12
  4026c0:	46bd      	mov	sp, r7
  4026c2:	bd90      	pop	{r4, r7, pc}
  4026c4:	f3af 8000 	nop.w
  4026c8:	66666666 	.word	0x66666666
  4026cc:	400a6666 	.word	0x400a6666
  4026d0:	00000000 	.word	0x00000000
  4026d4:	40affe00 	.word	0x40affe00
  4026d8:	c083126f 	.word	0xc083126f
  4026dc:	400921ca 	.word	0x400921ca
  4026e0:	40038000 	.word	0x40038000
  4026e4:	00400285 	.word	0x00400285
  4026e8:	00400239 	.word	0x00400239
  4026ec:	20000ce4 	.word	0x20000ce4
  4026f0:	00404161 	.word	0x00404161
  4026f4:	0040424d 	.word	0x0040424d
  4026f8:	004044a1 	.word	0x004044a1
  4026fc:	00404811 	.word	0x00404811
  402700:	20000ce8 	.word	0x20000ce8
  402704:	20000cdc 	.word	0x20000cdc
  402708:	20000ce0 	.word	0x20000ce0

0040270c <configure_tc>:

/************************************************************************/
/* CONFIGs                                                              */
/************************************************************************/
static void configure_tc(uint16_t frequency)
{
  40270c:	b580      	push	{r7, lr}
  40270e:	b084      	sub	sp, #16
  402710:	af00      	add	r7, sp, #0
  402712:	4603      	mov	r3, r0
  402714:	80fb      	strh	r3, [r7, #6]
	/*
	* Aqui atualizamos o clock da cpu que foi configurado em sysclk init
	*
	* O valor atual est'a em : 120_000_000 Hz (120Mhz)
	*/
	uint32_t ul_sysclk = sysclk_get_cpu_hz();
  402716:	4b15      	ldr	r3, [pc, #84]	; (40276c <configure_tc+0x60>)
  402718:	4798      	blx	r3
  40271a:	60f8      	str	r0, [r7, #12]
    * Parametros : 
    *  1 - ID do periferico
    * 
	*
	*****************************************************************/
	pmc_enable_periph_clk(ID_TC0);
  40271c:	2017      	movs	r0, #23
  40271e:	4b14      	ldr	r3, [pc, #80]	; (402770 <configure_tc+0x64>)
  402720:	4798      	blx	r3
	*	    TC_CMR_TCCLKS_TIMER_CLOCK3 : Clock selected: internal MCK/32 clock signal 
	*	    TC_CMR_TCCLKS_TIMER_CLOCK4 : Clock selected: internal MCK/128 clock signal
	*	    TC_CMR_TCCLKS_TIMER_CLOCK5 : Clock selected: internal SLCK clock signal 
	*
	*****************************************************************/
	tc_init(TC0, 0, TC_CMR_CPCTRG | TC_CMR_TCCLKS_TIMER_CLOCK5);
  402722:	4814      	ldr	r0, [pc, #80]	; (402774 <configure_tc+0x68>)
  402724:	2100      	movs	r1, #0
  402726:	f244 0204 	movw	r2, #16388	; 0x4004
  40272a:	4b13      	ldr	r3, [pc, #76]	; (402778 <configure_tc+0x6c>)
  40272c:	4798      	blx	r3
    *   1 - TC a ser configurado (TC0,TC1, ...)
    *   2 - Canal a ser configurado (0,1,2)
    *   3 - Valor para trigger do contador (RC)
    *****************************************************************/
   
   frequency = 32768/frequency;
  40272e:	88fb      	ldrh	r3, [r7, #6]
  402730:	f44f 4200 	mov.w	r2, #32768	; 0x8000
  402734:	fb92 f3f3 	sdiv	r3, r2, r3
  402738:	80fb      	strh	r3, [r7, #6]
   
    tc_write_rc(TC0, 0, frequency);
  40273a:	88fb      	ldrh	r3, [r7, #6]
  40273c:	480d      	ldr	r0, [pc, #52]	; (402774 <configure_tc+0x68>)
  40273e:	2100      	movs	r1, #0
  402740:	461a      	mov	r2, r3
  402742:	4b0e      	ldr	r3, [pc, #56]	; (40277c <configure_tc+0x70>)
  402744:	4798      	blx	r3
	*	        TC_IER_CPCS  : 	RC Compare 
	*	        TC_IER_LDRAS : 	RA Loading 
	*	        TC_IER_LDRBS : 	RB Loading 
	*	        TC_IER_ETRGS : 	External Trigger 
	*****************************************************************/
	tc_enable_interrupt(TC0, 0, TC_IER_CPCS);
  402746:	480b      	ldr	r0, [pc, #44]	; (402774 <configure_tc+0x68>)
  402748:	2100      	movs	r1, #0
  40274a:	2210      	movs	r2, #16
  40274c:	4b0c      	ldr	r3, [pc, #48]	; (402780 <configure_tc+0x74>)
  40274e:	4798      	blx	r3
    * Devemos configurar o NVIC para receber interrupes do TC 
    *
    * Parametros :
    *   1 - ID do perifrico
	*****************************************************************/
	NVIC_SetPriority(TC0_IRQn,0);
  402750:	2017      	movs	r0, #23
  402752:	2100      	movs	r1, #0
  402754:	4b0b      	ldr	r3, [pc, #44]	; (402784 <configure_tc+0x78>)
  402756:	4798      	blx	r3
	NVIC_EnableIRQ(TC0_IRQn);
  402758:	2017      	movs	r0, #23
  40275a:	4b0b      	ldr	r3, [pc, #44]	; (402788 <configure_tc+0x7c>)
  40275c:	4798      	blx	r3
    *
    * Parametros :
    *   1 - TC
    *   2 - Canal
	*****************************************************************/
    tc_start(TC0, 0);
  40275e:	4805      	ldr	r0, [pc, #20]	; (402774 <configure_tc+0x68>)
  402760:	2100      	movs	r1, #0
  402762:	4b0a      	ldr	r3, [pc, #40]	; (40278c <configure_tc+0x80>)
  402764:	4798      	blx	r3
}
  402766:	3710      	adds	r7, #16
  402768:	46bd      	mov	sp, r7
  40276a:	bd80      	pop	{r7, pc}
  40276c:	004025c9 	.word	0x004025c9
  402770:	004020ad 	.word	0x004020ad
  402774:	40010000 	.word	0x40010000
  402778:	004002c1 	.word	0x004002c1
  40277c:	00400319 	.word	0x00400319
  402780:	0040033d 	.word	0x0040033d
  402784:	004024e5 	.word	0x004024e5
  402788:	004024b5 	.word	0x004024b5
  40278c:	004002f9 	.word	0x004002f9

00402790 <configure_lcd>:

void configure_lcd()
{
  402790:	b598      	push	{r3, r4, r7, lr}
  402792:	af00      	add	r7, sp, #0
	/** Enable peripheral clock */
	pmc_enable_periph_clk(ID_SMC);
  402794:	200a      	movs	r0, #10
  402796:	4b23      	ldr	r3, [pc, #140]	; (402824 <configure_lcd+0x94>)
  402798:	4798      	blx	r3

	/** Configure SMC interface for Lcd */
	smc_set_setup_timing(SMC, ILI93XX_LCD_CS, SMC_SETUP_NWE_SETUP(2)
  40279a:	4823      	ldr	r0, [pc, #140]	; (402828 <configure_lcd+0x98>)
  40279c:	2101      	movs	r1, #1
  40279e:	f04f 3202 	mov.w	r2, #33686018	; 0x2020202
  4027a2:	4b22      	ldr	r3, [pc, #136]	; (40282c <configure_lcd+0x9c>)
  4027a4:	4798      	blx	r3
	| SMC_SETUP_NCS_WR_SETUP(2)
	| SMC_SETUP_NRD_SETUP(2)
	| SMC_SETUP_NCS_RD_SETUP(2));
	smc_set_pulse_timing(SMC, ILI93XX_LCD_CS, SMC_PULSE_NWE_PULSE(4)
  4027a6:	4820      	ldr	r0, [pc, #128]	; (402828 <configure_lcd+0x98>)
  4027a8:	2101      	movs	r1, #1
  4027aa:	4a21      	ldr	r2, [pc, #132]	; (402830 <configure_lcd+0xa0>)
  4027ac:	4b21      	ldr	r3, [pc, #132]	; (402834 <configure_lcd+0xa4>)
  4027ae:	4798      	blx	r3
	| SMC_PULSE_NCS_WR_PULSE(4)
	| SMC_PULSE_NRD_PULSE(10)
	| SMC_PULSE_NCS_RD_PULSE(10));
	smc_set_cycle_timing(SMC, ILI93XX_LCD_CS, SMC_CYCLE_NWE_CYCLE(10)
  4027b0:	481d      	ldr	r0, [pc, #116]	; (402828 <configure_lcd+0x98>)
  4027b2:	2101      	movs	r1, #1
  4027b4:	4a20      	ldr	r2, [pc, #128]	; (402838 <configure_lcd+0xa8>)
  4027b6:	4b21      	ldr	r3, [pc, #132]	; (40283c <configure_lcd+0xac>)
  4027b8:	4798      	blx	r3
	#if ((!defined(SAM4S)) && (!defined(SAM4E)))
	smc_set_mode(SMC, ILI93XX_LCD_CS, SMC_MODE_READ_MODE
	| SMC_MODE_WRITE_MODE
	| SMC_MODE_DBW_8_BIT);
	#else
	smc_set_mode(SMC, ILI93XX_LCD_CS, SMC_MODE_READ_MODE
  4027ba:	481b      	ldr	r0, [pc, #108]	; (402828 <configure_lcd+0x98>)
  4027bc:	2101      	movs	r1, #1
  4027be:	2203      	movs	r2, #3
  4027c0:	4b1f      	ldr	r3, [pc, #124]	; (402840 <configure_lcd+0xb0>)
  4027c2:	4798      	blx	r3
	| SMC_MODE_WRITE_MODE);
	#endif
	/** Initialize display parameter */
	g_ili93xx_display_opt.ul_width = ILI93XX_LCD_WIDTH;
  4027c4:	4b1f      	ldr	r3, [pc, #124]	; (402844 <configure_lcd+0xb4>)
  4027c6:	22f0      	movs	r2, #240	; 0xf0
  4027c8:	601a      	str	r2, [r3, #0]
	g_ili93xx_display_opt.ul_height = ILI93XX_LCD_HEIGHT;
  4027ca:	4b1e      	ldr	r3, [pc, #120]	; (402844 <configure_lcd+0xb4>)
  4027cc:	f44f 72a0 	mov.w	r2, #320	; 0x140
  4027d0:	605a      	str	r2, [r3, #4]
	g_ili93xx_display_opt.foreground_color = COLOR_BLACK;
  4027d2:	4b1c      	ldr	r3, [pc, #112]	; (402844 <configure_lcd+0xb4>)
  4027d4:	2200      	movs	r2, #0
  4027d6:	609a      	str	r2, [r3, #8]
	g_ili93xx_display_opt.background_color = COLOR_WHITE;
  4027d8:	4b1a      	ldr	r3, [pc, #104]	; (402844 <configure_lcd+0xb4>)
  4027da:	f06f 427f 	mvn.w	r2, #4278190080	; 0xff000000
  4027de:	60da      	str	r2, [r3, #12]

	/** Switch off backlight */
	aat31xx_disable_backlight();
  4027e0:	4b19      	ldr	r3, [pc, #100]	; (402848 <configure_lcd+0xb8>)
  4027e2:	4798      	blx	r3

	/** Initialize LCD */
	ili93xx_init(&g_ili93xx_display_opt);
  4027e4:	4817      	ldr	r0, [pc, #92]	; (402844 <configure_lcd+0xb4>)
  4027e6:	4b19      	ldr	r3, [pc, #100]	; (40284c <configure_lcd+0xbc>)
  4027e8:	4798      	blx	r3

	/** Set backlight level */
	aat31xx_set_backlight(AAT31XX_AVG_BACKLIGHT_LEVEL);
  4027ea:	2008      	movs	r0, #8
  4027ec:	4b18      	ldr	r3, [pc, #96]	; (402850 <configure_lcd+0xc0>)
  4027ee:	4798      	blx	r3

	ili93xx_set_foreground_color(COLOR_WHITE);
  4027f0:	f06f 407f 	mvn.w	r0, #4278190080	; 0xff000000
  4027f4:	4b17      	ldr	r3, [pc, #92]	; (402854 <configure_lcd+0xc4>)
  4027f6:	4798      	blx	r3
	ili93xx_draw_filled_rectangle(0, 0, ILI93XX_LCD_WIDTH,
  4027f8:	2000      	movs	r0, #0
  4027fa:	2100      	movs	r1, #0
  4027fc:	22f0      	movs	r2, #240	; 0xf0
  4027fe:	f44f 73a0 	mov.w	r3, #320	; 0x140
  402802:	4c15      	ldr	r4, [pc, #84]	; (402858 <configure_lcd+0xc8>)
  402804:	47a0      	blx	r4
	ILI93XX_LCD_HEIGHT);
	/** Turn on LCD */
	ili93xx_display_on();
  402806:	4b15      	ldr	r3, [pc, #84]	; (40285c <configure_lcd+0xcc>)
  402808:	4798      	blx	r3
	ili93xx_set_cursor_position(0, 0);
  40280a:	2000      	movs	r0, #0
  40280c:	2100      	movs	r1, #0
  40280e:	4b14      	ldr	r3, [pc, #80]	; (402860 <configure_lcd+0xd0>)
  402810:	4798      	blx	r3
	
	ili93xx_set_foreground_color(COLOR_BLUE);
  402812:	20ff      	movs	r0, #255	; 0xff
  402814:	4b0f      	ldr	r3, [pc, #60]	; (402854 <configure_lcd+0xc4>)
  402816:	4798      	blx	r3
	ili93xx_draw_circle(140, 160, 40);
  402818:	208c      	movs	r0, #140	; 0x8c
  40281a:	21a0      	movs	r1, #160	; 0xa0
  40281c:	2228      	movs	r2, #40	; 0x28
  40281e:	4b11      	ldr	r3, [pc, #68]	; (402864 <configure_lcd+0xd4>)
  402820:	4798      	blx	r3
}
  402822:	bd98      	pop	{r3, r4, r7, pc}
  402824:	004020ad 	.word	0x004020ad
  402828:	400e0000 	.word	0x400e0000
  40282c:	00401739 	.word	0x00401739
  402830:	0a0a0404 	.word	0x0a0a0404
  402834:	0040175d 	.word	0x0040175d
  402838:	0016000a 	.word	0x0016000a
  40283c:	00401781 	.word	0x00401781
  402840:	004017a5 	.word	0x004017a5
  402844:	20000d40 	.word	0x20000d40
  402848:	004008cd 	.word	0x004008cd
  40284c:	00400cf1 	.word	0x00400cf1
  402850:	00400845 	.word	0x00400845
  402854:	004010b9 	.word	0x004010b9
  402858:	0040141d 	.word	0x0040141d
  40285c:	00401081 	.word	0x00401081
  402860:	004011e1 	.word	0x004011e1
  402864:	004014f5 	.word	0x004014f5

00402868 <configure_adc>:

void configure_adc(void)
{
  402868:	b598      	push	{r3, r4, r7, lr}
  40286a:	af00      	add	r7, sp, #0
	/* Enable peripheral clock. */
	pmc_enable_periph_clk(ID_ADC);
  40286c:	201d      	movs	r0, #29
  40286e:	4b15      	ldr	r3, [pc, #84]	; (4028c4 <configure_adc+0x5c>)
  402870:	4798      	blx	r3
	*/
	/* Formula:
	*     Startup  Time = startup value / ADCClock
	*     Startup time = 64 / 6.4MHz = 10 us
	*/
	adc_init(ADC, sysclk_get_cpu_hz(), 6400000, STARTUP_TIME);
  402872:	4b15      	ldr	r3, [pc, #84]	; (4028c8 <configure_adc+0x60>)
  402874:	4798      	blx	r3
  402876:	4603      	mov	r3, r0
  402878:	4814      	ldr	r0, [pc, #80]	; (4028cc <configure_adc+0x64>)
  40287a:	4619      	mov	r1, r3
  40287c:	4a14      	ldr	r2, [pc, #80]	; (4028d0 <configure_adc+0x68>)
  40287e:	f44f 2380 	mov.w	r3, #262144	; 0x40000
  402882:	4c14      	ldr	r4, [pc, #80]	; (4028d4 <configure_adc+0x6c>)
  402884:	47a0      	blx	r4
	*
	*     Transfer Time = (1 * 2 + 3) / 6.4MHz = 781 ns
	*     Tracking Time = (1 + 1) / 6.4MHz = 312 ns
	*     Settling Time = 3 / 6.4MHz = 469 ns
	*/
	adc_configure_timing(ADC, TRACKING_TIME	, ADC_SETTLING_TIME_3, TRANSFER_PERIOD);
  402886:	4811      	ldr	r0, [pc, #68]	; (4028cc <configure_adc+0x64>)
  402888:	2101      	movs	r1, #1
  40288a:	f44f 1240 	mov.w	r2, #3145728	; 0x300000
  40288e:	2301      	movs	r3, #1
  402890:	4c11      	ldr	r4, [pc, #68]	; (4028d8 <configure_adc+0x70>)
  402892:	47a0      	blx	r4

	adc_configure_trigger(ADC, ADC_TRIG_SW, 0);
  402894:	480d      	ldr	r0, [pc, #52]	; (4028cc <configure_adc+0x64>)
  402896:	2100      	movs	r1, #0
  402898:	2200      	movs	r2, #0
  40289a:	4b10      	ldr	r3, [pc, #64]	; (4028dc <configure_adc+0x74>)
  40289c:	4798      	blx	r3

	//adc_check(ADC, sysclk_get_cpu_hz());

	/* Enable channel for potentiometer. */
	adc_enable_channel(ADC, ADC_POT_CHANNEL);
  40289e:	480b      	ldr	r0, [pc, #44]	; (4028cc <configure_adc+0x64>)
  4028a0:	2105      	movs	r1, #5
  4028a2:	4b0f      	ldr	r3, [pc, #60]	; (4028e0 <configure_adc+0x78>)
  4028a4:	4798      	blx	r3

	/* Enable the temperature sensor. */
	adc_enable_ts(ADC);
  4028a6:	4809      	ldr	r0, [pc, #36]	; (4028cc <configure_adc+0x64>)
  4028a8:	4b0e      	ldr	r3, [pc, #56]	; (4028e4 <configure_adc+0x7c>)
  4028aa:	4798      	blx	r3

	/* Enable ADC interrupt. */
	NVIC_EnableIRQ(ADC_IRQn);
  4028ac:	201d      	movs	r0, #29
  4028ae:	4b0e      	ldr	r3, [pc, #56]	; (4028e8 <configure_adc+0x80>)
  4028b0:	4798      	blx	r3

	/* Start conversion. */
	adc_start(ADC);
  4028b2:	4806      	ldr	r0, [pc, #24]	; (4028cc <configure_adc+0x64>)
  4028b4:	4b0d      	ldr	r3, [pc, #52]	; (4028ec <configure_adc+0x84>)
  4028b6:	4798      	blx	r3
	//adc_read_buffer(ADC, gs_s_adc_values, BUFFER_SIZE);

	//adc_get_channel_value(ADC, ADC_POT_CHANNEL);

	/* Enable PDC channel interrupt. */
	adc_enable_interrupt(ADC, ADC_ISR_EOC5);
  4028b8:	4804      	ldr	r0, [pc, #16]	; (4028cc <configure_adc+0x64>)
  4028ba:	2120      	movs	r1, #32
  4028bc:	4b0c      	ldr	r3, [pc, #48]	; (4028f0 <configure_adc+0x88>)
  4028be:	4798      	blx	r3
}
  4028c0:	bd98      	pop	{r3, r4, r7, pc}
  4028c2:	bf00      	nop
  4028c4:	004020ad 	.word	0x004020ad
  4028c8:	004025c9 	.word	0x004025c9
  4028cc:	40038000 	.word	0x40038000
  4028d0:	0061a800 	.word	0x0061a800
  4028d4:	00400129 	.word	0x00400129
  4028d8:	004001bd 	.word	0x004001bd
  4028dc:	0040018d 	.word	0x0040018d
  4028e0:	00400215 	.word	0x00400215
  4028e4:	0040029d 	.word	0x0040029d
  4028e8:	004024b5 	.word	0x004024b5
  4028ec:	004001fd 	.word	0x004001fd
  4028f0:	00400269 	.word	0x00400269

004028f4 <main>:

/************************************************************************/
/* MAIN                                                                 */
/************************************************************************/

int main(void){
  4028f4:	b5b0      	push	{r4, r5, r7, lr}
  4028f6:	af00      	add	r7, sp, #0
	
	sysclk_init();
  4028f8:	4b7d      	ldr	r3, [pc, #500]	; (402af0 <main+0x1fc>)
  4028fa:	4798      	blx	r3
	board_init();
  4028fc:	4b7d      	ldr	r3, [pc, #500]	; (402af4 <main+0x200>)
  4028fe:	4798      	blx	r3

    configure_tc(1);
  402900:	2001      	movs	r0, #1
  402902:	4b7d      	ldr	r3, [pc, #500]	; (402af8 <main+0x204>)
  402904:	4798      	blx	r3
	configure_lcd();
  402906:	4b7d      	ldr	r3, [pc, #500]	; (402afc <main+0x208>)
  402908:	4798      	blx	r3
	configure_adc();
  40290a:	4b7d      	ldr	r3, [pc, #500]	; (402b00 <main+0x20c>)
  40290c:	4798      	blx	r3
	
	while (1) {
		
		if(lcd_refresh){
  40290e:	4b7d      	ldr	r3, [pc, #500]	; (402b04 <main+0x210>)
  402910:	781b      	ldrb	r3, [r3, #0]
  402912:	2b00      	cmp	r3, #0
  402914:	f000 80eb 	beq.w	402aee <main+0x1fa>
			
			lcd_refresh = 0;
  402918:	4b7a      	ldr	r3, [pc, #488]	; (402b04 <main+0x210>)
  40291a:	2200      	movs	r2, #0
  40291c:	701a      	strb	r2, [r3, #0]
						
			sprintf(buffer, "Valor = %i", adc_value_old);
  40291e:	4b7a      	ldr	r3, [pc, #488]	; (402b08 <main+0x214>)
  402920:	681b      	ldr	r3, [r3, #0]
  402922:	487a      	ldr	r0, [pc, #488]	; (402b0c <main+0x218>)
  402924:	497a      	ldr	r1, [pc, #488]	; (402b10 <main+0x21c>)
  402926:	461a      	mov	r2, r3
  402928:	4b7a      	ldr	r3, [pc, #488]	; (402b14 <main+0x220>)
  40292a:	4798      	blx	r3
			
			adc_value_old = sample;
  40292c:	4b7a      	ldr	r3, [pc, #488]	; (402b18 <main+0x224>)
  40292e:	681b      	ldr	r3, [r3, #0]
  402930:	461a      	mov	r2, r3
  402932:	4b75      	ldr	r3, [pc, #468]	; (402b08 <main+0x214>)
  402934:	601a      	str	r2, [r3, #0]
			
			ili93xx_set_foreground_color(COLOR_WHITE);
  402936:	f06f 407f 	mvn.w	r0, #4278190080	; 0xff000000
  40293a:	4b78      	ldr	r3, [pc, #480]	; (402b1c <main+0x228>)
  40293c:	4798      	blx	r3
			ili93xx_draw_string(10, 20, buffer);
  40293e:	200a      	movs	r0, #10
  402940:	2114      	movs	r1, #20
  402942:	4a72      	ldr	r2, [pc, #456]	; (402b0c <main+0x218>)
  402944:	4b76      	ldr	r3, [pc, #472]	; (402b20 <main+0x22c>)
  402946:	4798      	blx	r3
			
			sprintf(buffer, "Valor = %i", sample);		
  402948:	4b73      	ldr	r3, [pc, #460]	; (402b18 <main+0x224>)
  40294a:	681b      	ldr	r3, [r3, #0]
  40294c:	486f      	ldr	r0, [pc, #444]	; (402b0c <main+0x218>)
  40294e:	4970      	ldr	r1, [pc, #448]	; (402b10 <main+0x21c>)
  402950:	461a      	mov	r2, r3
  402952:	4b70      	ldr	r3, [pc, #448]	; (402b14 <main+0x220>)
  402954:	4798      	blx	r3
			
			ili93xx_set_foreground_color(COLOR_BLACK);
  402956:	2000      	movs	r0, #0
  402958:	4b70      	ldr	r3, [pc, #448]	; (402b1c <main+0x228>)
  40295a:	4798      	blx	r3
			ili93xx_draw_string(10, 20, buffer);
  40295c:	200a      	movs	r0, #10
  40295e:	2114      	movs	r1, #20
  402960:	4a6a      	ldr	r2, [pc, #424]	; (402b0c <main+0x218>)
  402962:	4b6f      	ldr	r3, [pc, #444]	; (402b20 <main+0x22c>)
  402964:	4798      	blx	r3
			
			sprintf(buffer, "Valor = %2f", voltage_value_old);
  402966:	4b6f      	ldr	r3, [pc, #444]	; (402b24 <main+0x230>)
  402968:	681a      	ldr	r2, [r3, #0]
  40296a:	4b6f      	ldr	r3, [pc, #444]	; (402b28 <main+0x234>)
  40296c:	4610      	mov	r0, r2
  40296e:	4798      	blx	r3
  402970:	4602      	mov	r2, r0
  402972:	460b      	mov	r3, r1
  402974:	4865      	ldr	r0, [pc, #404]	; (402b0c <main+0x218>)
  402976:	496d      	ldr	r1, [pc, #436]	; (402b2c <main+0x238>)
  402978:	4c66      	ldr	r4, [pc, #408]	; (402b14 <main+0x220>)
  40297a:	47a0      	blx	r4
			
			voltage_value_old = voltage;
  40297c:	4b6c      	ldr	r3, [pc, #432]	; (402b30 <main+0x23c>)
  40297e:	681b      	ldr	r3, [r3, #0]
  402980:	4a68      	ldr	r2, [pc, #416]	; (402b24 <main+0x230>)
  402982:	6013      	str	r3, [r2, #0]
			
			ili93xx_set_foreground_color(COLOR_WHITE);
  402984:	f06f 407f 	mvn.w	r0, #4278190080	; 0xff000000
  402988:	4b64      	ldr	r3, [pc, #400]	; (402b1c <main+0x228>)
  40298a:	4798      	blx	r3
			ili93xx_draw_string(10, 40, buffer);
  40298c:	200a      	movs	r0, #10
  40298e:	2128      	movs	r1, #40	; 0x28
  402990:	4a5e      	ldr	r2, [pc, #376]	; (402b0c <main+0x218>)
  402992:	4b63      	ldr	r3, [pc, #396]	; (402b20 <main+0x22c>)
  402994:	4798      	blx	r3
			
			sprintf(buffer, "Valor = %2f", voltage);
  402996:	4b66      	ldr	r3, [pc, #408]	; (402b30 <main+0x23c>)
  402998:	681a      	ldr	r2, [r3, #0]
  40299a:	4b63      	ldr	r3, [pc, #396]	; (402b28 <main+0x234>)
  40299c:	4610      	mov	r0, r2
  40299e:	4798      	blx	r3
  4029a0:	4602      	mov	r2, r0
  4029a2:	460b      	mov	r3, r1
  4029a4:	4859      	ldr	r0, [pc, #356]	; (402b0c <main+0x218>)
  4029a6:	4961      	ldr	r1, [pc, #388]	; (402b2c <main+0x238>)
  4029a8:	4c5a      	ldr	r4, [pc, #360]	; (402b14 <main+0x220>)
  4029aa:	47a0      	blx	r4
			
			ili93xx_set_foreground_color(COLOR_BLACK);
  4029ac:	2000      	movs	r0, #0
  4029ae:	4b5b      	ldr	r3, [pc, #364]	; (402b1c <main+0x228>)
  4029b0:	4798      	blx	r3
			ili93xx_draw_string(10, 40, buffer);
  4029b2:	200a      	movs	r0, #10
  4029b4:	2128      	movs	r1, #40	; 0x28
  4029b6:	4a55      	ldr	r2, [pc, #340]	; (402b0c <main+0x218>)
  4029b8:	4b59      	ldr	r3, [pc, #356]	; (402b20 <main+0x22c>)
  4029ba:	4798      	blx	r3
			
			ili93xx_set_foreground_color(COLOR_WHITE);
  4029bc:	f06f 407f 	mvn.w	r0, #4278190080	; 0xff000000
  4029c0:	4b56      	ldr	r3, [pc, #344]	; (402b1c <main+0x228>)
  4029c2:	4798      	blx	r3
			ili93xx_draw_line(140, 160, 140-60*cos_value_old, 160-60*sin_value_old);
  4029c4:	4b5b      	ldr	r3, [pc, #364]	; (402b34 <main+0x240>)
  4029c6:	681a      	ldr	r2, [r3, #0]
  4029c8:	4b5b      	ldr	r3, [pc, #364]	; (402b38 <main+0x244>)
  4029ca:	4610      	mov	r0, r2
  4029cc:	495b      	ldr	r1, [pc, #364]	; (402b3c <main+0x248>)
  4029ce:	4798      	blx	r3
  4029d0:	4603      	mov	r3, r0
  4029d2:	461a      	mov	r2, r3
  4029d4:	4b5a      	ldr	r3, [pc, #360]	; (402b40 <main+0x24c>)
  4029d6:	485b      	ldr	r0, [pc, #364]	; (402b44 <main+0x250>)
  4029d8:	4611      	mov	r1, r2
  4029da:	4798      	blx	r3
  4029dc:	4603      	mov	r3, r0
  4029de:	461a      	mov	r2, r3
  4029e0:	4b59      	ldr	r3, [pc, #356]	; (402b48 <main+0x254>)
  4029e2:	4610      	mov	r0, r2
  4029e4:	4798      	blx	r3
  4029e6:	4604      	mov	r4, r0
  4029e8:	4b58      	ldr	r3, [pc, #352]	; (402b4c <main+0x258>)
  4029ea:	681a      	ldr	r2, [r3, #0]
  4029ec:	4b52      	ldr	r3, [pc, #328]	; (402b38 <main+0x244>)
  4029ee:	4610      	mov	r0, r2
  4029f0:	4952      	ldr	r1, [pc, #328]	; (402b3c <main+0x248>)
  4029f2:	4798      	blx	r3
  4029f4:	4603      	mov	r3, r0
  4029f6:	461a      	mov	r2, r3
  4029f8:	4b51      	ldr	r3, [pc, #324]	; (402b40 <main+0x24c>)
  4029fa:	4855      	ldr	r0, [pc, #340]	; (402b50 <main+0x25c>)
  4029fc:	4611      	mov	r1, r2
  4029fe:	4798      	blx	r3
  402a00:	4603      	mov	r3, r0
  402a02:	461a      	mov	r2, r3
  402a04:	4b50      	ldr	r3, [pc, #320]	; (402b48 <main+0x254>)
  402a06:	4610      	mov	r0, r2
  402a08:	4798      	blx	r3
  402a0a:	4603      	mov	r3, r0
  402a0c:	208c      	movs	r0, #140	; 0x8c
  402a0e:	21a0      	movs	r1, #160	; 0xa0
  402a10:	4622      	mov	r2, r4
  402a12:	4c50      	ldr	r4, [pc, #320]	; (402b54 <main+0x260>)
  402a14:	47a0      	blx	r4
			
			ili93xx_set_foreground_color(COLOR_BLUE);
  402a16:	20ff      	movs	r0, #255	; 0xff
  402a18:	4b40      	ldr	r3, [pc, #256]	; (402b1c <main+0x228>)
  402a1a:	4798      	blx	r3
			ili93xx_draw_line(140, 160, 140-60*cos(theta), 160-60*sin(theta));
  402a1c:	4b4e      	ldr	r3, [pc, #312]	; (402b58 <main+0x264>)
  402a1e:	681a      	ldr	r2, [r3, #0]
  402a20:	4b41      	ldr	r3, [pc, #260]	; (402b28 <main+0x234>)
  402a22:	4610      	mov	r0, r2
  402a24:	4798      	blx	r3
  402a26:	4602      	mov	r2, r0
  402a28:	460b      	mov	r3, r1
  402a2a:	4610      	mov	r0, r2
  402a2c:	4619      	mov	r1, r3
  402a2e:	4b4b      	ldr	r3, [pc, #300]	; (402b5c <main+0x268>)
  402a30:	4798      	blx	r3
  402a32:	4602      	mov	r2, r0
  402a34:	460b      	mov	r3, r1
  402a36:	4c4a      	ldr	r4, [pc, #296]	; (402b60 <main+0x26c>)
  402a38:	4610      	mov	r0, r2
  402a3a:	4619      	mov	r1, r3
  402a3c:	f04f 0200 	mov.w	r2, #0
  402a40:	4b48      	ldr	r3, [pc, #288]	; (402b64 <main+0x270>)
  402a42:	47a0      	blx	r4
  402a44:	4602      	mov	r2, r0
  402a46:	460b      	mov	r3, r1
  402a48:	4c47      	ldr	r4, [pc, #284]	; (402b68 <main+0x274>)
  402a4a:	f04f 0000 	mov.w	r0, #0
  402a4e:	4947      	ldr	r1, [pc, #284]	; (402b6c <main+0x278>)
  402a50:	47a0      	blx	r4
  402a52:	4602      	mov	r2, r0
  402a54:	460b      	mov	r3, r1
  402a56:	4610      	mov	r0, r2
  402a58:	4619      	mov	r1, r3
  402a5a:	4b45      	ldr	r3, [pc, #276]	; (402b70 <main+0x27c>)
  402a5c:	4798      	blx	r3
  402a5e:	4605      	mov	r5, r0
  402a60:	4b3d      	ldr	r3, [pc, #244]	; (402b58 <main+0x264>)
  402a62:	681a      	ldr	r2, [r3, #0]
  402a64:	4b30      	ldr	r3, [pc, #192]	; (402b28 <main+0x234>)
  402a66:	4610      	mov	r0, r2
  402a68:	4798      	blx	r3
  402a6a:	4602      	mov	r2, r0
  402a6c:	460b      	mov	r3, r1
  402a6e:	4610      	mov	r0, r2
  402a70:	4619      	mov	r1, r3
  402a72:	4b40      	ldr	r3, [pc, #256]	; (402b74 <main+0x280>)
  402a74:	4798      	blx	r3
  402a76:	4602      	mov	r2, r0
  402a78:	460b      	mov	r3, r1
  402a7a:	4c39      	ldr	r4, [pc, #228]	; (402b60 <main+0x26c>)
  402a7c:	4610      	mov	r0, r2
  402a7e:	4619      	mov	r1, r3
  402a80:	f04f 0200 	mov.w	r2, #0
  402a84:	4b37      	ldr	r3, [pc, #220]	; (402b64 <main+0x270>)
  402a86:	47a0      	blx	r4
  402a88:	4602      	mov	r2, r0
  402a8a:	460b      	mov	r3, r1
  402a8c:	4c36      	ldr	r4, [pc, #216]	; (402b68 <main+0x274>)
  402a8e:	f04f 0000 	mov.w	r0, #0
  402a92:	4939      	ldr	r1, [pc, #228]	; (402b78 <main+0x284>)
  402a94:	47a0      	blx	r4
  402a96:	4602      	mov	r2, r0
  402a98:	460b      	mov	r3, r1
  402a9a:	4610      	mov	r0, r2
  402a9c:	4619      	mov	r1, r3
  402a9e:	4b34      	ldr	r3, [pc, #208]	; (402b70 <main+0x27c>)
  402aa0:	4798      	blx	r3
  402aa2:	4603      	mov	r3, r0
  402aa4:	208c      	movs	r0, #140	; 0x8c
  402aa6:	21a0      	movs	r1, #160	; 0xa0
  402aa8:	462a      	mov	r2, r5
  402aaa:	4c2a      	ldr	r4, [pc, #168]	; (402b54 <main+0x260>)
  402aac:	47a0      	blx	r4
			
			cos_value_old = cos(theta);
  402aae:	4b2a      	ldr	r3, [pc, #168]	; (402b58 <main+0x264>)
  402ab0:	681a      	ldr	r2, [r3, #0]
  402ab2:	4b1d      	ldr	r3, [pc, #116]	; (402b28 <main+0x234>)
  402ab4:	4610      	mov	r0, r2
  402ab6:	4798      	blx	r3
  402ab8:	4602      	mov	r2, r0
  402aba:	460b      	mov	r3, r1
  402abc:	4610      	mov	r0, r2
  402abe:	4619      	mov	r1, r3
  402ac0:	4b26      	ldr	r3, [pc, #152]	; (402b5c <main+0x268>)
  402ac2:	4798      	blx	r3
  402ac4:	4b2d      	ldr	r3, [pc, #180]	; (402b7c <main+0x288>)
  402ac6:	4798      	blx	r3
  402ac8:	4602      	mov	r2, r0
  402aca:	4b1a      	ldr	r3, [pc, #104]	; (402b34 <main+0x240>)
  402acc:	601a      	str	r2, [r3, #0]
			sin_value_old = sin(theta);
  402ace:	4b22      	ldr	r3, [pc, #136]	; (402b58 <main+0x264>)
  402ad0:	681a      	ldr	r2, [r3, #0]
  402ad2:	4b15      	ldr	r3, [pc, #84]	; (402b28 <main+0x234>)
  402ad4:	4610      	mov	r0, r2
  402ad6:	4798      	blx	r3
  402ad8:	4602      	mov	r2, r0
  402ada:	460b      	mov	r3, r1
  402adc:	4610      	mov	r0, r2
  402ade:	4619      	mov	r1, r3
  402ae0:	4b24      	ldr	r3, [pc, #144]	; (402b74 <main+0x280>)
  402ae2:	4798      	blx	r3
  402ae4:	4b25      	ldr	r3, [pc, #148]	; (402b7c <main+0x288>)
  402ae6:	4798      	blx	r3
  402ae8:	4602      	mov	r2, r0
  402aea:	4b18      	ldr	r3, [pc, #96]	; (402b4c <main+0x258>)
  402aec:	601a      	str	r2, [r3, #0]
			
			
		}
		
	}
  402aee:	e70e      	b.n	40290e <main+0x1a>
  402af0:	00400665 	.word	0x00400665
  402af4:	00400709 	.word	0x00400709
  402af8:	0040270d 	.word	0x0040270d
  402afc:	00402791 	.word	0x00402791
  402b00:	00402869 	.word	0x00402869
  402b04:	20000ce0 	.word	0x20000ce0
  402b08:	20000d2c 	.word	0x20000d2c
  402b0c:	20000d30 	.word	0x20000d30
  402b10:	00409764 	.word	0x00409764
  402b14:	00404e99 	.word	0x00404e99
  402b18:	20000ce4 	.word	0x20000ce4
  402b1c:	004010b9 	.word	0x004010b9
  402b20:	004016d9 	.word	0x004016d9
  402b24:	20000d24 	.word	0x20000d24
  402b28:	004041a5 	.word	0x004041a5
  402b2c:	00409770 	.word	0x00409770
  402b30:	20000ce8 	.word	0x20000ce8
  402b34:	20000d50 	.word	0x20000d50
  402b38:	00404acd 	.word	0x00404acd
  402b3c:	42700000 	.word	0x42700000
  402b40:	004048b9 	.word	0x004048b9
  402b44:	430c0000 	.word	0x430c0000
  402b48:	00404d6d 	.word	0x00404d6d
  402b4c:	20000d28 	.word	0x20000d28
  402b50:	43200000 	.word	0x43200000
  402b54:	004013d5 	.word	0x004013d5
  402b58:	20000cdc 	.word	0x20000cdc
  402b5c:	00402b81 	.word	0x00402b81
  402b60:	0040424d 	.word	0x0040424d
  402b64:	404e0000 	.word	0x404e0000
  402b68:	00403ee5 	.word	0x00403ee5
  402b6c:	40618000 	.word	0x40618000
  402b70:	004047d1 	.word	0x004047d1
  402b74:	00402c09 	.word	0x00402c09
  402b78:	40640000 	.word	0x40640000
  402b7c:	00404811 	.word	0x00404811

00402b80 <cos>:
  402b80:	b530      	push	{r4, r5, lr}
  402b82:	4a1f      	ldr	r2, [pc, #124]	; (402c00 <cos+0x80>)
  402b84:	f021 4300 	bic.w	r3, r1, #2147483648	; 0x80000000
  402b88:	4293      	cmp	r3, r2
  402b8a:	b087      	sub	sp, #28
  402b8c:	dd1b      	ble.n	402bc6 <cos+0x46>
  402b8e:	4a1d      	ldr	r2, [pc, #116]	; (402c04 <cos+0x84>)
  402b90:	4293      	cmp	r3, r2
  402b92:	dd05      	ble.n	402ba0 <cos+0x20>
  402b94:	4602      	mov	r2, r0
  402b96:	460b      	mov	r3, r1
  402b98:	f001 f9a4 	bl	403ee4 <__aeabi_dsub>
  402b9c:	b007      	add	sp, #28
  402b9e:	bd30      	pop	{r4, r5, pc}
  402ba0:	aa02      	add	r2, sp, #8
  402ba2:	f000 f87d 	bl	402ca0 <__ieee754_rem_pio2>
  402ba6:	f000 0303 	and.w	r3, r0, #3
  402baa:	2b01      	cmp	r3, #1
  402bac:	e9dd 0102 	ldrd	r0, r1, [sp, #8]
  402bb0:	d016      	beq.n	402be0 <cos+0x60>
  402bb2:	2b02      	cmp	r3, #2
  402bb4:	d00d      	beq.n	402bd2 <cos+0x52>
  402bb6:	b1eb      	cbz	r3, 402bf4 <cos+0x74>
  402bb8:	2401      	movs	r4, #1
  402bba:	e9dd 2304 	ldrd	r2, r3, [sp, #16]
  402bbe:	9400      	str	r4, [sp, #0]
  402bc0:	f000 ffba 	bl	403b38 <__kernel_sin>
  402bc4:	e7ea      	b.n	402b9c <cos+0x1c>
  402bc6:	2200      	movs	r2, #0
  402bc8:	2300      	movs	r3, #0
  402bca:	f000 fa8d 	bl	4030e8 <__kernel_cos>
  402bce:	b007      	add	sp, #28
  402bd0:	bd30      	pop	{r4, r5, pc}
  402bd2:	e9dd 2304 	ldrd	r2, r3, [sp, #16]
  402bd6:	f000 fa87 	bl	4030e8 <__kernel_cos>
  402bda:	f101 4100 	add.w	r1, r1, #2147483648	; 0x80000000
  402bde:	e7dd      	b.n	402b9c <cos+0x1c>
  402be0:	e9dd 4504 	ldrd	r4, r5, [sp, #16]
  402be4:	9300      	str	r3, [sp, #0]
  402be6:	4622      	mov	r2, r4
  402be8:	462b      	mov	r3, r5
  402bea:	f000 ffa5 	bl	403b38 <__kernel_sin>
  402bee:	f101 4100 	add.w	r1, r1, #2147483648	; 0x80000000
  402bf2:	e7d3      	b.n	402b9c <cos+0x1c>
  402bf4:	e9dd 2304 	ldrd	r2, r3, [sp, #16]
  402bf8:	f000 fa76 	bl	4030e8 <__kernel_cos>
  402bfc:	e7ce      	b.n	402b9c <cos+0x1c>
  402bfe:	bf00      	nop
  402c00:	3fe921fb 	.word	0x3fe921fb
  402c04:	7fefffff 	.word	0x7fefffff

00402c08 <sin>:
  402c08:	b530      	push	{r4, r5, lr}
  402c0a:	4a22      	ldr	r2, [pc, #136]	; (402c94 <sin+0x8c>)
  402c0c:	f021 4300 	bic.w	r3, r1, #2147483648	; 0x80000000
  402c10:	4293      	cmp	r3, r2
  402c12:	b087      	sub	sp, #28
  402c14:	dd1b      	ble.n	402c4e <sin+0x46>
  402c16:	4a20      	ldr	r2, [pc, #128]	; (402c98 <sin+0x90>)
  402c18:	4293      	cmp	r3, r2
  402c1a:	dd05      	ble.n	402c28 <sin+0x20>
  402c1c:	4602      	mov	r2, r0
  402c1e:	460b      	mov	r3, r1
  402c20:	f001 f960 	bl	403ee4 <__aeabi_dsub>
  402c24:	b007      	add	sp, #28
  402c26:	bd30      	pop	{r4, r5, pc}
  402c28:	aa02      	add	r2, sp, #8
  402c2a:	f000 f839 	bl	402ca0 <__ieee754_rem_pio2>
  402c2e:	f000 0003 	and.w	r0, r0, #3
  402c32:	2801      	cmp	r0, #1
  402c34:	d01e      	beq.n	402c74 <sin+0x6c>
  402c36:	2802      	cmp	r0, #2
  402c38:	d011      	beq.n	402c5e <sin+0x56>
  402c3a:	b310      	cbz	r0, 402c82 <sin+0x7a>
  402c3c:	e9dd 0102 	ldrd	r0, r1, [sp, #8]
  402c40:	e9dd 2304 	ldrd	r2, r3, [sp, #16]
  402c44:	f000 fa50 	bl	4030e8 <__kernel_cos>
  402c48:	f101 4100 	add.w	r1, r1, #2147483648	; 0x80000000
  402c4c:	e7ea      	b.n	402c24 <sin+0x1c>
  402c4e:	2300      	movs	r3, #0
  402c50:	9300      	str	r3, [sp, #0]
  402c52:	2200      	movs	r2, #0
  402c54:	2300      	movs	r3, #0
  402c56:	f000 ff6f 	bl	403b38 <__kernel_sin>
  402c5a:	b007      	add	sp, #28
  402c5c:	bd30      	pop	{r4, r5, pc}
  402c5e:	2401      	movs	r4, #1
  402c60:	e9dd 0102 	ldrd	r0, r1, [sp, #8]
  402c64:	e9dd 2304 	ldrd	r2, r3, [sp, #16]
  402c68:	9400      	str	r4, [sp, #0]
  402c6a:	f000 ff65 	bl	403b38 <__kernel_sin>
  402c6e:	f101 4100 	add.w	r1, r1, #2147483648	; 0x80000000
  402c72:	e7d7      	b.n	402c24 <sin+0x1c>
  402c74:	e9dd 0102 	ldrd	r0, r1, [sp, #8]
  402c78:	e9dd 2304 	ldrd	r2, r3, [sp, #16]
  402c7c:	f000 fa34 	bl	4030e8 <__kernel_cos>
  402c80:	e7d0      	b.n	402c24 <sin+0x1c>
  402c82:	2401      	movs	r4, #1
  402c84:	e9dd 0102 	ldrd	r0, r1, [sp, #8]
  402c88:	e9dd 2304 	ldrd	r2, r3, [sp, #16]
  402c8c:	9400      	str	r4, [sp, #0]
  402c8e:	f000 ff53 	bl	403b38 <__kernel_sin>
  402c92:	e7c7      	b.n	402c24 <sin+0x1c>
  402c94:	3fe921fb 	.word	0x3fe921fb
  402c98:	7fefffff 	.word	0x7fefffff
  402c9c:	00000000 	.word	0x00000000

00402ca0 <__ieee754_rem_pio2>:
  402ca0:	e92d 4ff0 	stmdb	sp!, {r4, r5, r6, r7, r8, r9, sl, fp, lr}
  402ca4:	4e96      	ldr	r6, [pc, #600]	; (402f00 <__ieee754_rem_pio2+0x260>)
  402ca6:	f021 4b00 	bic.w	fp, r1, #2147483648	; 0x80000000
  402caa:	45b3      	cmp	fp, r6
  402cac:	b08f      	sub	sp, #60	; 0x3c
  402cae:	460c      	mov	r4, r1
  402cb0:	f340 8081 	ble.w	402db6 <__ieee754_rem_pio2+0x116>
  402cb4:	4692      	mov	sl, r2
  402cb6:	4a93      	ldr	r2, [pc, #588]	; (402f04 <__ieee754_rem_pio2+0x264>)
  402cb8:	4593      	cmp	fp, r2
  402cba:	dc26      	bgt.n	402d0a <__ieee754_rem_pio2+0x6a>
  402cbc:	2900      	cmp	r1, #0
  402cbe:	a386      	add	r3, pc, #536	; (adr r3, 402ed8 <__ieee754_rem_pio2+0x238>)
  402cc0:	e9d3 2300 	ldrd	r2, r3, [r3]
  402cc4:	f340 81a8 	ble.w	403018 <__ieee754_rem_pio2+0x378>
  402cc8:	f001 f90c 	bl	403ee4 <__aeabi_dsub>
  402ccc:	4b8e      	ldr	r3, [pc, #568]	; (402f08 <__ieee754_rem_pio2+0x268>)
  402cce:	459b      	cmp	fp, r3
  402cd0:	4604      	mov	r4, r0
  402cd2:	460d      	mov	r5, r1
  402cd4:	f000 8084 	beq.w	402de0 <__ieee754_rem_pio2+0x140>
  402cd8:	a381      	add	r3, pc, #516	; (adr r3, 402ee0 <__ieee754_rem_pio2+0x240>)
  402cda:	e9d3 2300 	ldrd	r2, r3, [r3]
  402cde:	f001 f901 	bl	403ee4 <__aeabi_dsub>
  402ce2:	4602      	mov	r2, r0
  402ce4:	460b      	mov	r3, r1
  402ce6:	e9ca 2300 	strd	r2, r3, [sl]
  402cea:	4620      	mov	r0, r4
  402cec:	4629      	mov	r1, r5
  402cee:	f001 f8f9 	bl	403ee4 <__aeabi_dsub>
  402cf2:	a37b      	add	r3, pc, #492	; (adr r3, 402ee0 <__ieee754_rem_pio2+0x240>)
  402cf4:	e9d3 2300 	ldrd	r2, r3, [r3]
  402cf8:	f001 f8f4 	bl	403ee4 <__aeabi_dsub>
  402cfc:	2501      	movs	r5, #1
  402cfe:	e9ca 0102 	strd	r0, r1, [sl, #8]
  402d02:	4628      	mov	r0, r5
  402d04:	b00f      	add	sp, #60	; 0x3c
  402d06:	e8bd 8ff0 	ldmia.w	sp!, {r4, r5, r6, r7, r8, r9, sl, fp, pc}
  402d0a:	4a80      	ldr	r2, [pc, #512]	; (402f0c <__ieee754_rem_pio2+0x26c>)
  402d0c:	4593      	cmp	fp, r2
  402d0e:	f340 8084 	ble.w	402e1a <__ieee754_rem_pio2+0x17a>
  402d12:	4a7f      	ldr	r2, [pc, #508]	; (402f10 <__ieee754_rem_pio2+0x270>)
  402d14:	4593      	cmp	fp, r2
  402d16:	dc59      	bgt.n	402dcc <__ieee754_rem_pio2+0x12c>
  402d18:	ea4f 552b 	mov.w	r5, fp, asr #20
  402d1c:	f2a5 4516 	subw	r5, r5, #1046	; 0x416
  402d20:	ebab 5705 	sub.w	r7, fp, r5, lsl #20
  402d24:	4639      	mov	r1, r7
  402d26:	4606      	mov	r6, r0
  402d28:	f001 fd2a 	bl	404780 <__aeabi_d2iz>
  402d2c:	f001 fa28 	bl	404180 <__aeabi_i2d>
  402d30:	4680      	mov	r8, r0
  402d32:	4689      	mov	r9, r1
  402d34:	4602      	mov	r2, r0
  402d36:	460b      	mov	r3, r1
  402d38:	4630      	mov	r0, r6
  402d3a:	4639      	mov	r1, r7
  402d3c:	e9cd 8908 	strd	r8, r9, [sp, #32]
  402d40:	f001 f8d0 	bl	403ee4 <__aeabi_dsub>
  402d44:	2200      	movs	r2, #0
  402d46:	4b73      	ldr	r3, [pc, #460]	; (402f14 <__ieee754_rem_pio2+0x274>)
  402d48:	f001 fa80 	bl	40424c <__aeabi_dmul>
  402d4c:	460f      	mov	r7, r1
  402d4e:	4606      	mov	r6, r0
  402d50:	f001 fd16 	bl	404780 <__aeabi_d2iz>
  402d54:	f001 fa14 	bl	404180 <__aeabi_i2d>
  402d58:	4602      	mov	r2, r0
  402d5a:	460b      	mov	r3, r1
  402d5c:	4680      	mov	r8, r0
  402d5e:	4689      	mov	r9, r1
  402d60:	4630      	mov	r0, r6
  402d62:	4639      	mov	r1, r7
  402d64:	e9cd 890a 	strd	r8, r9, [sp, #40]	; 0x28
  402d68:	f001 f8bc 	bl	403ee4 <__aeabi_dsub>
  402d6c:	2200      	movs	r2, #0
  402d6e:	4b69      	ldr	r3, [pc, #420]	; (402f14 <__ieee754_rem_pio2+0x274>)
  402d70:	f001 fa6c 	bl	40424c <__aeabi_dmul>
  402d74:	2200      	movs	r2, #0
  402d76:	2300      	movs	r3, #0
  402d78:	e9cd 010c 	strd	r0, r1, [sp, #48]	; 0x30
  402d7c:	f001 fcce 	bl	40471c <__aeabi_dcmpeq>
  402d80:	2800      	cmp	r0, #0
  402d82:	f000 8175 	beq.w	403070 <__ieee754_rem_pio2+0x3d0>
  402d86:	2300      	movs	r3, #0
  402d88:	4640      	mov	r0, r8
  402d8a:	4649      	mov	r1, r9
  402d8c:	2200      	movs	r2, #0
  402d8e:	f001 fcc5 	bl	40471c <__aeabi_dcmpeq>
  402d92:	2800      	cmp	r0, #0
  402d94:	bf14      	ite	ne
  402d96:	2301      	movne	r3, #1
  402d98:	2302      	moveq	r3, #2
  402d9a:	2202      	movs	r2, #2
  402d9c:	495e      	ldr	r1, [pc, #376]	; (402f18 <__ieee754_rem_pio2+0x278>)
  402d9e:	9200      	str	r2, [sp, #0]
  402da0:	9101      	str	r1, [sp, #4]
  402da2:	462a      	mov	r2, r5
  402da4:	a808      	add	r0, sp, #32
  402da6:	4651      	mov	r1, sl
  402da8:	f000 fac2 	bl	403330 <__kernel_rem_pio2>
  402dac:	2c00      	cmp	r4, #0
  402dae:	f2c0 8151 	blt.w	403054 <__ieee754_rem_pio2+0x3b4>
  402db2:	4605      	mov	r5, r0
  402db4:	e006      	b.n	402dc4 <__ieee754_rem_pio2+0x124>
  402db6:	e9c2 0100 	strd	r0, r1, [r2]
  402dba:	2500      	movs	r5, #0
  402dbc:	2400      	movs	r4, #0
  402dbe:	e9c2 4502 	strd	r4, r5, [r2, #8]
  402dc2:	2500      	movs	r5, #0
  402dc4:	4628      	mov	r0, r5
  402dc6:	b00f      	add	sp, #60	; 0x3c
  402dc8:	e8bd 8ff0 	ldmia.w	sp!, {r4, r5, r6, r7, r8, r9, sl, fp, pc}
  402dcc:	4602      	mov	r2, r0
  402dce:	460b      	mov	r3, r1
  402dd0:	f001 f888 	bl	403ee4 <__aeabi_dsub>
  402dd4:	2500      	movs	r5, #0
  402dd6:	e9ca 0102 	strd	r0, r1, [sl, #8]
  402dda:	e9ca 0100 	strd	r0, r1, [sl]
  402dde:	e7f1      	b.n	402dc4 <__ieee754_rem_pio2+0x124>
  402de0:	a341      	add	r3, pc, #260	; (adr r3, 402ee8 <__ieee754_rem_pio2+0x248>)
  402de2:	e9d3 2300 	ldrd	r2, r3, [r3]
  402de6:	f001 f87d 	bl	403ee4 <__aeabi_dsub>
  402dea:	a341      	add	r3, pc, #260	; (adr r3, 402ef0 <__ieee754_rem_pio2+0x250>)
  402dec:	e9d3 2300 	ldrd	r2, r3, [r3]
  402df0:	460d      	mov	r5, r1
  402df2:	4604      	mov	r4, r0
  402df4:	f001 f876 	bl	403ee4 <__aeabi_dsub>
  402df8:	4602      	mov	r2, r0
  402dfa:	460b      	mov	r3, r1
  402dfc:	e9ca 2300 	strd	r2, r3, [sl]
  402e00:	4629      	mov	r1, r5
  402e02:	4620      	mov	r0, r4
  402e04:	f001 f86e 	bl	403ee4 <__aeabi_dsub>
  402e08:	a339      	add	r3, pc, #228	; (adr r3, 402ef0 <__ieee754_rem_pio2+0x250>)
  402e0a:	e9d3 2300 	ldrd	r2, r3, [r3]
  402e0e:	f001 f869 	bl	403ee4 <__aeabi_dsub>
  402e12:	2501      	movs	r5, #1
  402e14:	e9ca 0102 	strd	r0, r1, [sl, #8]
  402e18:	e7d4      	b.n	402dc4 <__ieee754_rem_pio2+0x124>
  402e1a:	f000 ff43 	bl	403ca4 <fabs>
  402e1e:	a336      	add	r3, pc, #216	; (adr r3, 402ef8 <__ieee754_rem_pio2+0x258>)
  402e20:	e9d3 2300 	ldrd	r2, r3, [r3]
  402e24:	4606      	mov	r6, r0
  402e26:	460f      	mov	r7, r1
  402e28:	f001 fa10 	bl	40424c <__aeabi_dmul>
  402e2c:	2200      	movs	r2, #0
  402e2e:	4b3b      	ldr	r3, [pc, #236]	; (402f1c <__ieee754_rem_pio2+0x27c>)
  402e30:	f001 f85a 	bl	403ee8 <__adddf3>
  402e34:	f001 fca4 	bl	404780 <__aeabi_d2iz>
  402e38:	4605      	mov	r5, r0
  402e3a:	f001 f9a1 	bl	404180 <__aeabi_i2d>
  402e3e:	a326      	add	r3, pc, #152	; (adr r3, 402ed8 <__ieee754_rem_pio2+0x238>)
  402e40:	e9d3 2300 	ldrd	r2, r3, [r3]
  402e44:	e9cd 0104 	strd	r0, r1, [sp, #16]
  402e48:	f001 fa00 	bl	40424c <__aeabi_dmul>
  402e4c:	4602      	mov	r2, r0
  402e4e:	460b      	mov	r3, r1
  402e50:	4630      	mov	r0, r6
  402e52:	4639      	mov	r1, r7
  402e54:	f001 f846 	bl	403ee4 <__aeabi_dsub>
  402e58:	a321      	add	r3, pc, #132	; (adr r3, 402ee0 <__ieee754_rem_pio2+0x240>)
  402e5a:	e9d3 2300 	ldrd	r2, r3, [r3]
  402e5e:	4680      	mov	r8, r0
  402e60:	4689      	mov	r9, r1
  402e62:	e9dd 0104 	ldrd	r0, r1, [sp, #16]
  402e66:	f001 f9f1 	bl	40424c <__aeabi_dmul>
  402e6a:	2d1f      	cmp	r5, #31
  402e6c:	e9cd 0102 	strd	r0, r1, [sp, #8]
  402e70:	4640      	mov	r0, r8
  402e72:	4649      	mov	r1, r9
  402e74:	dc56      	bgt.n	402f24 <__ieee754_rem_pio2+0x284>
  402e76:	4b2a      	ldr	r3, [pc, #168]	; (402f20 <__ieee754_rem_pio2+0x280>)
  402e78:	1e6a      	subs	r2, r5, #1
  402e7a:	f853 3022 	ldr.w	r3, [r3, r2, lsl #2]
  402e7e:	455b      	cmp	r3, fp
  402e80:	d050      	beq.n	402f24 <__ieee754_rem_pio2+0x284>
  402e82:	e9dd 2302 	ldrd	r2, r3, [sp, #8]
  402e86:	f001 f82d 	bl	403ee4 <__aeabi_dsub>
  402e8a:	4602      	mov	r2, r0
  402e8c:	460b      	mov	r3, r1
  402e8e:	e9ca 2300 	strd	r2, r3, [sl]
  402e92:	4607      	mov	r7, r0
  402e94:	460e      	mov	r6, r1
  402e96:	463a      	mov	r2, r7
  402e98:	4633      	mov	r3, r6
  402e9a:	4640      	mov	r0, r8
  402e9c:	4649      	mov	r1, r9
  402e9e:	f001 f821 	bl	403ee4 <__aeabi_dsub>
  402ea2:	e9dd 2302 	ldrd	r2, r3, [sp, #8]
  402ea6:	f001 f81d 	bl	403ee4 <__aeabi_dsub>
  402eaa:	2c00      	cmp	r4, #0
  402eac:	4602      	mov	r2, r0
  402eae:	460b      	mov	r3, r1
  402eb0:	e9ca 2302 	strd	r2, r3, [sl, #8]
  402eb4:	da86      	bge.n	402dc4 <__ieee754_rem_pio2+0x124>
  402eb6:	f106 4600 	add.w	r6, r6, #2147483648	; 0x80000000
  402eba:	f101 4100 	add.w	r1, r1, #2147483648	; 0x80000000
  402ebe:	f8ca 7000 	str.w	r7, [sl]
  402ec2:	f8ca 6004 	str.w	r6, [sl, #4]
  402ec6:	f8ca 100c 	str.w	r1, [sl, #12]
  402eca:	f8ca 0008 	str.w	r0, [sl, #8]
  402ece:	426d      	negs	r5, r5
  402ed0:	e778      	b.n	402dc4 <__ieee754_rem_pio2+0x124>
  402ed2:	bf00      	nop
  402ed4:	f3af 8000 	nop.w
  402ed8:	54400000 	.word	0x54400000
  402edc:	3ff921fb 	.word	0x3ff921fb
  402ee0:	1a626331 	.word	0x1a626331
  402ee4:	3dd0b461 	.word	0x3dd0b461
  402ee8:	1a600000 	.word	0x1a600000
  402eec:	3dd0b461 	.word	0x3dd0b461
  402ef0:	2e037073 	.word	0x2e037073
  402ef4:	3ba3198a 	.word	0x3ba3198a
  402ef8:	6dc9c883 	.word	0x6dc9c883
  402efc:	3fe45f30 	.word	0x3fe45f30
  402f00:	3fe921fb 	.word	0x3fe921fb
  402f04:	4002d97b 	.word	0x4002d97b
  402f08:	3ff921fb 	.word	0x3ff921fb
  402f0c:	413921fb 	.word	0x413921fb
  402f10:	7fefffff 	.word	0x7fefffff
  402f14:	41700000 	.word	0x41700000
  402f18:	004097fc 	.word	0x004097fc
  402f1c:	3fe00000 	.word	0x3fe00000
  402f20:	0040977c 	.word	0x0040977c
  402f24:	e9dd 2302 	ldrd	r2, r3, [sp, #8]
  402f28:	f000 ffdc 	bl	403ee4 <__aeabi_dsub>
  402f2c:	460e      	mov	r6, r1
  402f2e:	ea4f 5b2b 	mov.w	fp, fp, asr #20
  402f32:	f3c6 530a 	ubfx	r3, r6, #20, #11
  402f36:	ebc3 030b 	rsb	r3, r3, fp
  402f3a:	2b10      	cmp	r3, #16
  402f3c:	4607      	mov	r7, r0
  402f3e:	e9ca 0100 	strd	r0, r1, [sl]
  402f42:	dda8      	ble.n	402e96 <__ieee754_rem_pio2+0x1f6>
  402f44:	a35c      	add	r3, pc, #368	; (adr r3, 4030b8 <__ieee754_rem_pio2+0x418>)
  402f46:	e9d3 2300 	ldrd	r2, r3, [r3]
  402f4a:	e9dd 0104 	ldrd	r0, r1, [sp, #16]
  402f4e:	f001 f97d 	bl	40424c <__aeabi_dmul>
  402f52:	4606      	mov	r6, r0
  402f54:	460f      	mov	r7, r1
  402f56:	4632      	mov	r2, r6
  402f58:	463b      	mov	r3, r7
  402f5a:	4640      	mov	r0, r8
  402f5c:	4649      	mov	r1, r9
  402f5e:	f000 ffc1 	bl	403ee4 <__aeabi_dsub>
  402f62:	e9cd 0106 	strd	r0, r1, [sp, #24]
  402f66:	e9dd 2306 	ldrd	r2, r3, [sp, #24]
  402f6a:	4640      	mov	r0, r8
  402f6c:	4649      	mov	r1, r9
  402f6e:	f000 ffb9 	bl	403ee4 <__aeabi_dsub>
  402f72:	4632      	mov	r2, r6
  402f74:	463b      	mov	r3, r7
  402f76:	f000 ffb5 	bl	403ee4 <__aeabi_dsub>
  402f7a:	a351      	add	r3, pc, #324	; (adr r3, 4030c0 <__ieee754_rem_pio2+0x420>)
  402f7c:	e9d3 2300 	ldrd	r2, r3, [r3]
  402f80:	4606      	mov	r6, r0
  402f82:	460f      	mov	r7, r1
  402f84:	e9dd 0104 	ldrd	r0, r1, [sp, #16]
  402f88:	f001 f960 	bl	40424c <__aeabi_dmul>
  402f8c:	4632      	mov	r2, r6
  402f8e:	463b      	mov	r3, r7
  402f90:	f000 ffa8 	bl	403ee4 <__aeabi_dsub>
  402f94:	e9cd 0102 	strd	r0, r1, [sp, #8]
  402f98:	e9dd 2302 	ldrd	r2, r3, [sp, #8]
  402f9c:	e9dd 0106 	ldrd	r0, r1, [sp, #24]
  402fa0:	f000 ffa0 	bl	403ee4 <__aeabi_dsub>
  402fa4:	460e      	mov	r6, r1
  402fa6:	f3c1 510a 	ubfx	r1, r1, #20, #11
  402faa:	ebc1 0b0b 	rsb	fp, r1, fp
  402fae:	4602      	mov	r2, r0
  402fb0:	4633      	mov	r3, r6
  402fb2:	f1bb 0f31 	cmp.w	fp, #49	; 0x31
  402fb6:	4607      	mov	r7, r0
  402fb8:	e9ca 2300 	strd	r2, r3, [sl]
  402fbc:	dd78      	ble.n	4030b0 <__ieee754_rem_pio2+0x410>
  402fbe:	a342      	add	r3, pc, #264	; (adr r3, 4030c8 <__ieee754_rem_pio2+0x428>)
  402fc0:	e9d3 2300 	ldrd	r2, r3, [r3]
  402fc4:	e9dd 0104 	ldrd	r0, r1, [sp, #16]
  402fc8:	f001 f940 	bl	40424c <__aeabi_dmul>
  402fcc:	4606      	mov	r6, r0
  402fce:	460f      	mov	r7, r1
  402fd0:	4632      	mov	r2, r6
  402fd2:	463b      	mov	r3, r7
  402fd4:	e9dd 0106 	ldrd	r0, r1, [sp, #24]
  402fd8:	f000 ff84 	bl	403ee4 <__aeabi_dsub>
  402fdc:	4680      	mov	r8, r0
  402fde:	4689      	mov	r9, r1
  402fe0:	4642      	mov	r2, r8
  402fe2:	464b      	mov	r3, r9
  402fe4:	e9dd 0106 	ldrd	r0, r1, [sp, #24]
  402fe8:	f000 ff7c 	bl	403ee4 <__aeabi_dsub>
  402fec:	4632      	mov	r2, r6
  402fee:	463b      	mov	r3, r7
  402ff0:	f000 ff78 	bl	403ee4 <__aeabi_dsub>
  402ff4:	a336      	add	r3, pc, #216	; (adr r3, 4030d0 <__ieee754_rem_pio2+0x430>)
  402ff6:	e9d3 2300 	ldrd	r2, r3, [r3]
  402ffa:	4606      	mov	r6, r0
  402ffc:	460f      	mov	r7, r1
  402ffe:	e9dd 0104 	ldrd	r0, r1, [sp, #16]
  403002:	f001 f923 	bl	40424c <__aeabi_dmul>
  403006:	4632      	mov	r2, r6
  403008:	463b      	mov	r3, r7
  40300a:	f000 ff6b 	bl	403ee4 <__aeabi_dsub>
  40300e:	e9cd 0102 	strd	r0, r1, [sp, #8]
  403012:	4640      	mov	r0, r8
  403014:	4649      	mov	r1, r9
  403016:	e734      	b.n	402e82 <__ieee754_rem_pio2+0x1e2>
  403018:	f000 ff66 	bl	403ee8 <__adddf3>
  40301c:	4b30      	ldr	r3, [pc, #192]	; (4030e0 <__ieee754_rem_pio2+0x440>)
  40301e:	459b      	cmp	fp, r3
  403020:	4604      	mov	r4, r0
  403022:	460d      	mov	r5, r1
  403024:	d026      	beq.n	403074 <__ieee754_rem_pio2+0x3d4>
  403026:	a32c      	add	r3, pc, #176	; (adr r3, 4030d8 <__ieee754_rem_pio2+0x438>)
  403028:	e9d3 2300 	ldrd	r2, r3, [r3]
  40302c:	f000 ff5c 	bl	403ee8 <__adddf3>
  403030:	4602      	mov	r2, r0
  403032:	460b      	mov	r3, r1
  403034:	e9ca 2300 	strd	r2, r3, [sl]
  403038:	4629      	mov	r1, r5
  40303a:	4620      	mov	r0, r4
  40303c:	f000 ff52 	bl	403ee4 <__aeabi_dsub>
  403040:	a325      	add	r3, pc, #148	; (adr r3, 4030d8 <__ieee754_rem_pio2+0x438>)
  403042:	e9d3 2300 	ldrd	r2, r3, [r3]
  403046:	f000 ff4f 	bl	403ee8 <__adddf3>
  40304a:	f04f 35ff 	mov.w	r5, #4294967295
  40304e:	e9ca 0102 	strd	r0, r1, [sl, #8]
  403052:	e6b7      	b.n	402dc4 <__ieee754_rem_pio2+0x124>
  403054:	f8da 2004 	ldr.w	r2, [sl, #4]
  403058:	f8da 300c 	ldr.w	r3, [sl, #12]
  40305c:	f102 4200 	add.w	r2, r2, #2147483648	; 0x80000000
  403060:	f103 4300 	add.w	r3, r3, #2147483648	; 0x80000000
  403064:	4245      	negs	r5, r0
  403066:	f8ca 2004 	str.w	r2, [sl, #4]
  40306a:	f8ca 300c 	str.w	r3, [sl, #12]
  40306e:	e6a9      	b.n	402dc4 <__ieee754_rem_pio2+0x124>
  403070:	2303      	movs	r3, #3
  403072:	e692      	b.n	402d9a <__ieee754_rem_pio2+0xfa>
  403074:	a310      	add	r3, pc, #64	; (adr r3, 4030b8 <__ieee754_rem_pio2+0x418>)
  403076:	e9d3 2300 	ldrd	r2, r3, [r3]
  40307a:	f000 ff35 	bl	403ee8 <__adddf3>
  40307e:	a310      	add	r3, pc, #64	; (adr r3, 4030c0 <__ieee754_rem_pio2+0x420>)
  403080:	e9d3 2300 	ldrd	r2, r3, [r3]
  403084:	460d      	mov	r5, r1
  403086:	4604      	mov	r4, r0
  403088:	f000 ff2e 	bl	403ee8 <__adddf3>
  40308c:	4602      	mov	r2, r0
  40308e:	460b      	mov	r3, r1
  403090:	e9ca 2300 	strd	r2, r3, [sl]
  403094:	4629      	mov	r1, r5
  403096:	4620      	mov	r0, r4
  403098:	f000 ff24 	bl	403ee4 <__aeabi_dsub>
  40309c:	a308      	add	r3, pc, #32	; (adr r3, 4030c0 <__ieee754_rem_pio2+0x420>)
  40309e:	e9d3 2300 	ldrd	r2, r3, [r3]
  4030a2:	f000 ff21 	bl	403ee8 <__adddf3>
  4030a6:	f04f 35ff 	mov.w	r5, #4294967295
  4030aa:	e9ca 0102 	strd	r0, r1, [sl, #8]
  4030ae:	e689      	b.n	402dc4 <__ieee754_rem_pio2+0x124>
  4030b0:	e9dd 8906 	ldrd	r8, r9, [sp, #24]
  4030b4:	e6ef      	b.n	402e96 <__ieee754_rem_pio2+0x1f6>
  4030b6:	bf00      	nop
  4030b8:	1a600000 	.word	0x1a600000
  4030bc:	3dd0b461 	.word	0x3dd0b461
  4030c0:	2e037073 	.word	0x2e037073
  4030c4:	3ba3198a 	.word	0x3ba3198a
  4030c8:	2e000000 	.word	0x2e000000
  4030cc:	3ba3198a 	.word	0x3ba3198a
  4030d0:	252049c1 	.word	0x252049c1
  4030d4:	397b839a 	.word	0x397b839a
  4030d8:	1a626331 	.word	0x1a626331
  4030dc:	3dd0b461 	.word	0x3dd0b461
  4030e0:	3ff921fb 	.word	0x3ff921fb
  4030e4:	00000000 	.word	0x00000000

004030e8 <__kernel_cos>:
  4030e8:	e92d 4ff0 	stmdb	sp!, {r4, r5, r6, r7, r8, r9, sl, fp, lr}
  4030ec:	f021 4700 	bic.w	r7, r1, #2147483648	; 0x80000000
  4030f0:	f1b7 5f79 	cmp.w	r7, #1044381696	; 0x3e400000
  4030f4:	b085      	sub	sp, #20
  4030f6:	460c      	mov	r4, r1
  4030f8:	4692      	mov	sl, r2
  4030fa:	469b      	mov	fp, r3
  4030fc:	4605      	mov	r5, r0
  4030fe:	da6b      	bge.n	4031d8 <__kernel_cos+0xf0>
  403100:	f001 fb3e 	bl	404780 <__aeabi_d2iz>
  403104:	2800      	cmp	r0, #0
  403106:	f000 80e8 	beq.w	4032da <__kernel_cos+0x1f2>
  40310a:	462a      	mov	r2, r5
  40310c:	4623      	mov	r3, r4
  40310e:	4628      	mov	r0, r5
  403110:	4621      	mov	r1, r4
  403112:	f001 f89b 	bl	40424c <__aeabi_dmul>
  403116:	a374      	add	r3, pc, #464	; (adr r3, 4032e8 <__kernel_cos+0x200>)
  403118:	e9d3 2300 	ldrd	r2, r3, [r3]
  40311c:	4680      	mov	r8, r0
  40311e:	4689      	mov	r9, r1
  403120:	f001 f894 	bl	40424c <__aeabi_dmul>
  403124:	a372      	add	r3, pc, #456	; (adr r3, 4032f0 <__kernel_cos+0x208>)
  403126:	e9d3 2300 	ldrd	r2, r3, [r3]
  40312a:	f000 fedd 	bl	403ee8 <__adddf3>
  40312e:	4642      	mov	r2, r8
  403130:	464b      	mov	r3, r9
  403132:	f001 f88b 	bl	40424c <__aeabi_dmul>
  403136:	a370      	add	r3, pc, #448	; (adr r3, 4032f8 <__kernel_cos+0x210>)
  403138:	e9d3 2300 	ldrd	r2, r3, [r3]
  40313c:	f000 fed2 	bl	403ee4 <__aeabi_dsub>
  403140:	4642      	mov	r2, r8
  403142:	464b      	mov	r3, r9
  403144:	f001 f882 	bl	40424c <__aeabi_dmul>
  403148:	a36d      	add	r3, pc, #436	; (adr r3, 403300 <__kernel_cos+0x218>)
  40314a:	e9d3 2300 	ldrd	r2, r3, [r3]
  40314e:	f000 fecb 	bl	403ee8 <__adddf3>
  403152:	4642      	mov	r2, r8
  403154:	464b      	mov	r3, r9
  403156:	f001 f879 	bl	40424c <__aeabi_dmul>
  40315a:	a36b      	add	r3, pc, #428	; (adr r3, 403308 <__kernel_cos+0x220>)
  40315c:	e9d3 2300 	ldrd	r2, r3, [r3]
  403160:	f000 fec0 	bl	403ee4 <__aeabi_dsub>
  403164:	4642      	mov	r2, r8
  403166:	464b      	mov	r3, r9
  403168:	f001 f870 	bl	40424c <__aeabi_dmul>
  40316c:	a368      	add	r3, pc, #416	; (adr r3, 403310 <__kernel_cos+0x228>)
  40316e:	e9d3 2300 	ldrd	r2, r3, [r3]
  403172:	f000 feb9 	bl	403ee8 <__adddf3>
  403176:	4642      	mov	r2, r8
  403178:	464b      	mov	r3, r9
  40317a:	f001 f867 	bl	40424c <__aeabi_dmul>
  40317e:	e9cd 0100 	strd	r0, r1, [sp]
  403182:	4640      	mov	r0, r8
  403184:	4649      	mov	r1, r9
  403186:	2200      	movs	r2, #0
  403188:	4b63      	ldr	r3, [pc, #396]	; (403318 <__kernel_cos+0x230>)
  40318a:	f001 f85f 	bl	40424c <__aeabi_dmul>
  40318e:	e9dd 2300 	ldrd	r2, r3, [sp]
  403192:	4606      	mov	r6, r0
  403194:	460f      	mov	r7, r1
  403196:	4640      	mov	r0, r8
  403198:	4649      	mov	r1, r9
  40319a:	f001 f857 	bl	40424c <__aeabi_dmul>
  40319e:	4652      	mov	r2, sl
  4031a0:	4680      	mov	r8, r0
  4031a2:	4689      	mov	r9, r1
  4031a4:	465b      	mov	r3, fp
  4031a6:	4628      	mov	r0, r5
  4031a8:	4621      	mov	r1, r4
  4031aa:	f001 f84f 	bl	40424c <__aeabi_dmul>
  4031ae:	4602      	mov	r2, r0
  4031b0:	460b      	mov	r3, r1
  4031b2:	4640      	mov	r0, r8
  4031b4:	4649      	mov	r1, r9
  4031b6:	f000 fe95 	bl	403ee4 <__aeabi_dsub>
  4031ba:	4602      	mov	r2, r0
  4031bc:	460b      	mov	r3, r1
  4031be:	4630      	mov	r0, r6
  4031c0:	4639      	mov	r1, r7
  4031c2:	f000 fe8f 	bl	403ee4 <__aeabi_dsub>
  4031c6:	4602      	mov	r2, r0
  4031c8:	460b      	mov	r3, r1
  4031ca:	2000      	movs	r0, #0
  4031cc:	4953      	ldr	r1, [pc, #332]	; (40331c <__kernel_cos+0x234>)
  4031ce:	f000 fe89 	bl	403ee4 <__aeabi_dsub>
  4031d2:	b005      	add	sp, #20
  4031d4:	e8bd 8ff0 	ldmia.w	sp!, {r4, r5, r6, r7, r8, r9, sl, fp, pc}
  4031d8:	4602      	mov	r2, r0
  4031da:	460b      	mov	r3, r1
  4031dc:	f001 f836 	bl	40424c <__aeabi_dmul>
  4031e0:	a341      	add	r3, pc, #260	; (adr r3, 4032e8 <__kernel_cos+0x200>)
  4031e2:	e9d3 2300 	ldrd	r2, r3, [r3]
  4031e6:	4680      	mov	r8, r0
  4031e8:	4689      	mov	r9, r1
  4031ea:	f001 f82f 	bl	40424c <__aeabi_dmul>
  4031ee:	a340      	add	r3, pc, #256	; (adr r3, 4032f0 <__kernel_cos+0x208>)
  4031f0:	e9d3 2300 	ldrd	r2, r3, [r3]
  4031f4:	f000 fe78 	bl	403ee8 <__adddf3>
  4031f8:	4642      	mov	r2, r8
  4031fa:	464b      	mov	r3, r9
  4031fc:	f001 f826 	bl	40424c <__aeabi_dmul>
  403200:	a33d      	add	r3, pc, #244	; (adr r3, 4032f8 <__kernel_cos+0x210>)
  403202:	e9d3 2300 	ldrd	r2, r3, [r3]
  403206:	f000 fe6d 	bl	403ee4 <__aeabi_dsub>
  40320a:	4642      	mov	r2, r8
  40320c:	464b      	mov	r3, r9
  40320e:	f001 f81d 	bl	40424c <__aeabi_dmul>
  403212:	a33b      	add	r3, pc, #236	; (adr r3, 403300 <__kernel_cos+0x218>)
  403214:	e9d3 2300 	ldrd	r2, r3, [r3]
  403218:	f000 fe66 	bl	403ee8 <__adddf3>
  40321c:	4642      	mov	r2, r8
  40321e:	464b      	mov	r3, r9
  403220:	f001 f814 	bl	40424c <__aeabi_dmul>
  403224:	a338      	add	r3, pc, #224	; (adr r3, 403308 <__kernel_cos+0x220>)
  403226:	e9d3 2300 	ldrd	r2, r3, [r3]
  40322a:	f000 fe5b 	bl	403ee4 <__aeabi_dsub>
  40322e:	4642      	mov	r2, r8
  403230:	464b      	mov	r3, r9
  403232:	f001 f80b 	bl	40424c <__aeabi_dmul>
  403236:	a336      	add	r3, pc, #216	; (adr r3, 403310 <__kernel_cos+0x228>)
  403238:	e9d3 2300 	ldrd	r2, r3, [r3]
  40323c:	f000 fe54 	bl	403ee8 <__adddf3>
  403240:	464b      	mov	r3, r9
  403242:	4642      	mov	r2, r8
  403244:	f001 f802 	bl	40424c <__aeabi_dmul>
  403248:	4b35      	ldr	r3, [pc, #212]	; (403320 <__kernel_cos+0x238>)
  40324a:	429f      	cmp	r7, r3
  40324c:	e9cd 0100 	strd	r0, r1, [sp]
  403250:	dd97      	ble.n	403182 <__kernel_cos+0x9a>
  403252:	4b34      	ldr	r3, [pc, #208]	; (403324 <__kernel_cos+0x23c>)
  403254:	429f      	cmp	r7, r3
  403256:	f04f 0200 	mov.w	r2, #0
  40325a:	dc38      	bgt.n	4032ce <__kernel_cos+0x1e6>
  40325c:	f5a7 1300 	sub.w	r3, r7, #2097152	; 0x200000
  403260:	2000      	movs	r0, #0
  403262:	492e      	ldr	r1, [pc, #184]	; (40331c <__kernel_cos+0x234>)
  403264:	4616      	mov	r6, r2
  403266:	461f      	mov	r7, r3
  403268:	f000 fe3c 	bl	403ee4 <__aeabi_dsub>
  40326c:	e9cd 0102 	strd	r0, r1, [sp, #8]
  403270:	4640      	mov	r0, r8
  403272:	4649      	mov	r1, r9
  403274:	2200      	movs	r2, #0
  403276:	4b28      	ldr	r3, [pc, #160]	; (403318 <__kernel_cos+0x230>)
  403278:	f000 ffe8 	bl	40424c <__aeabi_dmul>
  40327c:	4632      	mov	r2, r6
  40327e:	463b      	mov	r3, r7
  403280:	f000 fe30 	bl	403ee4 <__aeabi_dsub>
  403284:	e9dd 2300 	ldrd	r2, r3, [sp]
  403288:	4606      	mov	r6, r0
  40328a:	460f      	mov	r7, r1
  40328c:	4640      	mov	r0, r8
  40328e:	4649      	mov	r1, r9
  403290:	f000 ffdc 	bl	40424c <__aeabi_dmul>
  403294:	4652      	mov	r2, sl
  403296:	4680      	mov	r8, r0
  403298:	4689      	mov	r9, r1
  40329a:	465b      	mov	r3, fp
  40329c:	4628      	mov	r0, r5
  40329e:	4621      	mov	r1, r4
  4032a0:	f000 ffd4 	bl	40424c <__aeabi_dmul>
  4032a4:	4602      	mov	r2, r0
  4032a6:	460b      	mov	r3, r1
  4032a8:	4640      	mov	r0, r8
  4032aa:	4649      	mov	r1, r9
  4032ac:	f000 fe1a 	bl	403ee4 <__aeabi_dsub>
  4032b0:	4602      	mov	r2, r0
  4032b2:	460b      	mov	r3, r1
  4032b4:	4630      	mov	r0, r6
  4032b6:	4639      	mov	r1, r7
  4032b8:	f000 fe14 	bl	403ee4 <__aeabi_dsub>
  4032bc:	4602      	mov	r2, r0
  4032be:	460b      	mov	r3, r1
  4032c0:	e9dd 0102 	ldrd	r0, r1, [sp, #8]
  4032c4:	f000 fe0e 	bl	403ee4 <__aeabi_dsub>
  4032c8:	b005      	add	sp, #20
  4032ca:	e8bd 8ff0 	ldmia.w	sp!, {r4, r5, r6, r7, r8, r9, sl, fp, pc}
  4032ce:	4b16      	ldr	r3, [pc, #88]	; (403328 <__kernel_cos+0x240>)
  4032d0:	4f16      	ldr	r7, [pc, #88]	; (40332c <__kernel_cos+0x244>)
  4032d2:	e9cd 2302 	strd	r2, r3, [sp, #8]
  4032d6:	2600      	movs	r6, #0
  4032d8:	e7ca      	b.n	403270 <__kernel_cos+0x188>
  4032da:	4910      	ldr	r1, [pc, #64]	; (40331c <__kernel_cos+0x234>)
  4032dc:	2000      	movs	r0, #0
  4032de:	b005      	add	sp, #20
  4032e0:	e8bd 8ff0 	ldmia.w	sp!, {r4, r5, r6, r7, r8, r9, sl, fp, pc}
  4032e4:	f3af 8000 	nop.w
  4032e8:	be8838d4 	.word	0xbe8838d4
  4032ec:	bda8fae9 	.word	0xbda8fae9
  4032f0:	bdb4b1c4 	.word	0xbdb4b1c4
  4032f4:	3e21ee9e 	.word	0x3e21ee9e
  4032f8:	809c52ad 	.word	0x809c52ad
  4032fc:	3e927e4f 	.word	0x3e927e4f
  403300:	19cb1590 	.word	0x19cb1590
  403304:	3efa01a0 	.word	0x3efa01a0
  403308:	16c15177 	.word	0x16c15177
  40330c:	3f56c16c 	.word	0x3f56c16c
  403310:	5555554c 	.word	0x5555554c
  403314:	3fa55555 	.word	0x3fa55555
  403318:	3fe00000 	.word	0x3fe00000
  40331c:	3ff00000 	.word	0x3ff00000
  403320:	3fd33332 	.word	0x3fd33332
  403324:	3fe90000 	.word	0x3fe90000
  403328:	3fe70000 	.word	0x3fe70000
  40332c:	3fd20000 	.word	0x3fd20000

00403330 <__kernel_rem_pio2>:
  403330:	e92d 4ff0 	stmdb	sp!, {r4, r5, r6, r7, r8, r9, sl, fp, lr}
  403334:	f5ad 7d1d 	sub.w	sp, sp, #628	; 0x274
  403338:	4c7b      	ldr	r4, [pc, #492]	; (403528 <__kernel_rem_pio2+0x1f8>)
  40333a:	9ea6      	ldr	r6, [sp, #664]	; 0x298
  40333c:	4d7b      	ldr	r5, [pc, #492]	; (40352c <__kernel_rem_pio2+0x1fc>)
  40333e:	f854 4026 	ldr.w	r4, [r4, r6, lsl #2]
  403342:	9409      	str	r4, [sp, #36]	; 0x24
  403344:	4626      	mov	r6, r4
  403346:	1ed4      	subs	r4, r2, #3
  403348:	fb85 7504 	smull	r7, r5, r5, r4
  40334c:	17e4      	asrs	r4, r4, #31
  40334e:	ebc4 04a5 	rsb	r4, r4, r5, asr #2
  403352:	ea24 74e4 	bic.w	r4, r4, r4, asr #31
  403356:	461d      	mov	r5, r3
  403358:	930c      	str	r3, [sp, #48]	; 0x30
  40335a:	43e3      	mvns	r3, r4
  40335c:	eb03 0343 	add.w	r3, r3, r3, lsl #1
  403360:	3d01      	subs	r5, #1
  403362:	eb02 03c3 	add.w	r3, r2, r3, lsl #3
  403366:	9308      	str	r3, [sp, #32]
  403368:	462b      	mov	r3, r5
  40336a:	940d      	str	r4, [sp, #52]	; 0x34
  40336c:	9503      	str	r5, [sp, #12]
  40336e:	1b65      	subs	r5, r4, r5
  403370:	199c      	adds	r4, r3, r6
  403372:	9004      	str	r0, [sp, #16]
  403374:	910a      	str	r1, [sp, #40]	; 0x28
  403376:	d416      	bmi.n	4033a6 <__kernel_rem_pio2+0x76>
  403378:	442c      	add	r4, r5
  40337a:	3401      	adds	r4, #1
  40337c:	ae22      	add	r6, sp, #136	; 0x88
  40337e:	9fa7      	ldr	r7, [sp, #668]	; 0x29c
  403380:	e008      	b.n	403394 <__kernel_rem_pio2+0x64>
  403382:	f857 0025 	ldr.w	r0, [r7, r5, lsl #2]
  403386:	f000 fefb 	bl	404180 <__aeabi_i2d>
  40338a:	3501      	adds	r5, #1
  40338c:	42a5      	cmp	r5, r4
  40338e:	e9e6 0102 	strd	r0, r1, [r6, #8]!
  403392:	d008      	beq.n	4033a6 <__kernel_rem_pio2+0x76>
  403394:	2d00      	cmp	r5, #0
  403396:	daf4      	bge.n	403382 <__kernel_rem_pio2+0x52>
  403398:	3501      	adds	r5, #1
  40339a:	2000      	movs	r0, #0
  40339c:	2100      	movs	r1, #0
  40339e:	42a5      	cmp	r5, r4
  4033a0:	e9e6 0102 	strd	r0, r1, [r6, #8]!
  4033a4:	d1f6      	bne.n	403394 <__kernel_rem_pio2+0x64>
  4033a6:	9b09      	ldr	r3, [sp, #36]	; 0x24
  4033a8:	2b00      	cmp	r3, #0
  4033aa:	db31      	blt.n	403410 <__kernel_rem_pio2+0xe0>
  4033ac:	9a09      	ldr	r2, [sp, #36]	; 0x24
  4033ae:	9b0c      	ldr	r3, [sp, #48]	; 0x30
  4033b0:	a974      	add	r1, sp, #464	; 0x1d0
  4033b2:	eb01 0bc2 	add.w	fp, r1, r2, lsl #3
  4033b6:	ebc3 7343 	rsb	r3, r3, r3, lsl #29
  4033ba:	9a03      	ldr	r2, [sp, #12]
  4033bc:	a924      	add	r1, sp, #144	; 0x90
  4033be:	00db      	lsls	r3, r3, #3
  4033c0:	eb01 08c2 	add.w	r8, r1, r2, lsl #3
  4033c4:	9300      	str	r3, [sp, #0]
  4033c6:	f50d 79e4 	add.w	r9, sp, #456	; 0x1c8
  4033ca:	9b03      	ldr	r3, [sp, #12]
  4033cc:	2b00      	cmp	r3, #0
  4033ce:	f2c0 8199 	blt.w	403704 <__kernel_rem_pio2+0x3d4>
  4033d2:	9b04      	ldr	r3, [sp, #16]
  4033d4:	f1a3 0a08 	sub.w	sl, r3, #8
  4033d8:	9b00      	ldr	r3, [sp, #0]
  4033da:	4644      	mov	r4, r8
  4033dc:	eb08 0503 	add.w	r5, r8, r3
  4033e0:	2600      	movs	r6, #0
  4033e2:	2700      	movs	r7, #0
  4033e4:	e9fa 2302 	ldrd	r2, r3, [sl, #8]!
  4033e8:	e874 0102 	ldrd	r0, r1, [r4], #-8
  4033ec:	f000 ff2e 	bl	40424c <__aeabi_dmul>
  4033f0:	4602      	mov	r2, r0
  4033f2:	460b      	mov	r3, r1
  4033f4:	4630      	mov	r0, r6
  4033f6:	4639      	mov	r1, r7
  4033f8:	f000 fd76 	bl	403ee8 <__adddf3>
  4033fc:	42ac      	cmp	r4, r5
  4033fe:	4606      	mov	r6, r0
  403400:	460f      	mov	r7, r1
  403402:	d1ef      	bne.n	4033e4 <__kernel_rem_pio2+0xb4>
  403404:	e9e9 6702 	strd	r6, r7, [r9, #8]!
  403408:	45d9      	cmp	r9, fp
  40340a:	f108 0808 	add.w	r8, r8, #8
  40340e:	d1dc      	bne.n	4033ca <__kernel_rem_pio2+0x9a>
  403410:	9909      	ldr	r1, [sp, #36]	; 0x24
  403412:	f101 4380 	add.w	r3, r1, #1073741824	; 0x40000000
  403416:	3b01      	subs	r3, #1
  403418:	009b      	lsls	r3, r3, #2
  40341a:	1d1a      	adds	r2, r3, #4
  40341c:	a810      	add	r0, sp, #64	; 0x40
  40341e:	4402      	add	r2, r0
  403420:	4403      	add	r3, r0
  403422:	920f      	str	r2, [sp, #60]	; 0x3c
  403424:	930e      	str	r3, [sp, #56]	; 0x38
  403426:	468b      	mov	fp, r1
  403428:	ea4f 03cb 	mov.w	r3, fp, lsl #3
  40342c:	a99c      	add	r1, sp, #624	; 0x270
  40342e:	461a      	mov	r2, r3
  403430:	9306      	str	r3, [sp, #24]
  403432:	f1bb 0f00 	cmp.w	fp, #0
  403436:	440b      	add	r3, r1
  403438:	e953 4528 	ldrd	r4, r5, [r3, #-160]	; 0xa0
  40343c:	dd28      	ble.n	403490 <__kernel_rem_pio2+0x160>
  40343e:	f50d 7ae8 	add.w	sl, sp, #464	; 0x1d0
  403442:	eb0a 0602 	add.w	r6, sl, r2
  403446:	af0f      	add	r7, sp, #60	; 0x3c
  403448:	2200      	movs	r2, #0
  40344a:	4b39      	ldr	r3, [pc, #228]	; (403530 <__kernel_rem_pio2+0x200>)
  40344c:	4620      	mov	r0, r4
  40344e:	4629      	mov	r1, r5
  403450:	f000 fefc 	bl	40424c <__aeabi_dmul>
  403454:	f001 f994 	bl	404780 <__aeabi_d2iz>
  403458:	f000 fe92 	bl	404180 <__aeabi_i2d>
  40345c:	2200      	movs	r2, #0
  40345e:	4b35      	ldr	r3, [pc, #212]	; (403534 <__kernel_rem_pio2+0x204>)
  403460:	4680      	mov	r8, r0
  403462:	4689      	mov	r9, r1
  403464:	f000 fef2 	bl	40424c <__aeabi_dmul>
  403468:	4602      	mov	r2, r0
  40346a:	460b      	mov	r3, r1
  40346c:	4620      	mov	r0, r4
  40346e:	4629      	mov	r1, r5
  403470:	f000 fd38 	bl	403ee4 <__aeabi_dsub>
  403474:	f001 f984 	bl	404780 <__aeabi_d2iz>
  403478:	e976 2302 	ldrd	r2, r3, [r6, #-8]!
  40347c:	f847 0f04 	str.w	r0, [r7, #4]!
  403480:	4649      	mov	r1, r9
  403482:	4640      	mov	r0, r8
  403484:	f000 fd30 	bl	403ee8 <__adddf3>
  403488:	4556      	cmp	r6, sl
  40348a:	4604      	mov	r4, r0
  40348c:	460d      	mov	r5, r1
  40348e:	d1db      	bne.n	403448 <__kernel_rem_pio2+0x118>
  403490:	f8dd 9020 	ldr.w	r9, [sp, #32]
  403494:	4620      	mov	r0, r4
  403496:	4629      	mov	r1, r5
  403498:	464a      	mov	r2, r9
  40349a:	f000 fc95 	bl	403dc8 <scalbn>
  40349e:	2200      	movs	r2, #0
  4034a0:	f04f 537f 	mov.w	r3, #1069547520	; 0x3fc00000
  4034a4:	4604      	mov	r4, r0
  4034a6:	460d      	mov	r5, r1
  4034a8:	f000 fed0 	bl	40424c <__aeabi_dmul>
  4034ac:	f000 fc00 	bl	403cb0 <floor>
  4034b0:	2200      	movs	r2, #0
  4034b2:	4b21      	ldr	r3, [pc, #132]	; (403538 <__kernel_rem_pio2+0x208>)
  4034b4:	f000 feca 	bl	40424c <__aeabi_dmul>
  4034b8:	4602      	mov	r2, r0
  4034ba:	460b      	mov	r3, r1
  4034bc:	4620      	mov	r0, r4
  4034be:	4629      	mov	r1, r5
  4034c0:	f000 fd10 	bl	403ee4 <__aeabi_dsub>
  4034c4:	4604      	mov	r4, r0
  4034c6:	460d      	mov	r5, r1
  4034c8:	f001 f95a 	bl	404780 <__aeabi_d2iz>
  4034cc:	4680      	mov	r8, r0
  4034ce:	f000 fe57 	bl	404180 <__aeabi_i2d>
  4034d2:	4602      	mov	r2, r0
  4034d4:	460b      	mov	r3, r1
  4034d6:	4620      	mov	r0, r4
  4034d8:	4629      	mov	r1, r5
  4034da:	f000 fd03 	bl	403ee4 <__aeabi_dsub>
  4034de:	464c      	mov	r4, r9
  4034e0:	2c00      	cmp	r4, #0
  4034e2:	4606      	mov	r6, r0
  4034e4:	460f      	mov	r7, r1
  4034e6:	f340 80f3 	ble.w	4036d0 <__kernel_rem_pio2+0x3a0>
  4034ea:	f10b 31ff 	add.w	r1, fp, #4294967295
  4034ee:	ab10      	add	r3, sp, #64	; 0x40
  4034f0:	f1c9 0218 	rsb	r2, r9, #24
  4034f4:	f853 3021 	ldr.w	r3, [r3, r1, lsl #2]
  4034f8:	fa43 f002 	asr.w	r0, r3, r2
  4034fc:	fa00 f502 	lsl.w	r5, r0, r2
  403500:	aa10      	add	r2, sp, #64	; 0x40
  403502:	1b5d      	subs	r5, r3, r5
  403504:	f1c9 0317 	rsb	r3, r9, #23
  403508:	f842 5021 	str.w	r5, [r2, r1, lsl #2]
  40350c:	4480      	add	r8, r0
  40350e:	411d      	asrs	r5, r3
  403510:	2d00      	cmp	r5, #0
  403512:	dd3e      	ble.n	403592 <__kernel_rem_pio2+0x262>
  403514:	f1bb 0f00 	cmp.w	fp, #0
  403518:	f108 0801 	add.w	r8, r8, #1
  40351c:	f340 828a 	ble.w	403a34 <__kernel_rem_pio2+0x704>
  403520:	2200      	movs	r2, #0
  403522:	4614      	mov	r4, r2
  403524:	a90f      	add	r1, sp, #60	; 0x3c
  403526:	e011      	b.n	40354c <__kernel_rem_pio2+0x21c>
  403528:	00409904 	.word	0x00409904
  40352c:	2aaaaaab 	.word	0x2aaaaaab
  403530:	3e700000 	.word	0x3e700000
  403534:	41700000 	.word	0x41700000
  403538:	40200000 	.word	0x40200000
  40353c:	f1c3 7080 	rsb	r0, r3, #16777216	; 0x1000000
  403540:	b10b      	cbz	r3, 403546 <__kernel_rem_pio2+0x216>
  403542:	6008      	str	r0, [r1, #0]
  403544:	2401      	movs	r4, #1
  403546:	3201      	adds	r2, #1
  403548:	4593      	cmp	fp, r2
  40354a:	dd0d      	ble.n	403568 <__kernel_rem_pio2+0x238>
  40354c:	f851 3f04 	ldr.w	r3, [r1, #4]!
  403550:	2c00      	cmp	r4, #0
  403552:	d0f3      	beq.n	40353c <__kernel_rem_pio2+0x20c>
  403554:	f1c3 13ff 	rsb	r3, r3, #16711935	; 0xff00ff
  403558:	3201      	adds	r2, #1
  40355a:	f503 437f 	add.w	r3, r3, #65280	; 0xff00
  40355e:	4593      	cmp	fp, r2
  403560:	600b      	str	r3, [r1, #0]
  403562:	f04f 0401 	mov.w	r4, #1
  403566:	dcf1      	bgt.n	40354c <__kernel_rem_pio2+0x21c>
  403568:	9b08      	ldr	r3, [sp, #32]
  40356a:	2b00      	cmp	r3, #0
  40356c:	dd0e      	ble.n	40358c <__kernel_rem_pio2+0x25c>
  40356e:	2b01      	cmp	r3, #1
  403570:	f000 80b6 	beq.w	4036e0 <__kernel_rem_pio2+0x3b0>
  403574:	2b02      	cmp	r3, #2
  403576:	d109      	bne.n	40358c <__kernel_rem_pio2+0x25c>
  403578:	f10b 32ff 	add.w	r2, fp, #4294967295
  40357c:	ab10      	add	r3, sp, #64	; 0x40
  40357e:	a910      	add	r1, sp, #64	; 0x40
  403580:	f853 3022 	ldr.w	r3, [r3, r2, lsl #2]
  403584:	f3c3 0315 	ubfx	r3, r3, #0, #22
  403588:	f841 3022 	str.w	r3, [r1, r2, lsl #2]
  40358c:	2d02      	cmp	r5, #2
  40358e:	f000 8086 	beq.w	40369e <__kernel_rem_pio2+0x36e>
  403592:	4630      	mov	r0, r6
  403594:	4639      	mov	r1, r7
  403596:	2200      	movs	r2, #0
  403598:	2300      	movs	r3, #0
  40359a:	f001 f8bf 	bl	40471c <__aeabi_dcmpeq>
  40359e:	2800      	cmp	r0, #0
  4035a0:	f000 80cc 	beq.w	40373c <__kernel_rem_pio2+0x40c>
  4035a4:	9b09      	ldr	r3, [sp, #36]	; 0x24
  4035a6:	f10b 3aff 	add.w	sl, fp, #4294967295
  4035aa:	4553      	cmp	r3, sl
  4035ac:	dc0d      	bgt.n	4035ca <__kernel_rem_pio2+0x29a>
  4035ae:	ab10      	add	r3, sp, #64	; 0x40
  4035b0:	980f      	ldr	r0, [sp, #60]	; 0x3c
  4035b2:	eb03 038b 	add.w	r3, r3, fp, lsl #2
  4035b6:	2200      	movs	r2, #0
  4035b8:	f853 1d04 	ldr.w	r1, [r3, #-4]!
  4035bc:	4283      	cmp	r3, r0
  4035be:	ea42 0201 	orr.w	r2, r2, r1
  4035c2:	d1f9      	bne.n	4035b8 <__kernel_rem_pio2+0x288>
  4035c4:	2a00      	cmp	r2, #0
  4035c6:	f040 821b 	bne.w	403a00 <__kernel_rem_pio2+0x6d0>
  4035ca:	9b09      	ldr	r3, [sp, #36]	; 0x24
  4035cc:	aa10      	add	r2, sp, #64	; 0x40
  4035ce:	3b01      	subs	r3, #1
  4035d0:	f852 3023 	ldr.w	r3, [r2, r3, lsl #2]
  4035d4:	2b00      	cmp	r3, #0
  4035d6:	f040 822b 	bne.w	403a30 <__kernel_rem_pio2+0x700>
  4035da:	9a0e      	ldr	r2, [sp, #56]	; 0x38
  4035dc:	2301      	movs	r3, #1
  4035de:	f852 1d04 	ldr.w	r1, [r2, #-4]!
  4035e2:	3301      	adds	r3, #1
  4035e4:	2900      	cmp	r1, #0
  4035e6:	d0fa      	beq.n	4035de <__kernel_rem_pio2+0x2ae>
  4035e8:	445b      	add	r3, fp
  4035ea:	461a      	mov	r2, r3
  4035ec:	930b      	str	r3, [sp, #44]	; 0x2c
  4035ee:	f10b 0301 	add.w	r3, fp, #1
  4035f2:	4293      	cmp	r3, r2
  4035f4:	dc4d      	bgt.n	403692 <__kernel_rem_pio2+0x362>
  4035f6:	9a0d      	ldr	r2, [sp, #52]	; 0x34
  4035f8:	eb03 0902 	add.w	r9, r3, r2
  4035fc:	9a0b      	ldr	r2, [sp, #44]	; 0x2c
  4035fe:	9b0c      	ldr	r3, [sp, #48]	; 0x30
  403600:	f109 4980 	add.w	r9, r9, #1073741824	; 0x40000000
  403604:	445b      	add	r3, fp
  403606:	ebcb 0b02 	rsb	fp, fp, r2
  40360a:	9aa7      	ldr	r2, [sp, #668]	; 0x29c
  40360c:	f109 39ff 	add.w	r9, r9, #4294967295
  403610:	eb02 0289 	add.w	r2, r2, r9, lsl #2
  403614:	9200      	str	r2, [sp, #0]
  403616:	ea4f 02cb 	mov.w	r2, fp, lsl #3
  40361a:	00db      	lsls	r3, r3, #3
  40361c:	9205      	str	r2, [sp, #20]
  40361e:	aa24      	add	r2, sp, #144	; 0x90
  403620:	eb02 0b03 	add.w	fp, r2, r3
  403624:	9307      	str	r3, [sp, #28]
  403626:	9b06      	ldr	r3, [sp, #24]
  403628:	aa74      	add	r2, sp, #464	; 0x1d0
  40362a:	eb02 0a03 	add.w	sl, r2, r3
  40362e:	f04f 0800 	mov.w	r8, #0
  403632:	9b00      	ldr	r3, [sp, #0]
  403634:	f853 0f04 	ldr.w	r0, [r3, #4]!
  403638:	9300      	str	r3, [sp, #0]
  40363a:	f000 fda1 	bl	404180 <__aeabi_i2d>
  40363e:	9b03      	ldr	r3, [sp, #12]
  403640:	2b00      	cmp	r3, #0
  403642:	e8eb 0102 	strd	r0, r1, [fp], #8
  403646:	db27      	blt.n	403698 <__kernel_rem_pio2+0x368>
  403648:	9b07      	ldr	r3, [sp, #28]
  40364a:	eb03 0408 	add.w	r4, r3, r8
  40364e:	9b06      	ldr	r3, [sp, #24]
  403650:	eb08 0503 	add.w	r5, r8, r3
  403654:	ab24      	add	r3, sp, #144	; 0x90
  403656:	441c      	add	r4, r3
  403658:	441d      	add	r5, r3
  40365a:	9b04      	ldr	r3, [sp, #16]
  40365c:	2600      	movs	r6, #0
  40365e:	f1a3 0908 	sub.w	r9, r3, #8
  403662:	2700      	movs	r7, #0
  403664:	e9f9 2302 	ldrd	r2, r3, [r9, #8]!
  403668:	e874 0102 	ldrd	r0, r1, [r4], #-8
  40366c:	f000 fdee 	bl	40424c <__aeabi_dmul>
  403670:	4602      	mov	r2, r0
  403672:	460b      	mov	r3, r1
  403674:	4630      	mov	r0, r6
  403676:	4639      	mov	r1, r7
  403678:	f000 fc36 	bl	403ee8 <__adddf3>
  40367c:	42ac      	cmp	r4, r5
  40367e:	4606      	mov	r6, r0
  403680:	460f      	mov	r7, r1
  403682:	d1ef      	bne.n	403664 <__kernel_rem_pio2+0x334>
  403684:	9b05      	ldr	r3, [sp, #20]
  403686:	f108 0808 	add.w	r8, r8, #8
  40368a:	4598      	cmp	r8, r3
  40368c:	e9ea 6702 	strd	r6, r7, [sl, #8]!
  403690:	d1cf      	bne.n	403632 <__kernel_rem_pio2+0x302>
  403692:	f8dd b02c 	ldr.w	fp, [sp, #44]	; 0x2c
  403696:	e6c7      	b.n	403428 <__kernel_rem_pio2+0xf8>
  403698:	2600      	movs	r6, #0
  40369a:	2700      	movs	r7, #0
  40369c:	e7f2      	b.n	403684 <__kernel_rem_pio2+0x354>
  40369e:	4632      	mov	r2, r6
  4036a0:	463b      	mov	r3, r7
  4036a2:	2000      	movs	r0, #0
  4036a4:	49c0      	ldr	r1, [pc, #768]	; (4039a8 <__kernel_rem_pio2+0x678>)
  4036a6:	f000 fc1d 	bl	403ee4 <__aeabi_dsub>
  4036aa:	4606      	mov	r6, r0
  4036ac:	460f      	mov	r7, r1
  4036ae:	2c00      	cmp	r4, #0
  4036b0:	f43f af6f 	beq.w	403592 <__kernel_rem_pio2+0x262>
  4036b4:	9a08      	ldr	r2, [sp, #32]
  4036b6:	49bc      	ldr	r1, [pc, #752]	; (4039a8 <__kernel_rem_pio2+0x678>)
  4036b8:	2000      	movs	r0, #0
  4036ba:	f000 fb85 	bl	403dc8 <scalbn>
  4036be:	4602      	mov	r2, r0
  4036c0:	460b      	mov	r3, r1
  4036c2:	4630      	mov	r0, r6
  4036c4:	4639      	mov	r1, r7
  4036c6:	f000 fc0d 	bl	403ee4 <__aeabi_dsub>
  4036ca:	4606      	mov	r6, r0
  4036cc:	460f      	mov	r7, r1
  4036ce:	e760      	b.n	403592 <__kernel_rem_pio2+0x262>
  4036d0:	d111      	bne.n	4036f6 <__kernel_rem_pio2+0x3c6>
  4036d2:	f10b 33ff 	add.w	r3, fp, #4294967295
  4036d6:	aa10      	add	r2, sp, #64	; 0x40
  4036d8:	f852 5023 	ldr.w	r5, [r2, r3, lsl #2]
  4036dc:	15ed      	asrs	r5, r5, #23
  4036de:	e717      	b.n	403510 <__kernel_rem_pio2+0x1e0>
  4036e0:	f10b 32ff 	add.w	r2, fp, #4294967295
  4036e4:	ab10      	add	r3, sp, #64	; 0x40
  4036e6:	a910      	add	r1, sp, #64	; 0x40
  4036e8:	f853 3022 	ldr.w	r3, [r3, r2, lsl #2]
  4036ec:	f3c3 0316 	ubfx	r3, r3, #0, #23
  4036f0:	f841 3022 	str.w	r3, [r1, r2, lsl #2]
  4036f4:	e74a      	b.n	40358c <__kernel_rem_pio2+0x25c>
  4036f6:	2200      	movs	r2, #0
  4036f8:	4bac      	ldr	r3, [pc, #688]	; (4039ac <__kernel_rem_pio2+0x67c>)
  4036fa:	f001 f82d 	bl	404758 <__aeabi_dcmpge>
  4036fe:	b958      	cbnz	r0, 403718 <__kernel_rem_pio2+0x3e8>
  403700:	4605      	mov	r5, r0
  403702:	e746      	b.n	403592 <__kernel_rem_pio2+0x262>
  403704:	2600      	movs	r6, #0
  403706:	2700      	movs	r7, #0
  403708:	e9e9 6702 	strd	r6, r7, [r9, #8]!
  40370c:	45d9      	cmp	r9, fp
  40370e:	f108 0808 	add.w	r8, r8, #8
  403712:	f47f ae5a 	bne.w	4033ca <__kernel_rem_pio2+0x9a>
  403716:	e67b      	b.n	403410 <__kernel_rem_pio2+0xe0>
  403718:	f1bb 0f00 	cmp.w	fp, #0
  40371c:	f108 0801 	add.w	r8, r8, #1
  403720:	bfc8      	it	gt
  403722:	2502      	movgt	r5, #2
  403724:	f73f aefc 	bgt.w	403520 <__kernel_rem_pio2+0x1f0>
  403728:	4632      	mov	r2, r6
  40372a:	463b      	mov	r3, r7
  40372c:	2000      	movs	r0, #0
  40372e:	499e      	ldr	r1, [pc, #632]	; (4039a8 <__kernel_rem_pio2+0x678>)
  403730:	f000 fbd8 	bl	403ee4 <__aeabi_dsub>
  403734:	2502      	movs	r5, #2
  403736:	4606      	mov	r6, r0
  403738:	460f      	mov	r7, r1
  40373a:	e72a      	b.n	403592 <__kernel_rem_pio2+0x262>
  40373c:	9b08      	ldr	r3, [sp, #32]
  40373e:	9503      	str	r5, [sp, #12]
  403740:	425a      	negs	r2, r3
  403742:	4630      	mov	r0, r6
  403744:	4639      	mov	r1, r7
  403746:	f8cd 8014 	str.w	r8, [sp, #20]
  40374a:	f000 fb3d 	bl	403dc8 <scalbn>
  40374e:	2200      	movs	r2, #0
  403750:	4b97      	ldr	r3, [pc, #604]	; (4039b0 <__kernel_rem_pio2+0x680>)
  403752:	4604      	mov	r4, r0
  403754:	460d      	mov	r5, r1
  403756:	f000 ffff 	bl	404758 <__aeabi_dcmpge>
  40375a:	2800      	cmp	r0, #0
  40375c:	f000 81e3 	beq.w	403b26 <__kernel_rem_pio2+0x7f6>
  403760:	2200      	movs	r2, #0
  403762:	4b94      	ldr	r3, [pc, #592]	; (4039b4 <__kernel_rem_pio2+0x684>)
  403764:	4620      	mov	r0, r4
  403766:	4629      	mov	r1, r5
  403768:	f000 fd70 	bl	40424c <__aeabi_dmul>
  40376c:	f001 f808 	bl	404780 <__aeabi_d2iz>
  403770:	4606      	mov	r6, r0
  403772:	f000 fd05 	bl	404180 <__aeabi_i2d>
  403776:	2200      	movs	r2, #0
  403778:	4b8d      	ldr	r3, [pc, #564]	; (4039b0 <__kernel_rem_pio2+0x680>)
  40377a:	f000 fd67 	bl	40424c <__aeabi_dmul>
  40377e:	460b      	mov	r3, r1
  403780:	4602      	mov	r2, r0
  403782:	4629      	mov	r1, r5
  403784:	4620      	mov	r0, r4
  403786:	f000 fbad 	bl	403ee4 <__aeabi_dsub>
  40378a:	f000 fff9 	bl	404780 <__aeabi_d2iz>
  40378e:	9b08      	ldr	r3, [sp, #32]
  403790:	3318      	adds	r3, #24
  403792:	f10b 0a01 	add.w	sl, fp, #1
  403796:	9308      	str	r3, [sp, #32]
  403798:	ab10      	add	r3, sp, #64	; 0x40
  40379a:	f843 002b 	str.w	r0, [r3, fp, lsl #2]
  40379e:	f843 602a 	str.w	r6, [r3, sl, lsl #2]
  4037a2:	9a08      	ldr	r2, [sp, #32]
  4037a4:	4980      	ldr	r1, [pc, #512]	; (4039a8 <__kernel_rem_pio2+0x678>)
  4037a6:	2000      	movs	r0, #0
  4037a8:	f000 fb0e 	bl	403dc8 <scalbn>
  4037ac:	f1ba 0f00 	cmp.w	sl, #0
  4037b0:	4604      	mov	r4, r0
  4037b2:	460d      	mov	r5, r1
  4037b4:	f2c0 80cd 	blt.w	403952 <__kernel_rem_pio2+0x622>
  4037b8:	f10a 0301 	add.w	r3, sl, #1
  4037bc:	ea4f 08c3 	mov.w	r8, r3, lsl #3
  4037c0:	af74      	add	r7, sp, #464	; 0x1d0
  4037c2:	aa10      	add	r2, sp, #64	; 0x40
  4037c4:	9300      	str	r3, [sp, #0]
  4037c6:	eb02 0983 	add.w	r9, r2, r3, lsl #2
  4037ca:	eb07 0608 	add.w	r6, r7, r8
  4037ce:	f859 0d04 	ldr.w	r0, [r9, #-4]!
  4037d2:	f000 fcd5 	bl	404180 <__aeabi_i2d>
  4037d6:	4622      	mov	r2, r4
  4037d8:	462b      	mov	r3, r5
  4037da:	f000 fd37 	bl	40424c <__aeabi_dmul>
  4037de:	2200      	movs	r2, #0
  4037e0:	e966 0102 	strd	r0, r1, [r6, #-8]!
  4037e4:	4b73      	ldr	r3, [pc, #460]	; (4039b4 <__kernel_rem_pio2+0x684>)
  4037e6:	4620      	mov	r0, r4
  4037e8:	4629      	mov	r1, r5
  4037ea:	f000 fd2f 	bl	40424c <__aeabi_dmul>
  4037ee:	42be      	cmp	r6, r7
  4037f0:	4604      	mov	r4, r0
  4037f2:	460d      	mov	r5, r1
  4037f4:	d1eb      	bne.n	4037ce <__kernel_rem_pio2+0x49e>
  4037f6:	f1a8 0808 	sub.w	r8, r8, #8
  4037fa:	eb06 0308 	add.w	r3, r6, r8
  4037fe:	f50d 7998 	add.w	r9, sp, #304	; 0x130
  403802:	f8cd a018 	str.w	sl, [sp, #24]
  403806:	f8dd a024 	ldr.w	sl, [sp, #36]	; 0x24
  40380a:	f8cd 9010 	str.w	r9, [sp, #16]
  40380e:	f04f 0800 	mov.w	r8, #0
  403812:	469b      	mov	fp, r3
  403814:	f1ba 0f00 	cmp.w	sl, #0
  403818:	f2c0 8098 	blt.w	40394c <__kernel_rem_pio2+0x61c>
  40381c:	f1b8 0f00 	cmp.w	r8, #0
  403820:	f2c0 8094 	blt.w	40394c <__kernel_rem_pio2+0x61c>
  403824:	f8df 9190 	ldr.w	r9, [pc, #400]	; 4039b8 <__kernel_rem_pio2+0x688>
  403828:	465d      	mov	r5, fp
  40382a:	2600      	movs	r6, #0
  40382c:	2700      	movs	r7, #0
  40382e:	2400      	movs	r4, #0
  403830:	e001      	b.n	403836 <__kernel_rem_pio2+0x506>
  403832:	4544      	cmp	r4, r8
  403834:	dc10      	bgt.n	403858 <__kernel_rem_pio2+0x528>
  403836:	e9f9 2302 	ldrd	r2, r3, [r9, #8]!
  40383a:	e8f5 0102 	ldrd	r0, r1, [r5], #8
  40383e:	f000 fd05 	bl	40424c <__aeabi_dmul>
  403842:	4602      	mov	r2, r0
  403844:	460b      	mov	r3, r1
  403846:	4630      	mov	r0, r6
  403848:	4639      	mov	r1, r7
  40384a:	f000 fb4d 	bl	403ee8 <__adddf3>
  40384e:	3401      	adds	r4, #1
  403850:	45a2      	cmp	sl, r4
  403852:	4606      	mov	r6, r0
  403854:	460f      	mov	r7, r1
  403856:	daec      	bge.n	403832 <__kernel_rem_pio2+0x502>
  403858:	9b04      	ldr	r3, [sp, #16]
  40385a:	eb03 03c8 	add.w	r3, r3, r8, lsl #3
  40385e:	e9c3 6700 	strd	r6, r7, [r3]
  403862:	9b00      	ldr	r3, [sp, #0]
  403864:	f108 0801 	add.w	r8, r8, #1
  403868:	4598      	cmp	r8, r3
  40386a:	f1ab 0b08 	sub.w	fp, fp, #8
  40386e:	d1d1      	bne.n	403814 <__kernel_rem_pio2+0x4e4>
  403870:	9ba6      	ldr	r3, [sp, #664]	; 0x298
  403872:	f8dd a018 	ldr.w	sl, [sp, #24]
  403876:	f8dd 9010 	ldr.w	r9, [sp, #16]
  40387a:	2b03      	cmp	r3, #3
  40387c:	d83d      	bhi.n	4038fa <__kernel_rem_pio2+0x5ca>
  40387e:	e8df f013 	tbh	[pc, r3, lsl #1]
  403882:	0043      	.short	0x0043
  403884:	00040004 	.word	0x00040004
  403888:	00db      	.short	0x00db
  40388a:	9b00      	ldr	r3, [sp, #0]
  40388c:	2400      	movs	r4, #0
  40388e:	eb09 06c3 	add.w	r6, r9, r3, lsl #3
  403892:	4625      	mov	r5, r4
  403894:	4620      	mov	r0, r4
  403896:	4629      	mov	r1, r5
  403898:	e976 2302 	ldrd	r2, r3, [r6, #-8]!
  40389c:	f000 fb24 	bl	403ee8 <__adddf3>
  4038a0:	454e      	cmp	r6, r9
  4038a2:	4604      	mov	r4, r0
  4038a4:	460d      	mov	r5, r1
  4038a6:	d1f5      	bne.n	403894 <__kernel_rem_pio2+0x564>
  4038a8:	9b03      	ldr	r3, [sp, #12]
  4038aa:	2b00      	cmp	r3, #0
  4038ac:	f000 808e 	beq.w	4039cc <__kernel_rem_pio2+0x69c>
  4038b0:	980a      	ldr	r0, [sp, #40]	; 0x28
  4038b2:	462b      	mov	r3, r5
  4038b4:	f105 4500 	add.w	r5, r5, #2147483648	; 0x80000000
  4038b8:	4622      	mov	r2, r4
  4038ba:	e880 0030 	stmia.w	r0, {r4, r5}
  4038be:	e9d9 0100 	ldrd	r0, r1, [r9]
  4038c2:	f000 fb0f 	bl	403ee4 <__aeabi_dsub>
  4038c6:	f1ba 0f00 	cmp.w	sl, #0
  4038ca:	4602      	mov	r2, r0
  4038cc:	460b      	mov	r3, r1
  4038ce:	dd0d      	ble.n	4038ec <__kernel_rem_pio2+0x5bc>
  4038d0:	2401      	movs	r4, #1
  4038d2:	4610      	mov	r0, r2
  4038d4:	4619      	mov	r1, r3
  4038d6:	e9f9 2302 	ldrd	r2, r3, [r9, #8]!
  4038da:	f000 fb05 	bl	403ee8 <__adddf3>
  4038de:	3401      	adds	r4, #1
  4038e0:	45a2      	cmp	sl, r4
  4038e2:	4602      	mov	r2, r0
  4038e4:	460b      	mov	r3, r1
  4038e6:	daf4      	bge.n	4038d2 <__kernel_rem_pio2+0x5a2>
  4038e8:	9903      	ldr	r1, [sp, #12]
  4038ea:	b109      	cbz	r1, 4038f0 <__kernel_rem_pio2+0x5c0>
  4038ec:	f103 4300 	add.w	r3, r3, #2147483648	; 0x80000000
  4038f0:	4619      	mov	r1, r3
  4038f2:	9b0a      	ldr	r3, [sp, #40]	; 0x28
  4038f4:	4610      	mov	r0, r2
  4038f6:	e9c3 0102 	strd	r0, r1, [r3, #8]
  4038fa:	9b05      	ldr	r3, [sp, #20]
  4038fc:	f003 0007 	and.w	r0, r3, #7
  403900:	f50d 7d1d 	add.w	sp, sp, #628	; 0x274
  403904:	e8bd 8ff0 	ldmia.w	sp!, {r4, r5, r6, r7, r8, r9, sl, fp, pc}
  403908:	9b00      	ldr	r3, [sp, #0]
  40390a:	2200      	movs	r2, #0
  40390c:	eb09 09c3 	add.w	r9, r9, r3, lsl #3
  403910:	4613      	mov	r3, r2
  403912:	4610      	mov	r0, r2
  403914:	4619      	mov	r1, r3
  403916:	e979 2302 	ldrd	r2, r3, [r9, #-8]!
  40391a:	f000 fae5 	bl	403ee8 <__adddf3>
  40391e:	f10a 3aff 	add.w	sl, sl, #4294967295
  403922:	f1ba 3fff 	cmp.w	sl, #4294967295
  403926:	4602      	mov	r2, r0
  403928:	460b      	mov	r3, r1
  40392a:	d1f2      	bne.n	403912 <__kernel_rem_pio2+0x5e2>
  40392c:	9903      	ldr	r1, [sp, #12]
  40392e:	b109      	cbz	r1, 403934 <__kernel_rem_pio2+0x604>
  403930:	f103 4300 	add.w	r3, r3, #2147483648	; 0x80000000
  403934:	4619      	mov	r1, r3
  403936:	9b0a      	ldr	r3, [sp, #40]	; 0x28
  403938:	4610      	mov	r0, r2
  40393a:	e9c3 0100 	strd	r0, r1, [r3]
  40393e:	9b05      	ldr	r3, [sp, #20]
  403940:	f003 0007 	and.w	r0, r3, #7
  403944:	f50d 7d1d 	add.w	sp, sp, #628	; 0x274
  403948:	e8bd 8ff0 	ldmia.w	sp!, {r4, r5, r6, r7, r8, r9, sl, fp, pc}
  40394c:	2600      	movs	r6, #0
  40394e:	2700      	movs	r7, #0
  403950:	e782      	b.n	403858 <__kernel_rem_pio2+0x528>
  403952:	9ba6      	ldr	r3, [sp, #664]	; 0x298
  403954:	2b03      	cmp	r3, #3
  403956:	d8d0      	bhi.n	4038fa <__kernel_rem_pio2+0x5ca>
  403958:	e8df f003 	tbb	[pc, r3]
  40395c:	0230304f 	.word	0x0230304f
  403960:	f50d 7998 	add.w	r9, sp, #304	; 0x130
  403964:	9b03      	ldr	r3, [sp, #12]
  403966:	2700      	movs	r7, #0
  403968:	463e      	mov	r6, r7
  40396a:	2b00      	cmp	r3, #0
  40396c:	f000 80c7 	beq.w	403afe <__kernel_rem_pio2+0x7ce>
  403970:	f8d9 300c 	ldr.w	r3, [r9, #12]
  403974:	9d0a      	ldr	r5, [sp, #40]	; 0x28
  403976:	f8d9 0004 	ldr.w	r0, [r9, #4]
  40397a:	f8d9 2000 	ldr.w	r2, [r9]
  40397e:	f8d9 1008 	ldr.w	r1, [r9, #8]
  403982:	612f      	str	r7, [r5, #16]
  403984:	f103 4300 	add.w	r3, r3, #2147483648	; 0x80000000
  403988:	60eb      	str	r3, [r5, #12]
  40398a:	9b05      	ldr	r3, [sp, #20]
  40398c:	602a      	str	r2, [r5, #0]
  40398e:	f100 4000 	add.w	r0, r0, #2147483648	; 0x80000000
  403992:	f106 4600 	add.w	r6, r6, #2147483648	; 0x80000000
  403996:	6068      	str	r0, [r5, #4]
  403998:	f003 0007 	and.w	r0, r3, #7
  40399c:	616e      	str	r6, [r5, #20]
  40399e:	60a9      	str	r1, [r5, #8]
  4039a0:	f50d 7d1d 	add.w	sp, sp, #628	; 0x274
  4039a4:	e8bd 8ff0 	ldmia.w	sp!, {r4, r5, r6, r7, r8, r9, sl, fp, pc}
  4039a8:	3ff00000 	.word	0x3ff00000
  4039ac:	3fe00000 	.word	0x3fe00000
  4039b0:	41700000 	.word	0x41700000
  4039b4:	3e700000 	.word	0x3e700000
  4039b8:	00409910 	.word	0x00409910
  4039bc:	9b03      	ldr	r3, [sp, #12]
  4039be:	2400      	movs	r4, #0
  4039c0:	4625      	mov	r5, r4
  4039c2:	f50d 7998 	add.w	r9, sp, #304	; 0x130
  4039c6:	2b00      	cmp	r3, #0
  4039c8:	f47f af72 	bne.w	4038b0 <__kernel_rem_pio2+0x580>
  4039cc:	4620      	mov	r0, r4
  4039ce:	4622      	mov	r2, r4
  4039d0:	9c0a      	ldr	r4, [sp, #40]	; 0x28
  4039d2:	4629      	mov	r1, r5
  4039d4:	462b      	mov	r3, r5
  4039d6:	e9c4 0100 	strd	r0, r1, [r4]
  4039da:	e9d9 0100 	ldrd	r0, r1, [r9]
  4039de:	f000 fa81 	bl	403ee4 <__aeabi_dsub>
  4039e2:	f1ba 0f00 	cmp.w	sl, #0
  4039e6:	4602      	mov	r2, r0
  4039e8:	460b      	mov	r3, r1
  4039ea:	f73f af71 	bgt.w	4038d0 <__kernel_rem_pio2+0x5a0>
  4039ee:	4619      	mov	r1, r3
  4039f0:	9b0a      	ldr	r3, [sp, #40]	; 0x28
  4039f2:	4610      	mov	r0, r2
  4039f4:	e9c3 0102 	strd	r0, r1, [r3, #8]
  4039f8:	e77f      	b.n	4038fa <__kernel_rem_pio2+0x5ca>
  4039fa:	2200      	movs	r2, #0
  4039fc:	4613      	mov	r3, r2
  4039fe:	e795      	b.n	40392c <__kernel_rem_pio2+0x5fc>
  403a00:	ab10      	add	r3, sp, #64	; 0x40
  403a02:	9a08      	ldr	r2, [sp, #32]
  403a04:	f853 302a 	ldr.w	r3, [r3, sl, lsl #2]
  403a08:	9503      	str	r5, [sp, #12]
  403a0a:	3a18      	subs	r2, #24
  403a0c:	f8cd 8014 	str.w	r8, [sp, #20]
  403a10:	9208      	str	r2, [sp, #32]
  403a12:	2b00      	cmp	r3, #0
  403a14:	f47f aec5 	bne.w	4037a2 <__kernel_rem_pio2+0x472>
  403a18:	ab10      	add	r3, sp, #64	; 0x40
  403a1a:	eb03 038a 	add.w	r3, r3, sl, lsl #2
  403a1e:	f853 1d04 	ldr.w	r1, [r3, #-4]!
  403a22:	f10a 3aff 	add.w	sl, sl, #4294967295
  403a26:	3a18      	subs	r2, #24
  403a28:	2900      	cmp	r1, #0
  403a2a:	d0f8      	beq.n	403a1e <__kernel_rem_pio2+0x6ee>
  403a2c:	9208      	str	r2, [sp, #32]
  403a2e:	e6b8      	b.n	4037a2 <__kernel_rem_pio2+0x472>
  403a30:	2301      	movs	r3, #1
  403a32:	e5d9      	b.n	4035e8 <__kernel_rem_pio2+0x2b8>
  403a34:	2400      	movs	r4, #0
  403a36:	e597      	b.n	403568 <__kernel_rem_pio2+0x238>
  403a38:	f1ba 0f00 	cmp.w	sl, #0
  403a3c:	dd92      	ble.n	403964 <__kernel_rem_pio2+0x634>
  403a3e:	ea4f 08ca 	mov.w	r8, sl, lsl #3
  403a42:	eb09 0b08 	add.w	fp, r9, r8
  403a46:	e9db 6700 	ldrd	r6, r7, [fp]
  403a4a:	e97b 2302 	ldrd	r2, r3, [fp, #-8]!
  403a4e:	4630      	mov	r0, r6
  403a50:	4639      	mov	r1, r7
  403a52:	e9cd 2300 	strd	r2, r3, [sp]
  403a56:	f000 fa47 	bl	403ee8 <__adddf3>
  403a5a:	4604      	mov	r4, r0
  403a5c:	460d      	mov	r5, r1
  403a5e:	4622      	mov	r2, r4
  403a60:	462b      	mov	r3, r5
  403a62:	e9dd 0100 	ldrd	r0, r1, [sp]
  403a66:	f000 fa3d 	bl	403ee4 <__aeabi_dsub>
  403a6a:	4602      	mov	r2, r0
  403a6c:	460b      	mov	r3, r1
  403a6e:	4630      	mov	r0, r6
  403a70:	4639      	mov	r1, r7
  403a72:	f000 fa39 	bl	403ee8 <__adddf3>
  403a76:	45cb      	cmp	fp, r9
  403a78:	4626      	mov	r6, r4
  403a7a:	462f      	mov	r7, r5
  403a7c:	e9cb 0102 	strd	r0, r1, [fp, #8]
  403a80:	e9cb 4500 	strd	r4, r5, [fp]
  403a84:	d1e1      	bne.n	403a4a <__kernel_rem_pio2+0x71a>
  403a86:	f1ba 0f01 	cmp.w	sl, #1
  403a8a:	f77f af6b 	ble.w	403964 <__kernel_rem_pio2+0x634>
  403a8e:	eb09 0a08 	add.w	sl, r9, r8
  403a92:	e9da 6700 	ldrd	r6, r7, [sl]
  403a96:	f50d 7b9c 	add.w	fp, sp, #312	; 0x138
  403a9a:	e97a 2302 	ldrd	r2, r3, [sl, #-8]!
  403a9e:	4610      	mov	r0, r2
  403aa0:	4619      	mov	r1, r3
  403aa2:	4632      	mov	r2, r6
  403aa4:	463b      	mov	r3, r7
  403aa6:	e9cd 0100 	strd	r0, r1, [sp]
  403aaa:	f000 fa1d 	bl	403ee8 <__adddf3>
  403aae:	4604      	mov	r4, r0
  403ab0:	460d      	mov	r5, r1
  403ab2:	4622      	mov	r2, r4
  403ab4:	462b      	mov	r3, r5
  403ab6:	e9dd 0100 	ldrd	r0, r1, [sp]
  403aba:	f000 fa13 	bl	403ee4 <__aeabi_dsub>
  403abe:	4632      	mov	r2, r6
  403ac0:	463b      	mov	r3, r7
  403ac2:	f000 fa11 	bl	403ee8 <__adddf3>
  403ac6:	45da      	cmp	sl, fp
  403ac8:	4626      	mov	r6, r4
  403aca:	462f      	mov	r7, r5
  403acc:	e9ca 0102 	strd	r0, r1, [sl, #8]
  403ad0:	e9ca 4500 	strd	r4, r5, [sl]
  403ad4:	d1e1      	bne.n	403a9a <__kernel_rem_pio2+0x76a>
  403ad6:	f108 0408 	add.w	r4, r8, #8
  403ada:	2700      	movs	r7, #0
  403adc:	444c      	add	r4, r9
  403ade:	463e      	mov	r6, r7
  403ae0:	ad50      	add	r5, sp, #320	; 0x140
  403ae2:	4638      	mov	r0, r7
  403ae4:	4631      	mov	r1, r6
  403ae6:	e974 2302 	ldrd	r2, r3, [r4, #-8]!
  403aea:	f000 f9fd 	bl	403ee8 <__adddf3>
  403aee:	42ac      	cmp	r4, r5
  403af0:	4607      	mov	r7, r0
  403af2:	460e      	mov	r6, r1
  403af4:	d1f5      	bne.n	403ae2 <__kernel_rem_pio2+0x7b2>
  403af6:	9b03      	ldr	r3, [sp, #12]
  403af8:	2b00      	cmp	r3, #0
  403afa:	f47f af39 	bne.w	403970 <__kernel_rem_pio2+0x640>
  403afe:	e9d9 2300 	ldrd	r2, r3, [r9]
  403b02:	463c      	mov	r4, r7
  403b04:	9f0a      	ldr	r7, [sp, #40]	; 0x28
  403b06:	e9d9 0102 	ldrd	r0, r1, [r9, #8]
  403b0a:	e9c7 2300 	strd	r2, r3, [r7]
  403b0e:	9b05      	ldr	r3, [sp, #20]
  403b10:	4635      	mov	r5, r6
  403b12:	e9c7 0102 	strd	r0, r1, [r7, #8]
  403b16:	f003 0007 	and.w	r0, r3, #7
  403b1a:	e9c7 4504 	strd	r4, r5, [r7, #16]
  403b1e:	f50d 7d1d 	add.w	sp, sp, #628	; 0x274
  403b22:	e8bd 8ff0 	ldmia.w	sp!, {r4, r5, r6, r7, r8, r9, sl, fp, pc}
  403b26:	4620      	mov	r0, r4
  403b28:	4629      	mov	r1, r5
  403b2a:	f000 fe29 	bl	404780 <__aeabi_d2iz>
  403b2e:	ab10      	add	r3, sp, #64	; 0x40
  403b30:	46da      	mov	sl, fp
  403b32:	f843 002b 	str.w	r0, [r3, fp, lsl #2]
  403b36:	e634      	b.n	4037a2 <__kernel_rem_pio2+0x472>

00403b38 <__kernel_sin>:
  403b38:	e92d 4ff0 	stmdb	sp!, {r4, r5, r6, r7, r8, r9, sl, fp, lr}
  403b3c:	f021 4600 	bic.w	r6, r1, #2147483648	; 0x80000000
  403b40:	f1b6 5f79 	cmp.w	r6, #1044381696	; 0x3e400000
  403b44:	b085      	sub	sp, #20
  403b46:	460c      	mov	r4, r1
  403b48:	4690      	mov	r8, r2
  403b4a:	4699      	mov	r9, r3
  403b4c:	4605      	mov	r5, r0
  403b4e:	da04      	bge.n	403b5a <__kernel_sin+0x22>
  403b50:	f000 fe16 	bl	404780 <__aeabi_d2iz>
  403b54:	2800      	cmp	r0, #0
  403b56:	f000 8083 	beq.w	403c60 <__kernel_sin+0x128>
  403b5a:	462a      	mov	r2, r5
  403b5c:	4623      	mov	r3, r4
  403b5e:	4628      	mov	r0, r5
  403b60:	4621      	mov	r1, r4
  403b62:	f000 fb73 	bl	40424c <__aeabi_dmul>
  403b66:	462a      	mov	r2, r5
  403b68:	4623      	mov	r3, r4
  403b6a:	4606      	mov	r6, r0
  403b6c:	460f      	mov	r7, r1
  403b6e:	f000 fb6d 	bl	40424c <__aeabi_dmul>
  403b72:	a33f      	add	r3, pc, #252	; (adr r3, 403c70 <__kernel_sin+0x138>)
  403b74:	e9d3 2300 	ldrd	r2, r3, [r3]
  403b78:	4682      	mov	sl, r0
  403b7a:	468b      	mov	fp, r1
  403b7c:	4630      	mov	r0, r6
  403b7e:	4639      	mov	r1, r7
  403b80:	f000 fb64 	bl	40424c <__aeabi_dmul>
  403b84:	a33c      	add	r3, pc, #240	; (adr r3, 403c78 <__kernel_sin+0x140>)
  403b86:	e9d3 2300 	ldrd	r2, r3, [r3]
  403b8a:	f000 f9ab 	bl	403ee4 <__aeabi_dsub>
  403b8e:	4632      	mov	r2, r6
  403b90:	463b      	mov	r3, r7
  403b92:	f000 fb5b 	bl	40424c <__aeabi_dmul>
  403b96:	a33a      	add	r3, pc, #232	; (adr r3, 403c80 <__kernel_sin+0x148>)
  403b98:	e9d3 2300 	ldrd	r2, r3, [r3]
  403b9c:	f000 f9a4 	bl	403ee8 <__adddf3>
  403ba0:	4632      	mov	r2, r6
  403ba2:	463b      	mov	r3, r7
  403ba4:	f000 fb52 	bl	40424c <__aeabi_dmul>
  403ba8:	a337      	add	r3, pc, #220	; (adr r3, 403c88 <__kernel_sin+0x150>)
  403baa:	e9d3 2300 	ldrd	r2, r3, [r3]
  403bae:	f000 f999 	bl	403ee4 <__aeabi_dsub>
  403bb2:	4632      	mov	r2, r6
  403bb4:	463b      	mov	r3, r7
  403bb6:	f000 fb49 	bl	40424c <__aeabi_dmul>
  403bba:	a335      	add	r3, pc, #212	; (adr r3, 403c90 <__kernel_sin+0x158>)
  403bbc:	e9d3 2300 	ldrd	r2, r3, [r3]
  403bc0:	f000 f992 	bl	403ee8 <__adddf3>
  403bc4:	9b0e      	ldr	r3, [sp, #56]	; 0x38
  403bc6:	e9cd 0100 	strd	r0, r1, [sp]
  403bca:	b39b      	cbz	r3, 403c34 <__kernel_sin+0xfc>
  403bcc:	4640      	mov	r0, r8
  403bce:	4649      	mov	r1, r9
  403bd0:	2200      	movs	r2, #0
  403bd2:	4b33      	ldr	r3, [pc, #204]	; (403ca0 <__kernel_sin+0x168>)
  403bd4:	f000 fb3a 	bl	40424c <__aeabi_dmul>
  403bd8:	e9dd 2300 	ldrd	r2, r3, [sp]
  403bdc:	e9cd 0102 	strd	r0, r1, [sp, #8]
  403be0:	4650      	mov	r0, sl
  403be2:	4659      	mov	r1, fp
  403be4:	f000 fb32 	bl	40424c <__aeabi_dmul>
  403be8:	4602      	mov	r2, r0
  403bea:	460b      	mov	r3, r1
  403bec:	e9dd 0102 	ldrd	r0, r1, [sp, #8]
  403bf0:	f000 f978 	bl	403ee4 <__aeabi_dsub>
  403bf4:	4632      	mov	r2, r6
  403bf6:	463b      	mov	r3, r7
  403bf8:	f000 fb28 	bl	40424c <__aeabi_dmul>
  403bfc:	4642      	mov	r2, r8
  403bfe:	464b      	mov	r3, r9
  403c00:	f000 f970 	bl	403ee4 <__aeabi_dsub>
  403c04:	a324      	add	r3, pc, #144	; (adr r3, 403c98 <__kernel_sin+0x160>)
  403c06:	e9d3 2300 	ldrd	r2, r3, [r3]
  403c0a:	4606      	mov	r6, r0
  403c0c:	460f      	mov	r7, r1
  403c0e:	4650      	mov	r0, sl
  403c10:	4659      	mov	r1, fp
  403c12:	f000 fb1b 	bl	40424c <__aeabi_dmul>
  403c16:	4602      	mov	r2, r0
  403c18:	460b      	mov	r3, r1
  403c1a:	4630      	mov	r0, r6
  403c1c:	4639      	mov	r1, r7
  403c1e:	f000 f963 	bl	403ee8 <__adddf3>
  403c22:	4602      	mov	r2, r0
  403c24:	460b      	mov	r3, r1
  403c26:	4628      	mov	r0, r5
  403c28:	4621      	mov	r1, r4
  403c2a:	f000 f95b 	bl	403ee4 <__aeabi_dsub>
  403c2e:	b005      	add	sp, #20
  403c30:	e8bd 8ff0 	ldmia.w	sp!, {r4, r5, r6, r7, r8, r9, sl, fp, pc}
  403c34:	e9dd 2300 	ldrd	r2, r3, [sp]
  403c38:	4630      	mov	r0, r6
  403c3a:	4639      	mov	r1, r7
  403c3c:	f000 fb06 	bl	40424c <__aeabi_dmul>
  403c40:	a315      	add	r3, pc, #84	; (adr r3, 403c98 <__kernel_sin+0x160>)
  403c42:	e9d3 2300 	ldrd	r2, r3, [r3]
  403c46:	f000 f94d 	bl	403ee4 <__aeabi_dsub>
  403c4a:	4652      	mov	r2, sl
  403c4c:	465b      	mov	r3, fp
  403c4e:	f000 fafd 	bl	40424c <__aeabi_dmul>
  403c52:	462a      	mov	r2, r5
  403c54:	4623      	mov	r3, r4
  403c56:	f000 f947 	bl	403ee8 <__adddf3>
  403c5a:	b005      	add	sp, #20
  403c5c:	e8bd 8ff0 	ldmia.w	sp!, {r4, r5, r6, r7, r8, r9, sl, fp, pc}
  403c60:	4628      	mov	r0, r5
  403c62:	4621      	mov	r1, r4
  403c64:	b005      	add	sp, #20
  403c66:	e8bd 8ff0 	ldmia.w	sp!, {r4, r5, r6, r7, r8, r9, sl, fp, pc}
  403c6a:	bf00      	nop
  403c6c:	f3af 8000 	nop.w
  403c70:	5acfd57c 	.word	0x5acfd57c
  403c74:	3de5d93a 	.word	0x3de5d93a
  403c78:	8a2b9ceb 	.word	0x8a2b9ceb
  403c7c:	3e5ae5e6 	.word	0x3e5ae5e6
  403c80:	57b1fe7d 	.word	0x57b1fe7d
  403c84:	3ec71de3 	.word	0x3ec71de3
  403c88:	19c161d5 	.word	0x19c161d5
  403c8c:	3f2a01a0 	.word	0x3f2a01a0
  403c90:	1110f8a6 	.word	0x1110f8a6
  403c94:	3f811111 	.word	0x3f811111
  403c98:	55555549 	.word	0x55555549
  403c9c:	3fc55555 	.word	0x3fc55555
  403ca0:	3fe00000 	.word	0x3fe00000

00403ca4 <fabs>:
  403ca4:	f021 4100 	bic.w	r1, r1, #2147483648	; 0x80000000
  403ca8:	4770      	bx	lr
  403caa:	bf00      	nop
  403cac:	0000      	movs	r0, r0
	...

00403cb0 <floor>:
  403cb0:	e92d 47f0 	stmdb	sp!, {r4, r5, r6, r7, r8, r9, sl, lr}
  403cb4:	f3c1 580a 	ubfx	r8, r1, #20, #11
  403cb8:	f2a8 36ff 	subw	r6, r8, #1023	; 0x3ff
  403cbc:	2e13      	cmp	r6, #19
  403cbe:	460b      	mov	r3, r1
  403cc0:	460d      	mov	r5, r1
  403cc2:	4604      	mov	r4, r0
  403cc4:	4602      	mov	r2, r0
  403cc6:	4689      	mov	r9, r1
  403cc8:	4607      	mov	r7, r0
  403cca:	dc1d      	bgt.n	403d08 <floor+0x58>
  403ccc:	2e00      	cmp	r6, #0
  403cce:	db40      	blt.n	403d52 <floor+0xa2>
  403cd0:	f8df 80f0 	ldr.w	r8, [pc, #240]	; 403dc4 <floor+0x114>
  403cd4:	fa48 f806 	asr.w	r8, r8, r6
  403cd8:	ea08 0e01 	and.w	lr, r8, r1
  403cdc:	ea5e 0202 	orrs.w	r2, lr, r2
  403ce0:	d017      	beq.n	403d12 <floor+0x62>
  403ce2:	a335      	add	r3, pc, #212	; (adr r3, 403db8 <floor+0x108>)
  403ce4:	e9d3 2300 	ldrd	r2, r3, [r3]
  403ce8:	f000 f8fe 	bl	403ee8 <__adddf3>
  403cec:	2200      	movs	r2, #0
  403cee:	2300      	movs	r3, #0
  403cf0:	f000 fd3c 	bl	40476c <__aeabi_dcmpgt>
  403cf4:	b120      	cbz	r0, 403d00 <floor+0x50>
  403cf6:	2d00      	cmp	r5, #0
  403cf8:	db40      	blt.n	403d7c <floor+0xcc>
  403cfa:	ea29 0508 	bic.w	r5, r9, r8
  403cfe:	2700      	movs	r7, #0
  403d00:	4638      	mov	r0, r7
  403d02:	4629      	mov	r1, r5
  403d04:	e8bd 87f0 	ldmia.w	sp!, {r4, r5, r6, r7, r8, r9, sl, pc}
  403d08:	2e33      	cmp	r6, #51	; 0x33
  403d0a:	dd06      	ble.n	403d1a <floor+0x6a>
  403d0c:	f5b6 6f80 	cmp.w	r6, #1024	; 0x400
  403d10:	d02f      	beq.n	403d72 <floor+0xc2>
  403d12:	4620      	mov	r0, r4
  403d14:	4619      	mov	r1, r3
  403d16:	e8bd 87f0 	ldmia.w	sp!, {r4, r5, r6, r7, r8, r9, sl, pc}
  403d1a:	f2a8 4213 	subw	r2, r8, #1043	; 0x413
  403d1e:	f04f 3aff 	mov.w	sl, #4294967295
  403d22:	fa2a fa02 	lsr.w	sl, sl, r2
  403d26:	ea1a 0f00 	tst.w	sl, r0
  403d2a:	d0f2      	beq.n	403d12 <floor+0x62>
  403d2c:	a322      	add	r3, pc, #136	; (adr r3, 403db8 <floor+0x108>)
  403d2e:	e9d3 2300 	ldrd	r2, r3, [r3]
  403d32:	f000 f8d9 	bl	403ee8 <__adddf3>
  403d36:	2200      	movs	r2, #0
  403d38:	2300      	movs	r3, #0
  403d3a:	f000 fd17 	bl	40476c <__aeabi_dcmpgt>
  403d3e:	2800      	cmp	r0, #0
  403d40:	d0de      	beq.n	403d00 <floor+0x50>
  403d42:	2d00      	cmp	r5, #0
  403d44:	db1f      	blt.n	403d86 <floor+0xd6>
  403d46:	464d      	mov	r5, r9
  403d48:	ea27 070a 	bic.w	r7, r7, sl
  403d4c:	4638      	mov	r0, r7
  403d4e:	4629      	mov	r1, r5
  403d50:	e7d8      	b.n	403d04 <floor+0x54>
  403d52:	a319      	add	r3, pc, #100	; (adr r3, 403db8 <floor+0x108>)
  403d54:	e9d3 2300 	ldrd	r2, r3, [r3]
  403d58:	f000 f8c6 	bl	403ee8 <__adddf3>
  403d5c:	2200      	movs	r2, #0
  403d5e:	2300      	movs	r3, #0
  403d60:	f000 fd04 	bl	40476c <__aeabi_dcmpgt>
  403d64:	2800      	cmp	r0, #0
  403d66:	d0cb      	beq.n	403d00 <floor+0x50>
  403d68:	2d00      	cmp	r5, #0
  403d6a:	db1a      	blt.n	403da2 <floor+0xf2>
  403d6c:	2700      	movs	r7, #0
  403d6e:	463d      	mov	r5, r7
  403d70:	e7c6      	b.n	403d00 <floor+0x50>
  403d72:	4602      	mov	r2, r0
  403d74:	460b      	mov	r3, r1
  403d76:	f000 f8b7 	bl	403ee8 <__adddf3>
  403d7a:	e7cc      	b.n	403d16 <floor+0x66>
  403d7c:	f44f 1380 	mov.w	r3, #1048576	; 0x100000
  403d80:	4133      	asrs	r3, r6
  403d82:	4499      	add	r9, r3
  403d84:	e7b9      	b.n	403cfa <floor+0x4a>
  403d86:	2e14      	cmp	r6, #20
  403d88:	d008      	beq.n	403d9c <floor+0xec>
  403d8a:	f5c8 6886 	rsb	r8, r8, #1072	; 0x430
  403d8e:	f108 0803 	add.w	r8, r8, #3
  403d92:	2301      	movs	r3, #1
  403d94:	fa03 f308 	lsl.w	r3, r3, r8
  403d98:	191f      	adds	r7, r3, r4
  403d9a:	d3d4      	bcc.n	403d46 <floor+0x96>
  403d9c:	f109 0901 	add.w	r9, r9, #1
  403da0:	e7d1      	b.n	403d46 <floor+0x96>
  403da2:	f025 4200 	bic.w	r2, r5, #2147483648	; 0x80000000
  403da6:	4b06      	ldr	r3, [pc, #24]	; (403dc0 <floor+0x110>)
  403da8:	4322      	orrs	r2, r4
  403daa:	bf18      	it	ne
  403dac:	461d      	movne	r5, r3
  403dae:	2700      	movs	r7, #0
  403db0:	e7a6      	b.n	403d00 <floor+0x50>
  403db2:	bf00      	nop
  403db4:	f3af 8000 	nop.w
  403db8:	8800759c 	.word	0x8800759c
  403dbc:	7e37e43c 	.word	0x7e37e43c
  403dc0:	bff00000 	.word	0xbff00000
  403dc4:	000fffff 	.word	0x000fffff

00403dc8 <scalbn>:
  403dc8:	b5f8      	push	{r3, r4, r5, r6, r7, lr}
  403dca:	f3c1 560a 	ubfx	r6, r1, #20, #11
  403dce:	4604      	mov	r4, r0
  403dd0:	460d      	mov	r5, r1
  403dd2:	460b      	mov	r3, r1
  403dd4:	4617      	mov	r7, r2
  403dd6:	bb16      	cbnz	r6, 403e1e <scalbn+0x56>
  403dd8:	f021 4300 	bic.w	r3, r1, #2147483648	; 0x80000000
  403ddc:	4303      	orrs	r3, r0
  403dde:	d032      	beq.n	403e46 <scalbn+0x7e>
  403de0:	2200      	movs	r2, #0
  403de2:	4b37      	ldr	r3, [pc, #220]	; (403ec0 <scalbn+0xf8>)
  403de4:	f000 fa32 	bl	40424c <__aeabi_dmul>
  403de8:	4a36      	ldr	r2, [pc, #216]	; (403ec4 <scalbn+0xfc>)
  403dea:	4297      	cmp	r7, r2
  403dec:	4604      	mov	r4, r0
  403dee:	460d      	mov	r5, r1
  403df0:	460b      	mov	r3, r1
  403df2:	db37      	blt.n	403e64 <scalbn+0x9c>
  403df4:	f3c1 560a 	ubfx	r6, r1, #20, #11
  403df8:	3e36      	subs	r6, #54	; 0x36
  403dfa:	443e      	add	r6, r7
  403dfc:	f240 72fe 	movw	r2, #2046	; 0x7fe
  403e00:	4296      	cmp	r6, r2
  403e02:	dd15      	ble.n	403e30 <scalbn+0x68>
  403e04:	4622      	mov	r2, r4
  403e06:	462b      	mov	r3, r5
  403e08:	a129      	add	r1, pc, #164	; (adr r1, 403eb0 <scalbn+0xe8>)
  403e0a:	e9d1 0100 	ldrd	r0, r1, [r1]
  403e0e:	f000 f85d 	bl	403ecc <copysign>
  403e12:	a327      	add	r3, pc, #156	; (adr r3, 403eb0 <scalbn+0xe8>)
  403e14:	e9d3 2300 	ldrd	r2, r3, [r3]
  403e18:	f000 fa18 	bl	40424c <__aeabi_dmul>
  403e1c:	bdf8      	pop	{r3, r4, r5, r6, r7, pc}
  403e1e:	f240 72ff 	movw	r2, #2047	; 0x7ff
  403e22:	4296      	cmp	r6, r2
  403e24:	d024      	beq.n	403e70 <scalbn+0xa8>
  403e26:	443e      	add	r6, r7
  403e28:	f240 72fe 	movw	r2, #2046	; 0x7fe
  403e2c:	4296      	cmp	r6, r2
  403e2e:	dce9      	bgt.n	403e04 <scalbn+0x3c>
  403e30:	2e00      	cmp	r6, #0
  403e32:	dd09      	ble.n	403e48 <scalbn+0x80>
  403e34:	f023 43ff 	bic.w	r3, r3, #2139095040	; 0x7f800000
  403e38:	f423 03e0 	bic.w	r3, r3, #7340032	; 0x700000
  403e3c:	ea43 5506 	orr.w	r5, r3, r6, lsl #20
  403e40:	4620      	mov	r0, r4
  403e42:	4629      	mov	r1, r5
  403e44:	bdf8      	pop	{r3, r4, r5, r6, r7, pc}
  403e46:	bdf8      	pop	{r3, r4, r5, r6, r7, pc}
  403e48:	f116 0f35 	cmn.w	r6, #53	; 0x35
  403e4c:	da15      	bge.n	403e7a <scalbn+0xb2>
  403e4e:	f24c 3350 	movw	r3, #50000	; 0xc350
  403e52:	429f      	cmp	r7, r3
  403e54:	4622      	mov	r2, r4
  403e56:	462b      	mov	r3, r5
  403e58:	dc1d      	bgt.n	403e96 <scalbn+0xce>
  403e5a:	a117      	add	r1, pc, #92	; (adr r1, 403eb8 <scalbn+0xf0>)
  403e5c:	e9d1 0100 	ldrd	r0, r1, [r1]
  403e60:	f000 f834 	bl	403ecc <copysign>
  403e64:	a314      	add	r3, pc, #80	; (adr r3, 403eb8 <scalbn+0xf0>)
  403e66:	e9d3 2300 	ldrd	r2, r3, [r3]
  403e6a:	f000 f9ef 	bl	40424c <__aeabi_dmul>
  403e6e:	bdf8      	pop	{r3, r4, r5, r6, r7, pc}
  403e70:	4602      	mov	r2, r0
  403e72:	460b      	mov	r3, r1
  403e74:	f000 f838 	bl	403ee8 <__adddf3>
  403e78:	bdf8      	pop	{r3, r4, r5, r6, r7, pc}
  403e7a:	f023 43ff 	bic.w	r3, r3, #2139095040	; 0x7f800000
  403e7e:	f423 03e0 	bic.w	r3, r3, #7340032	; 0x700000
  403e82:	3636      	adds	r6, #54	; 0x36
  403e84:	ea43 5506 	orr.w	r5, r3, r6, lsl #20
  403e88:	4620      	mov	r0, r4
  403e8a:	4629      	mov	r1, r5
  403e8c:	2200      	movs	r2, #0
  403e8e:	4b0e      	ldr	r3, [pc, #56]	; (403ec8 <scalbn+0x100>)
  403e90:	f000 f9dc 	bl	40424c <__aeabi_dmul>
  403e94:	bdf8      	pop	{r3, r4, r5, r6, r7, pc}
  403e96:	a106      	add	r1, pc, #24	; (adr r1, 403eb0 <scalbn+0xe8>)
  403e98:	e9d1 0100 	ldrd	r0, r1, [r1]
  403e9c:	f000 f816 	bl	403ecc <copysign>
  403ea0:	a303      	add	r3, pc, #12	; (adr r3, 403eb0 <scalbn+0xe8>)
  403ea2:	e9d3 2300 	ldrd	r2, r3, [r3]
  403ea6:	f000 f9d1 	bl	40424c <__aeabi_dmul>
  403eaa:	bdf8      	pop	{r3, r4, r5, r6, r7, pc}
  403eac:	f3af 8000 	nop.w
  403eb0:	8800759c 	.word	0x8800759c
  403eb4:	7e37e43c 	.word	0x7e37e43c
  403eb8:	c2f8f359 	.word	0xc2f8f359
  403ebc:	01a56e1f 	.word	0x01a56e1f
  403ec0:	43500000 	.word	0x43500000
  403ec4:	ffff3cb0 	.word	0xffff3cb0
  403ec8:	3c900000 	.word	0x3c900000

00403ecc <copysign>:
  403ecc:	f003 4300 	and.w	r3, r3, #2147483648	; 0x80000000
  403ed0:	f021 4200 	bic.w	r2, r1, #2147483648	; 0x80000000
  403ed4:	ea43 0102 	orr.w	r1, r3, r2
  403ed8:	4770      	bx	lr
  403eda:	bf00      	nop

00403edc <__aeabi_drsub>:
  403edc:	f081 4100 	eor.w	r1, r1, #2147483648	; 0x80000000
  403ee0:	e002      	b.n	403ee8 <__adddf3>
  403ee2:	bf00      	nop

00403ee4 <__aeabi_dsub>:
  403ee4:	f083 4300 	eor.w	r3, r3, #2147483648	; 0x80000000

00403ee8 <__adddf3>:
  403ee8:	b530      	push	{r4, r5, lr}
  403eea:	ea4f 0441 	mov.w	r4, r1, lsl #1
  403eee:	ea4f 0543 	mov.w	r5, r3, lsl #1
  403ef2:	ea94 0f05 	teq	r4, r5
  403ef6:	bf08      	it	eq
  403ef8:	ea90 0f02 	teqeq	r0, r2
  403efc:	bf1f      	itttt	ne
  403efe:	ea54 0c00 	orrsne.w	ip, r4, r0
  403f02:	ea55 0c02 	orrsne.w	ip, r5, r2
  403f06:	ea7f 5c64 	mvnsne.w	ip, r4, asr #21
  403f0a:	ea7f 5c65 	mvnsne.w	ip, r5, asr #21
  403f0e:	f000 80e2 	beq.w	4040d6 <__adddf3+0x1ee>
  403f12:	ea4f 5454 	mov.w	r4, r4, lsr #21
  403f16:	ebd4 5555 	rsbs	r5, r4, r5, lsr #21
  403f1a:	bfb8      	it	lt
  403f1c:	426d      	neglt	r5, r5
  403f1e:	dd0c      	ble.n	403f3a <__adddf3+0x52>
  403f20:	442c      	add	r4, r5
  403f22:	ea80 0202 	eor.w	r2, r0, r2
  403f26:	ea81 0303 	eor.w	r3, r1, r3
  403f2a:	ea82 0000 	eor.w	r0, r2, r0
  403f2e:	ea83 0101 	eor.w	r1, r3, r1
  403f32:	ea80 0202 	eor.w	r2, r0, r2
  403f36:	ea81 0303 	eor.w	r3, r1, r3
  403f3a:	2d36      	cmp	r5, #54	; 0x36
  403f3c:	bf88      	it	hi
  403f3e:	bd30      	pophi	{r4, r5, pc}
  403f40:	f011 4f00 	tst.w	r1, #2147483648	; 0x80000000
  403f44:	ea4f 3101 	mov.w	r1, r1, lsl #12
  403f48:	f44f 1c80 	mov.w	ip, #1048576	; 0x100000
  403f4c:	ea4c 3111 	orr.w	r1, ip, r1, lsr #12
  403f50:	d002      	beq.n	403f58 <__adddf3+0x70>
  403f52:	4240      	negs	r0, r0
  403f54:	eb61 0141 	sbc.w	r1, r1, r1, lsl #1
  403f58:	f013 4f00 	tst.w	r3, #2147483648	; 0x80000000
  403f5c:	ea4f 3303 	mov.w	r3, r3, lsl #12
  403f60:	ea4c 3313 	orr.w	r3, ip, r3, lsr #12
  403f64:	d002      	beq.n	403f6c <__adddf3+0x84>
  403f66:	4252      	negs	r2, r2
  403f68:	eb63 0343 	sbc.w	r3, r3, r3, lsl #1
  403f6c:	ea94 0f05 	teq	r4, r5
  403f70:	f000 80a7 	beq.w	4040c2 <__adddf3+0x1da>
  403f74:	f1a4 0401 	sub.w	r4, r4, #1
  403f78:	f1d5 0e20 	rsbs	lr, r5, #32
  403f7c:	db0d      	blt.n	403f9a <__adddf3+0xb2>
  403f7e:	fa02 fc0e 	lsl.w	ip, r2, lr
  403f82:	fa22 f205 	lsr.w	r2, r2, r5
  403f86:	1880      	adds	r0, r0, r2
  403f88:	f141 0100 	adc.w	r1, r1, #0
  403f8c:	fa03 f20e 	lsl.w	r2, r3, lr
  403f90:	1880      	adds	r0, r0, r2
  403f92:	fa43 f305 	asr.w	r3, r3, r5
  403f96:	4159      	adcs	r1, r3
  403f98:	e00e      	b.n	403fb8 <__adddf3+0xd0>
  403f9a:	f1a5 0520 	sub.w	r5, r5, #32
  403f9e:	f10e 0e20 	add.w	lr, lr, #32
  403fa2:	2a01      	cmp	r2, #1
  403fa4:	fa03 fc0e 	lsl.w	ip, r3, lr
  403fa8:	bf28      	it	cs
  403faa:	f04c 0c02 	orrcs.w	ip, ip, #2
  403fae:	fa43 f305 	asr.w	r3, r3, r5
  403fb2:	18c0      	adds	r0, r0, r3
  403fb4:	eb51 71e3 	adcs.w	r1, r1, r3, asr #31
  403fb8:	f001 4500 	and.w	r5, r1, #2147483648	; 0x80000000
  403fbc:	d507      	bpl.n	403fce <__adddf3+0xe6>
  403fbe:	f04f 0e00 	mov.w	lr, #0
  403fc2:	f1dc 0c00 	rsbs	ip, ip, #0
  403fc6:	eb7e 0000 	sbcs.w	r0, lr, r0
  403fca:	eb6e 0101 	sbc.w	r1, lr, r1
  403fce:	f5b1 1f80 	cmp.w	r1, #1048576	; 0x100000
  403fd2:	d31b      	bcc.n	40400c <__adddf3+0x124>
  403fd4:	f5b1 1f00 	cmp.w	r1, #2097152	; 0x200000
  403fd8:	d30c      	bcc.n	403ff4 <__adddf3+0x10c>
  403fda:	0849      	lsrs	r1, r1, #1
  403fdc:	ea5f 0030 	movs.w	r0, r0, rrx
  403fe0:	ea4f 0c3c 	mov.w	ip, ip, rrx
  403fe4:	f104 0401 	add.w	r4, r4, #1
  403fe8:	ea4f 5244 	mov.w	r2, r4, lsl #21
  403fec:	f512 0f80 	cmn.w	r2, #4194304	; 0x400000
  403ff0:	f080 809a 	bcs.w	404128 <__adddf3+0x240>
  403ff4:	f1bc 4f00 	cmp.w	ip, #2147483648	; 0x80000000
  403ff8:	bf08      	it	eq
  403ffa:	ea5f 0c50 	movseq.w	ip, r0, lsr #1
  403ffe:	f150 0000 	adcs.w	r0, r0, #0
  404002:	eb41 5104 	adc.w	r1, r1, r4, lsl #20
  404006:	ea41 0105 	orr.w	r1, r1, r5
  40400a:	bd30      	pop	{r4, r5, pc}
  40400c:	ea5f 0c4c 	movs.w	ip, ip, lsl #1
  404010:	4140      	adcs	r0, r0
  404012:	eb41 0101 	adc.w	r1, r1, r1
  404016:	f411 1f80 	tst.w	r1, #1048576	; 0x100000
  40401a:	f1a4 0401 	sub.w	r4, r4, #1
  40401e:	d1e9      	bne.n	403ff4 <__adddf3+0x10c>
  404020:	f091 0f00 	teq	r1, #0
  404024:	bf04      	itt	eq
  404026:	4601      	moveq	r1, r0
  404028:	2000      	moveq	r0, #0
  40402a:	fab1 f381 	clz	r3, r1
  40402e:	bf08      	it	eq
  404030:	3320      	addeq	r3, #32
  404032:	f1a3 030b 	sub.w	r3, r3, #11
  404036:	f1b3 0220 	subs.w	r2, r3, #32
  40403a:	da0c      	bge.n	404056 <__adddf3+0x16e>
  40403c:	320c      	adds	r2, #12
  40403e:	dd08      	ble.n	404052 <__adddf3+0x16a>
  404040:	f102 0c14 	add.w	ip, r2, #20
  404044:	f1c2 020c 	rsb	r2, r2, #12
  404048:	fa01 f00c 	lsl.w	r0, r1, ip
  40404c:	fa21 f102 	lsr.w	r1, r1, r2
  404050:	e00c      	b.n	40406c <__adddf3+0x184>
  404052:	f102 0214 	add.w	r2, r2, #20
  404056:	bfd8      	it	le
  404058:	f1c2 0c20 	rsble	ip, r2, #32
  40405c:	fa01 f102 	lsl.w	r1, r1, r2
  404060:	fa20 fc0c 	lsr.w	ip, r0, ip
  404064:	bfdc      	itt	le
  404066:	ea41 010c 	orrle.w	r1, r1, ip
  40406a:	4090      	lslle	r0, r2
  40406c:	1ae4      	subs	r4, r4, r3
  40406e:	bfa2      	ittt	ge
  404070:	eb01 5104 	addge.w	r1, r1, r4, lsl #20
  404074:	4329      	orrge	r1, r5
  404076:	bd30      	popge	{r4, r5, pc}
  404078:	ea6f 0404 	mvn.w	r4, r4
  40407c:	3c1f      	subs	r4, #31
  40407e:	da1c      	bge.n	4040ba <__adddf3+0x1d2>
  404080:	340c      	adds	r4, #12
  404082:	dc0e      	bgt.n	4040a2 <__adddf3+0x1ba>
  404084:	f104 0414 	add.w	r4, r4, #20
  404088:	f1c4 0220 	rsb	r2, r4, #32
  40408c:	fa20 f004 	lsr.w	r0, r0, r4
  404090:	fa01 f302 	lsl.w	r3, r1, r2
  404094:	ea40 0003 	orr.w	r0, r0, r3
  404098:	fa21 f304 	lsr.w	r3, r1, r4
  40409c:	ea45 0103 	orr.w	r1, r5, r3
  4040a0:	bd30      	pop	{r4, r5, pc}
  4040a2:	f1c4 040c 	rsb	r4, r4, #12
  4040a6:	f1c4 0220 	rsb	r2, r4, #32
  4040aa:	fa20 f002 	lsr.w	r0, r0, r2
  4040ae:	fa01 f304 	lsl.w	r3, r1, r4
  4040b2:	ea40 0003 	orr.w	r0, r0, r3
  4040b6:	4629      	mov	r1, r5
  4040b8:	bd30      	pop	{r4, r5, pc}
  4040ba:	fa21 f004 	lsr.w	r0, r1, r4
  4040be:	4629      	mov	r1, r5
  4040c0:	bd30      	pop	{r4, r5, pc}
  4040c2:	f094 0f00 	teq	r4, #0
  4040c6:	f483 1380 	eor.w	r3, r3, #1048576	; 0x100000
  4040ca:	bf06      	itte	eq
  4040cc:	f481 1180 	eoreq.w	r1, r1, #1048576	; 0x100000
  4040d0:	3401      	addeq	r4, #1
  4040d2:	3d01      	subne	r5, #1
  4040d4:	e74e      	b.n	403f74 <__adddf3+0x8c>
  4040d6:	ea7f 5c64 	mvns.w	ip, r4, asr #21
  4040da:	bf18      	it	ne
  4040dc:	ea7f 5c65 	mvnsne.w	ip, r5, asr #21
  4040e0:	d029      	beq.n	404136 <__adddf3+0x24e>
  4040e2:	ea94 0f05 	teq	r4, r5
  4040e6:	bf08      	it	eq
  4040e8:	ea90 0f02 	teqeq	r0, r2
  4040ec:	d005      	beq.n	4040fa <__adddf3+0x212>
  4040ee:	ea54 0c00 	orrs.w	ip, r4, r0
  4040f2:	bf04      	itt	eq
  4040f4:	4619      	moveq	r1, r3
  4040f6:	4610      	moveq	r0, r2
  4040f8:	bd30      	pop	{r4, r5, pc}
  4040fa:	ea91 0f03 	teq	r1, r3
  4040fe:	bf1e      	ittt	ne
  404100:	2100      	movne	r1, #0
  404102:	2000      	movne	r0, #0
  404104:	bd30      	popne	{r4, r5, pc}
  404106:	ea5f 5c54 	movs.w	ip, r4, lsr #21
  40410a:	d105      	bne.n	404118 <__adddf3+0x230>
  40410c:	0040      	lsls	r0, r0, #1
  40410e:	4149      	adcs	r1, r1
  404110:	bf28      	it	cs
  404112:	f041 4100 	orrcs.w	r1, r1, #2147483648	; 0x80000000
  404116:	bd30      	pop	{r4, r5, pc}
  404118:	f514 0480 	adds.w	r4, r4, #4194304	; 0x400000
  40411c:	bf3c      	itt	cc
  40411e:	f501 1180 	addcc.w	r1, r1, #1048576	; 0x100000
  404122:	bd30      	popcc	{r4, r5, pc}
  404124:	f001 4500 	and.w	r5, r1, #2147483648	; 0x80000000
  404128:	f045 41fe 	orr.w	r1, r5, #2130706432	; 0x7f000000
  40412c:	f441 0170 	orr.w	r1, r1, #15728640	; 0xf00000
  404130:	f04f 0000 	mov.w	r0, #0
  404134:	bd30      	pop	{r4, r5, pc}
  404136:	ea7f 5c64 	mvns.w	ip, r4, asr #21
  40413a:	bf1a      	itte	ne
  40413c:	4619      	movne	r1, r3
  40413e:	4610      	movne	r0, r2
  404140:	ea7f 5c65 	mvnseq.w	ip, r5, asr #21
  404144:	bf1c      	itt	ne
  404146:	460b      	movne	r3, r1
  404148:	4602      	movne	r2, r0
  40414a:	ea50 3401 	orrs.w	r4, r0, r1, lsl #12
  40414e:	bf06      	itte	eq
  404150:	ea52 3503 	orrseq.w	r5, r2, r3, lsl #12
  404154:	ea91 0f03 	teqeq	r1, r3
  404158:	f441 2100 	orrne.w	r1, r1, #524288	; 0x80000
  40415c:	bd30      	pop	{r4, r5, pc}
  40415e:	bf00      	nop

00404160 <__aeabi_ui2d>:
  404160:	f090 0f00 	teq	r0, #0
  404164:	bf04      	itt	eq
  404166:	2100      	moveq	r1, #0
  404168:	4770      	bxeq	lr
  40416a:	b530      	push	{r4, r5, lr}
  40416c:	f44f 6480 	mov.w	r4, #1024	; 0x400
  404170:	f104 0432 	add.w	r4, r4, #50	; 0x32
  404174:	f04f 0500 	mov.w	r5, #0
  404178:	f04f 0100 	mov.w	r1, #0
  40417c:	e750      	b.n	404020 <__adddf3+0x138>
  40417e:	bf00      	nop

00404180 <__aeabi_i2d>:
  404180:	f090 0f00 	teq	r0, #0
  404184:	bf04      	itt	eq
  404186:	2100      	moveq	r1, #0
  404188:	4770      	bxeq	lr
  40418a:	b530      	push	{r4, r5, lr}
  40418c:	f44f 6480 	mov.w	r4, #1024	; 0x400
  404190:	f104 0432 	add.w	r4, r4, #50	; 0x32
  404194:	f010 4500 	ands.w	r5, r0, #2147483648	; 0x80000000
  404198:	bf48      	it	mi
  40419a:	4240      	negmi	r0, r0
  40419c:	f04f 0100 	mov.w	r1, #0
  4041a0:	e73e      	b.n	404020 <__adddf3+0x138>
  4041a2:	bf00      	nop

004041a4 <__aeabi_f2d>:
  4041a4:	0042      	lsls	r2, r0, #1
  4041a6:	ea4f 01e2 	mov.w	r1, r2, asr #3
  4041aa:	ea4f 0131 	mov.w	r1, r1, rrx
  4041ae:	ea4f 7002 	mov.w	r0, r2, lsl #28
  4041b2:	bf1f      	itttt	ne
  4041b4:	f012 437f 	andsne.w	r3, r2, #4278190080	; 0xff000000
  4041b8:	f093 4f7f 	teqne	r3, #4278190080	; 0xff000000
  4041bc:	f081 5160 	eorne.w	r1, r1, #939524096	; 0x38000000
  4041c0:	4770      	bxne	lr
  4041c2:	f092 0f00 	teq	r2, #0
  4041c6:	bf14      	ite	ne
  4041c8:	f093 4f7f 	teqne	r3, #4278190080	; 0xff000000
  4041cc:	4770      	bxeq	lr
  4041ce:	b530      	push	{r4, r5, lr}
  4041d0:	f44f 7460 	mov.w	r4, #896	; 0x380
  4041d4:	f001 4500 	and.w	r5, r1, #2147483648	; 0x80000000
  4041d8:	f021 4100 	bic.w	r1, r1, #2147483648	; 0x80000000
  4041dc:	e720      	b.n	404020 <__adddf3+0x138>
  4041de:	bf00      	nop

004041e0 <__aeabi_ul2d>:
  4041e0:	ea50 0201 	orrs.w	r2, r0, r1
  4041e4:	bf08      	it	eq
  4041e6:	4770      	bxeq	lr
  4041e8:	b530      	push	{r4, r5, lr}
  4041ea:	f04f 0500 	mov.w	r5, #0
  4041ee:	e00a      	b.n	404206 <__aeabi_l2d+0x16>

004041f0 <__aeabi_l2d>:
  4041f0:	ea50 0201 	orrs.w	r2, r0, r1
  4041f4:	bf08      	it	eq
  4041f6:	4770      	bxeq	lr
  4041f8:	b530      	push	{r4, r5, lr}
  4041fa:	f011 4500 	ands.w	r5, r1, #2147483648	; 0x80000000
  4041fe:	d502      	bpl.n	404206 <__aeabi_l2d+0x16>
  404200:	4240      	negs	r0, r0
  404202:	eb61 0141 	sbc.w	r1, r1, r1, lsl #1
  404206:	f44f 6480 	mov.w	r4, #1024	; 0x400
  40420a:	f104 0432 	add.w	r4, r4, #50	; 0x32
  40420e:	ea5f 5c91 	movs.w	ip, r1, lsr #22
  404212:	f43f aedc 	beq.w	403fce <__adddf3+0xe6>
  404216:	f04f 0203 	mov.w	r2, #3
  40421a:	ea5f 0cdc 	movs.w	ip, ip, lsr #3
  40421e:	bf18      	it	ne
  404220:	3203      	addne	r2, #3
  404222:	ea5f 0cdc 	movs.w	ip, ip, lsr #3
  404226:	bf18      	it	ne
  404228:	3203      	addne	r2, #3
  40422a:	eb02 02dc 	add.w	r2, r2, ip, lsr #3
  40422e:	f1c2 0320 	rsb	r3, r2, #32
  404232:	fa00 fc03 	lsl.w	ip, r0, r3
  404236:	fa20 f002 	lsr.w	r0, r0, r2
  40423a:	fa01 fe03 	lsl.w	lr, r1, r3
  40423e:	ea40 000e 	orr.w	r0, r0, lr
  404242:	fa21 f102 	lsr.w	r1, r1, r2
  404246:	4414      	add	r4, r2
  404248:	e6c1      	b.n	403fce <__adddf3+0xe6>
  40424a:	bf00      	nop

0040424c <__aeabi_dmul>:
  40424c:	b570      	push	{r4, r5, r6, lr}
  40424e:	f04f 0cff 	mov.w	ip, #255	; 0xff
  404252:	f44c 6ce0 	orr.w	ip, ip, #1792	; 0x700
  404256:	ea1c 5411 	ands.w	r4, ip, r1, lsr #20
  40425a:	bf1d      	ittte	ne
  40425c:	ea1c 5513 	andsne.w	r5, ip, r3, lsr #20
  404260:	ea94 0f0c 	teqne	r4, ip
  404264:	ea95 0f0c 	teqne	r5, ip
  404268:	f000 f8de 	bleq	404428 <__aeabi_dmul+0x1dc>
  40426c:	442c      	add	r4, r5
  40426e:	ea81 0603 	eor.w	r6, r1, r3
  404272:	ea21 514c 	bic.w	r1, r1, ip, lsl #21
  404276:	ea23 534c 	bic.w	r3, r3, ip, lsl #21
  40427a:	ea50 3501 	orrs.w	r5, r0, r1, lsl #12
  40427e:	bf18      	it	ne
  404280:	ea52 3503 	orrsne.w	r5, r2, r3, lsl #12
  404284:	f441 1180 	orr.w	r1, r1, #1048576	; 0x100000
  404288:	f443 1380 	orr.w	r3, r3, #1048576	; 0x100000
  40428c:	d038      	beq.n	404300 <__aeabi_dmul+0xb4>
  40428e:	fba0 ce02 	umull	ip, lr, r0, r2
  404292:	f04f 0500 	mov.w	r5, #0
  404296:	fbe1 e502 	umlal	lr, r5, r1, r2
  40429a:	f006 4200 	and.w	r2, r6, #2147483648	; 0x80000000
  40429e:	fbe0 e503 	umlal	lr, r5, r0, r3
  4042a2:	f04f 0600 	mov.w	r6, #0
  4042a6:	fbe1 5603 	umlal	r5, r6, r1, r3
  4042aa:	f09c 0f00 	teq	ip, #0
  4042ae:	bf18      	it	ne
  4042b0:	f04e 0e01 	orrne.w	lr, lr, #1
  4042b4:	f1a4 04ff 	sub.w	r4, r4, #255	; 0xff
  4042b8:	f5b6 7f00 	cmp.w	r6, #512	; 0x200
  4042bc:	f564 7440 	sbc.w	r4, r4, #768	; 0x300
  4042c0:	d204      	bcs.n	4042cc <__aeabi_dmul+0x80>
  4042c2:	ea5f 0e4e 	movs.w	lr, lr, lsl #1
  4042c6:	416d      	adcs	r5, r5
  4042c8:	eb46 0606 	adc.w	r6, r6, r6
  4042cc:	ea42 21c6 	orr.w	r1, r2, r6, lsl #11
  4042d0:	ea41 5155 	orr.w	r1, r1, r5, lsr #21
  4042d4:	ea4f 20c5 	mov.w	r0, r5, lsl #11
  4042d8:	ea40 505e 	orr.w	r0, r0, lr, lsr #21
  4042dc:	ea4f 2ece 	mov.w	lr, lr, lsl #11
  4042e0:	f1b4 0cfd 	subs.w	ip, r4, #253	; 0xfd
  4042e4:	bf88      	it	hi
  4042e6:	f5bc 6fe0 	cmphi.w	ip, #1792	; 0x700
  4042ea:	d81e      	bhi.n	40432a <__aeabi_dmul+0xde>
  4042ec:	f1be 4f00 	cmp.w	lr, #2147483648	; 0x80000000
  4042f0:	bf08      	it	eq
  4042f2:	ea5f 0e50 	movseq.w	lr, r0, lsr #1
  4042f6:	f150 0000 	adcs.w	r0, r0, #0
  4042fa:	eb41 5104 	adc.w	r1, r1, r4, lsl #20
  4042fe:	bd70      	pop	{r4, r5, r6, pc}
  404300:	f006 4600 	and.w	r6, r6, #2147483648	; 0x80000000
  404304:	ea46 0101 	orr.w	r1, r6, r1
  404308:	ea40 0002 	orr.w	r0, r0, r2
  40430c:	ea81 0103 	eor.w	r1, r1, r3
  404310:	ebb4 045c 	subs.w	r4, r4, ip, lsr #1
  404314:	bfc2      	ittt	gt
  404316:	ebd4 050c 	rsbsgt	r5, r4, ip
  40431a:	ea41 5104 	orrgt.w	r1, r1, r4, lsl #20
  40431e:	bd70      	popgt	{r4, r5, r6, pc}
  404320:	f441 1180 	orr.w	r1, r1, #1048576	; 0x100000
  404324:	f04f 0e00 	mov.w	lr, #0
  404328:	3c01      	subs	r4, #1
  40432a:	f300 80ab 	bgt.w	404484 <__aeabi_dmul+0x238>
  40432e:	f114 0f36 	cmn.w	r4, #54	; 0x36
  404332:	bfde      	ittt	le
  404334:	2000      	movle	r0, #0
  404336:	f001 4100 	andle.w	r1, r1, #2147483648	; 0x80000000
  40433a:	bd70      	pople	{r4, r5, r6, pc}
  40433c:	f1c4 0400 	rsb	r4, r4, #0
  404340:	3c20      	subs	r4, #32
  404342:	da35      	bge.n	4043b0 <__aeabi_dmul+0x164>
  404344:	340c      	adds	r4, #12
  404346:	dc1b      	bgt.n	404380 <__aeabi_dmul+0x134>
  404348:	f104 0414 	add.w	r4, r4, #20
  40434c:	f1c4 0520 	rsb	r5, r4, #32
  404350:	fa00 f305 	lsl.w	r3, r0, r5
  404354:	fa20 f004 	lsr.w	r0, r0, r4
  404358:	fa01 f205 	lsl.w	r2, r1, r5
  40435c:	ea40 0002 	orr.w	r0, r0, r2
  404360:	f001 4200 	and.w	r2, r1, #2147483648	; 0x80000000
  404364:	f021 4100 	bic.w	r1, r1, #2147483648	; 0x80000000
  404368:	eb10 70d3 	adds.w	r0, r0, r3, lsr #31
  40436c:	fa21 f604 	lsr.w	r6, r1, r4
  404370:	eb42 0106 	adc.w	r1, r2, r6
  404374:	ea5e 0e43 	orrs.w	lr, lr, r3, lsl #1
  404378:	bf08      	it	eq
  40437a:	ea20 70d3 	biceq.w	r0, r0, r3, lsr #31
  40437e:	bd70      	pop	{r4, r5, r6, pc}
  404380:	f1c4 040c 	rsb	r4, r4, #12
  404384:	f1c4 0520 	rsb	r5, r4, #32
  404388:	fa00 f304 	lsl.w	r3, r0, r4
  40438c:	fa20 f005 	lsr.w	r0, r0, r5
  404390:	fa01 f204 	lsl.w	r2, r1, r4
  404394:	ea40 0002 	orr.w	r0, r0, r2
  404398:	f001 4100 	and.w	r1, r1, #2147483648	; 0x80000000
  40439c:	eb10 70d3 	adds.w	r0, r0, r3, lsr #31
  4043a0:	f141 0100 	adc.w	r1, r1, #0
  4043a4:	ea5e 0e43 	orrs.w	lr, lr, r3, lsl #1
  4043a8:	bf08      	it	eq
  4043aa:	ea20 70d3 	biceq.w	r0, r0, r3, lsr #31
  4043ae:	bd70      	pop	{r4, r5, r6, pc}
  4043b0:	f1c4 0520 	rsb	r5, r4, #32
  4043b4:	fa00 f205 	lsl.w	r2, r0, r5
  4043b8:	ea4e 0e02 	orr.w	lr, lr, r2
  4043bc:	fa20 f304 	lsr.w	r3, r0, r4
  4043c0:	fa01 f205 	lsl.w	r2, r1, r5
  4043c4:	ea43 0302 	orr.w	r3, r3, r2
  4043c8:	fa21 f004 	lsr.w	r0, r1, r4
  4043cc:	f001 4100 	and.w	r1, r1, #2147483648	; 0x80000000
  4043d0:	fa21 f204 	lsr.w	r2, r1, r4
  4043d4:	ea20 0002 	bic.w	r0, r0, r2
  4043d8:	eb00 70d3 	add.w	r0, r0, r3, lsr #31
  4043dc:	ea5e 0e43 	orrs.w	lr, lr, r3, lsl #1
  4043e0:	bf08      	it	eq
  4043e2:	ea20 70d3 	biceq.w	r0, r0, r3, lsr #31
  4043e6:	bd70      	pop	{r4, r5, r6, pc}
  4043e8:	f094 0f00 	teq	r4, #0
  4043ec:	d10f      	bne.n	40440e <__aeabi_dmul+0x1c2>
  4043ee:	f001 4600 	and.w	r6, r1, #2147483648	; 0x80000000
  4043f2:	0040      	lsls	r0, r0, #1
  4043f4:	eb41 0101 	adc.w	r1, r1, r1
  4043f8:	f411 1f80 	tst.w	r1, #1048576	; 0x100000
  4043fc:	bf08      	it	eq
  4043fe:	3c01      	subeq	r4, #1
  404400:	d0f7      	beq.n	4043f2 <__aeabi_dmul+0x1a6>
  404402:	ea41 0106 	orr.w	r1, r1, r6
  404406:	f095 0f00 	teq	r5, #0
  40440a:	bf18      	it	ne
  40440c:	4770      	bxne	lr
  40440e:	f003 4600 	and.w	r6, r3, #2147483648	; 0x80000000
  404412:	0052      	lsls	r2, r2, #1
  404414:	eb43 0303 	adc.w	r3, r3, r3
  404418:	f413 1f80 	tst.w	r3, #1048576	; 0x100000
  40441c:	bf08      	it	eq
  40441e:	3d01      	subeq	r5, #1
  404420:	d0f7      	beq.n	404412 <__aeabi_dmul+0x1c6>
  404422:	ea43 0306 	orr.w	r3, r3, r6
  404426:	4770      	bx	lr
  404428:	ea94 0f0c 	teq	r4, ip
  40442c:	ea0c 5513 	and.w	r5, ip, r3, lsr #20
  404430:	bf18      	it	ne
  404432:	ea95 0f0c 	teqne	r5, ip
  404436:	d00c      	beq.n	404452 <__aeabi_dmul+0x206>
  404438:	ea50 0641 	orrs.w	r6, r0, r1, lsl #1
  40443c:	bf18      	it	ne
  40443e:	ea52 0643 	orrsne.w	r6, r2, r3, lsl #1
  404442:	d1d1      	bne.n	4043e8 <__aeabi_dmul+0x19c>
  404444:	ea81 0103 	eor.w	r1, r1, r3
  404448:	f001 4100 	and.w	r1, r1, #2147483648	; 0x80000000
  40444c:	f04f 0000 	mov.w	r0, #0
  404450:	bd70      	pop	{r4, r5, r6, pc}
  404452:	ea50 0641 	orrs.w	r6, r0, r1, lsl #1
  404456:	bf06      	itte	eq
  404458:	4610      	moveq	r0, r2
  40445a:	4619      	moveq	r1, r3
  40445c:	ea52 0643 	orrsne.w	r6, r2, r3, lsl #1
  404460:	d019      	beq.n	404496 <__aeabi_dmul+0x24a>
  404462:	ea94 0f0c 	teq	r4, ip
  404466:	d102      	bne.n	40446e <__aeabi_dmul+0x222>
  404468:	ea50 3601 	orrs.w	r6, r0, r1, lsl #12
  40446c:	d113      	bne.n	404496 <__aeabi_dmul+0x24a>
  40446e:	ea95 0f0c 	teq	r5, ip
  404472:	d105      	bne.n	404480 <__aeabi_dmul+0x234>
  404474:	ea52 3603 	orrs.w	r6, r2, r3, lsl #12
  404478:	bf1c      	itt	ne
  40447a:	4610      	movne	r0, r2
  40447c:	4619      	movne	r1, r3
  40447e:	d10a      	bne.n	404496 <__aeabi_dmul+0x24a>
  404480:	ea81 0103 	eor.w	r1, r1, r3
  404484:	f001 4100 	and.w	r1, r1, #2147483648	; 0x80000000
  404488:	f041 41fe 	orr.w	r1, r1, #2130706432	; 0x7f000000
  40448c:	f441 0170 	orr.w	r1, r1, #15728640	; 0xf00000
  404490:	f04f 0000 	mov.w	r0, #0
  404494:	bd70      	pop	{r4, r5, r6, pc}
  404496:	f041 41fe 	orr.w	r1, r1, #2130706432	; 0x7f000000
  40449a:	f441 0178 	orr.w	r1, r1, #16252928	; 0xf80000
  40449e:	bd70      	pop	{r4, r5, r6, pc}

004044a0 <__aeabi_ddiv>:
  4044a0:	b570      	push	{r4, r5, r6, lr}
  4044a2:	f04f 0cff 	mov.w	ip, #255	; 0xff
  4044a6:	f44c 6ce0 	orr.w	ip, ip, #1792	; 0x700
  4044aa:	ea1c 5411 	ands.w	r4, ip, r1, lsr #20
  4044ae:	bf1d      	ittte	ne
  4044b0:	ea1c 5513 	andsne.w	r5, ip, r3, lsr #20
  4044b4:	ea94 0f0c 	teqne	r4, ip
  4044b8:	ea95 0f0c 	teqne	r5, ip
  4044bc:	f000 f8a7 	bleq	40460e <__aeabi_ddiv+0x16e>
  4044c0:	eba4 0405 	sub.w	r4, r4, r5
  4044c4:	ea81 0e03 	eor.w	lr, r1, r3
  4044c8:	ea52 3503 	orrs.w	r5, r2, r3, lsl #12
  4044cc:	ea4f 3101 	mov.w	r1, r1, lsl #12
  4044d0:	f000 8088 	beq.w	4045e4 <__aeabi_ddiv+0x144>
  4044d4:	ea4f 3303 	mov.w	r3, r3, lsl #12
  4044d8:	f04f 5580 	mov.w	r5, #268435456	; 0x10000000
  4044dc:	ea45 1313 	orr.w	r3, r5, r3, lsr #4
  4044e0:	ea43 6312 	orr.w	r3, r3, r2, lsr #24
  4044e4:	ea4f 2202 	mov.w	r2, r2, lsl #8
  4044e8:	ea45 1511 	orr.w	r5, r5, r1, lsr #4
  4044ec:	ea45 6510 	orr.w	r5, r5, r0, lsr #24
  4044f0:	ea4f 2600 	mov.w	r6, r0, lsl #8
  4044f4:	f00e 4100 	and.w	r1, lr, #2147483648	; 0x80000000
  4044f8:	429d      	cmp	r5, r3
  4044fa:	bf08      	it	eq
  4044fc:	4296      	cmpeq	r6, r2
  4044fe:	f144 04fd 	adc.w	r4, r4, #253	; 0xfd
  404502:	f504 7440 	add.w	r4, r4, #768	; 0x300
  404506:	d202      	bcs.n	40450e <__aeabi_ddiv+0x6e>
  404508:	085b      	lsrs	r3, r3, #1
  40450a:	ea4f 0232 	mov.w	r2, r2, rrx
  40450e:	1ab6      	subs	r6, r6, r2
  404510:	eb65 0503 	sbc.w	r5, r5, r3
  404514:	085b      	lsrs	r3, r3, #1
  404516:	ea4f 0232 	mov.w	r2, r2, rrx
  40451a:	f44f 1080 	mov.w	r0, #1048576	; 0x100000
  40451e:	f44f 2c00 	mov.w	ip, #524288	; 0x80000
  404522:	ebb6 0e02 	subs.w	lr, r6, r2
  404526:	eb75 0e03 	sbcs.w	lr, r5, r3
  40452a:	bf22      	ittt	cs
  40452c:	1ab6      	subcs	r6, r6, r2
  40452e:	4675      	movcs	r5, lr
  404530:	ea40 000c 	orrcs.w	r0, r0, ip
  404534:	085b      	lsrs	r3, r3, #1
  404536:	ea4f 0232 	mov.w	r2, r2, rrx
  40453a:	ebb6 0e02 	subs.w	lr, r6, r2
  40453e:	eb75 0e03 	sbcs.w	lr, r5, r3
  404542:	bf22      	ittt	cs
  404544:	1ab6      	subcs	r6, r6, r2
  404546:	4675      	movcs	r5, lr
  404548:	ea40 005c 	orrcs.w	r0, r0, ip, lsr #1
  40454c:	085b      	lsrs	r3, r3, #1
  40454e:	ea4f 0232 	mov.w	r2, r2, rrx
  404552:	ebb6 0e02 	subs.w	lr, r6, r2
  404556:	eb75 0e03 	sbcs.w	lr, r5, r3
  40455a:	bf22      	ittt	cs
  40455c:	1ab6      	subcs	r6, r6, r2
  40455e:	4675      	movcs	r5, lr
  404560:	ea40 009c 	orrcs.w	r0, r0, ip, lsr #2
  404564:	085b      	lsrs	r3, r3, #1
  404566:	ea4f 0232 	mov.w	r2, r2, rrx
  40456a:	ebb6 0e02 	subs.w	lr, r6, r2
  40456e:	eb75 0e03 	sbcs.w	lr, r5, r3
  404572:	bf22      	ittt	cs
  404574:	1ab6      	subcs	r6, r6, r2
  404576:	4675      	movcs	r5, lr
  404578:	ea40 00dc 	orrcs.w	r0, r0, ip, lsr #3
  40457c:	ea55 0e06 	orrs.w	lr, r5, r6
  404580:	d018      	beq.n	4045b4 <__aeabi_ddiv+0x114>
  404582:	ea4f 1505 	mov.w	r5, r5, lsl #4
  404586:	ea45 7516 	orr.w	r5, r5, r6, lsr #28
  40458a:	ea4f 1606 	mov.w	r6, r6, lsl #4
  40458e:	ea4f 03c3 	mov.w	r3, r3, lsl #3
  404592:	ea43 7352 	orr.w	r3, r3, r2, lsr #29
  404596:	ea4f 02c2 	mov.w	r2, r2, lsl #3
  40459a:	ea5f 1c1c 	movs.w	ip, ip, lsr #4
  40459e:	d1c0      	bne.n	404522 <__aeabi_ddiv+0x82>
  4045a0:	f411 1f80 	tst.w	r1, #1048576	; 0x100000
  4045a4:	d10b      	bne.n	4045be <__aeabi_ddiv+0x11e>
  4045a6:	ea41 0100 	orr.w	r1, r1, r0
  4045aa:	f04f 0000 	mov.w	r0, #0
  4045ae:	f04f 4c00 	mov.w	ip, #2147483648	; 0x80000000
  4045b2:	e7b6      	b.n	404522 <__aeabi_ddiv+0x82>
  4045b4:	f411 1f80 	tst.w	r1, #1048576	; 0x100000
  4045b8:	bf04      	itt	eq
  4045ba:	4301      	orreq	r1, r0
  4045bc:	2000      	moveq	r0, #0
  4045be:	f1b4 0cfd 	subs.w	ip, r4, #253	; 0xfd
  4045c2:	bf88      	it	hi
  4045c4:	f5bc 6fe0 	cmphi.w	ip, #1792	; 0x700
  4045c8:	f63f aeaf 	bhi.w	40432a <__aeabi_dmul+0xde>
  4045cc:	ebb5 0c03 	subs.w	ip, r5, r3
  4045d0:	bf04      	itt	eq
  4045d2:	ebb6 0c02 	subseq.w	ip, r6, r2
  4045d6:	ea5f 0c50 	movseq.w	ip, r0, lsr #1
  4045da:	f150 0000 	adcs.w	r0, r0, #0
  4045de:	eb41 5104 	adc.w	r1, r1, r4, lsl #20
  4045e2:	bd70      	pop	{r4, r5, r6, pc}
  4045e4:	f00e 4e00 	and.w	lr, lr, #2147483648	; 0x80000000
  4045e8:	ea4e 3111 	orr.w	r1, lr, r1, lsr #12
  4045ec:	eb14 045c 	adds.w	r4, r4, ip, lsr #1
  4045f0:	bfc2      	ittt	gt
  4045f2:	ebd4 050c 	rsbsgt	r5, r4, ip
  4045f6:	ea41 5104 	orrgt.w	r1, r1, r4, lsl #20
  4045fa:	bd70      	popgt	{r4, r5, r6, pc}
  4045fc:	f441 1180 	orr.w	r1, r1, #1048576	; 0x100000
  404600:	f04f 0e00 	mov.w	lr, #0
  404604:	3c01      	subs	r4, #1
  404606:	e690      	b.n	40432a <__aeabi_dmul+0xde>
  404608:	ea45 0e06 	orr.w	lr, r5, r6
  40460c:	e68d      	b.n	40432a <__aeabi_dmul+0xde>
  40460e:	ea0c 5513 	and.w	r5, ip, r3, lsr #20
  404612:	ea94 0f0c 	teq	r4, ip
  404616:	bf08      	it	eq
  404618:	ea95 0f0c 	teqeq	r5, ip
  40461c:	f43f af3b 	beq.w	404496 <__aeabi_dmul+0x24a>
  404620:	ea94 0f0c 	teq	r4, ip
  404624:	d10a      	bne.n	40463c <__aeabi_ddiv+0x19c>
  404626:	ea50 3401 	orrs.w	r4, r0, r1, lsl #12
  40462a:	f47f af34 	bne.w	404496 <__aeabi_dmul+0x24a>
  40462e:	ea95 0f0c 	teq	r5, ip
  404632:	f47f af25 	bne.w	404480 <__aeabi_dmul+0x234>
  404636:	4610      	mov	r0, r2
  404638:	4619      	mov	r1, r3
  40463a:	e72c      	b.n	404496 <__aeabi_dmul+0x24a>
  40463c:	ea95 0f0c 	teq	r5, ip
  404640:	d106      	bne.n	404650 <__aeabi_ddiv+0x1b0>
  404642:	ea52 3503 	orrs.w	r5, r2, r3, lsl #12
  404646:	f43f aefd 	beq.w	404444 <__aeabi_dmul+0x1f8>
  40464a:	4610      	mov	r0, r2
  40464c:	4619      	mov	r1, r3
  40464e:	e722      	b.n	404496 <__aeabi_dmul+0x24a>
  404650:	ea50 0641 	orrs.w	r6, r0, r1, lsl #1
  404654:	bf18      	it	ne
  404656:	ea52 0643 	orrsne.w	r6, r2, r3, lsl #1
  40465a:	f47f aec5 	bne.w	4043e8 <__aeabi_dmul+0x19c>
  40465e:	ea50 0441 	orrs.w	r4, r0, r1, lsl #1
  404662:	f47f af0d 	bne.w	404480 <__aeabi_dmul+0x234>
  404666:	ea52 0543 	orrs.w	r5, r2, r3, lsl #1
  40466a:	f47f aeeb 	bne.w	404444 <__aeabi_dmul+0x1f8>
  40466e:	e712      	b.n	404496 <__aeabi_dmul+0x24a>

00404670 <__gedf2>:
  404670:	f04f 3cff 	mov.w	ip, #4294967295
  404674:	e006      	b.n	404684 <__cmpdf2+0x4>
  404676:	bf00      	nop

00404678 <__ledf2>:
  404678:	f04f 0c01 	mov.w	ip, #1
  40467c:	e002      	b.n	404684 <__cmpdf2+0x4>
  40467e:	bf00      	nop

00404680 <__cmpdf2>:
  404680:	f04f 0c01 	mov.w	ip, #1
  404684:	f84d cd04 	str.w	ip, [sp, #-4]!
  404688:	ea4f 0c41 	mov.w	ip, r1, lsl #1
  40468c:	ea7f 5c6c 	mvns.w	ip, ip, asr #21
  404690:	ea4f 0c43 	mov.w	ip, r3, lsl #1
  404694:	bf18      	it	ne
  404696:	ea7f 5c6c 	mvnsne.w	ip, ip, asr #21
  40469a:	d01b      	beq.n	4046d4 <__cmpdf2+0x54>
  40469c:	b001      	add	sp, #4
  40469e:	ea50 0c41 	orrs.w	ip, r0, r1, lsl #1
  4046a2:	bf0c      	ite	eq
  4046a4:	ea52 0c43 	orrseq.w	ip, r2, r3, lsl #1
  4046a8:	ea91 0f03 	teqne	r1, r3
  4046ac:	bf02      	ittt	eq
  4046ae:	ea90 0f02 	teqeq	r0, r2
  4046b2:	2000      	moveq	r0, #0
  4046b4:	4770      	bxeq	lr
  4046b6:	f110 0f00 	cmn.w	r0, #0
  4046ba:	ea91 0f03 	teq	r1, r3
  4046be:	bf58      	it	pl
  4046c0:	4299      	cmppl	r1, r3
  4046c2:	bf08      	it	eq
  4046c4:	4290      	cmpeq	r0, r2
  4046c6:	bf2c      	ite	cs
  4046c8:	17d8      	asrcs	r0, r3, #31
  4046ca:	ea6f 70e3 	mvncc.w	r0, r3, asr #31
  4046ce:	f040 0001 	orr.w	r0, r0, #1
  4046d2:	4770      	bx	lr
  4046d4:	ea4f 0c41 	mov.w	ip, r1, lsl #1
  4046d8:	ea7f 5c6c 	mvns.w	ip, ip, asr #21
  4046dc:	d102      	bne.n	4046e4 <__cmpdf2+0x64>
  4046de:	ea50 3c01 	orrs.w	ip, r0, r1, lsl #12
  4046e2:	d107      	bne.n	4046f4 <__cmpdf2+0x74>
  4046e4:	ea4f 0c43 	mov.w	ip, r3, lsl #1
  4046e8:	ea7f 5c6c 	mvns.w	ip, ip, asr #21
  4046ec:	d1d6      	bne.n	40469c <__cmpdf2+0x1c>
  4046ee:	ea52 3c03 	orrs.w	ip, r2, r3, lsl #12
  4046f2:	d0d3      	beq.n	40469c <__cmpdf2+0x1c>
  4046f4:	f85d 0b04 	ldr.w	r0, [sp], #4
  4046f8:	4770      	bx	lr
  4046fa:	bf00      	nop

004046fc <__aeabi_cdrcmple>:
  4046fc:	4684      	mov	ip, r0
  4046fe:	4610      	mov	r0, r2
  404700:	4662      	mov	r2, ip
  404702:	468c      	mov	ip, r1
  404704:	4619      	mov	r1, r3
  404706:	4663      	mov	r3, ip
  404708:	e000      	b.n	40470c <__aeabi_cdcmpeq>
  40470a:	bf00      	nop

0040470c <__aeabi_cdcmpeq>:
  40470c:	b501      	push	{r0, lr}
  40470e:	f7ff ffb7 	bl	404680 <__cmpdf2>
  404712:	2800      	cmp	r0, #0
  404714:	bf48      	it	mi
  404716:	f110 0f00 	cmnmi.w	r0, #0
  40471a:	bd01      	pop	{r0, pc}

0040471c <__aeabi_dcmpeq>:
  40471c:	f84d ed08 	str.w	lr, [sp, #-8]!
  404720:	f7ff fff4 	bl	40470c <__aeabi_cdcmpeq>
  404724:	bf0c      	ite	eq
  404726:	2001      	moveq	r0, #1
  404728:	2000      	movne	r0, #0
  40472a:	f85d fb08 	ldr.w	pc, [sp], #8
  40472e:	bf00      	nop

00404730 <__aeabi_dcmplt>:
  404730:	f84d ed08 	str.w	lr, [sp, #-8]!
  404734:	f7ff ffea 	bl	40470c <__aeabi_cdcmpeq>
  404738:	bf34      	ite	cc
  40473a:	2001      	movcc	r0, #1
  40473c:	2000      	movcs	r0, #0
  40473e:	f85d fb08 	ldr.w	pc, [sp], #8
  404742:	bf00      	nop

00404744 <__aeabi_dcmple>:
  404744:	f84d ed08 	str.w	lr, [sp, #-8]!
  404748:	f7ff ffe0 	bl	40470c <__aeabi_cdcmpeq>
  40474c:	bf94      	ite	ls
  40474e:	2001      	movls	r0, #1
  404750:	2000      	movhi	r0, #0
  404752:	f85d fb08 	ldr.w	pc, [sp], #8
  404756:	bf00      	nop

00404758 <__aeabi_dcmpge>:
  404758:	f84d ed08 	str.w	lr, [sp, #-8]!
  40475c:	f7ff ffce 	bl	4046fc <__aeabi_cdrcmple>
  404760:	bf94      	ite	ls
  404762:	2001      	movls	r0, #1
  404764:	2000      	movhi	r0, #0
  404766:	f85d fb08 	ldr.w	pc, [sp], #8
  40476a:	bf00      	nop

0040476c <__aeabi_dcmpgt>:
  40476c:	f84d ed08 	str.w	lr, [sp, #-8]!
  404770:	f7ff ffc4 	bl	4046fc <__aeabi_cdrcmple>
  404774:	bf34      	ite	cc
  404776:	2001      	movcc	r0, #1
  404778:	2000      	movcs	r0, #0
  40477a:	f85d fb08 	ldr.w	pc, [sp], #8
  40477e:	bf00      	nop

00404780 <__aeabi_d2iz>:
  404780:	ea4f 0241 	mov.w	r2, r1, lsl #1
  404784:	f512 1200 	adds.w	r2, r2, #2097152	; 0x200000
  404788:	d215      	bcs.n	4047b6 <__aeabi_d2iz+0x36>
  40478a:	d511      	bpl.n	4047b0 <__aeabi_d2iz+0x30>
  40478c:	f46f 7378 	mvn.w	r3, #992	; 0x3e0
  404790:	ebb3 5262 	subs.w	r2, r3, r2, asr #21
  404794:	d912      	bls.n	4047bc <__aeabi_d2iz+0x3c>
  404796:	ea4f 23c1 	mov.w	r3, r1, lsl #11
  40479a:	f043 4300 	orr.w	r3, r3, #2147483648	; 0x80000000
  40479e:	ea43 5350 	orr.w	r3, r3, r0, lsr #21
  4047a2:	f011 4f00 	tst.w	r1, #2147483648	; 0x80000000
  4047a6:	fa23 f002 	lsr.w	r0, r3, r2
  4047aa:	bf18      	it	ne
  4047ac:	4240      	negne	r0, r0
  4047ae:	4770      	bx	lr
  4047b0:	f04f 0000 	mov.w	r0, #0
  4047b4:	4770      	bx	lr
  4047b6:	ea50 3001 	orrs.w	r0, r0, r1, lsl #12
  4047ba:	d105      	bne.n	4047c8 <__aeabi_d2iz+0x48>
  4047bc:	f011 4000 	ands.w	r0, r1, #2147483648	; 0x80000000
  4047c0:	bf08      	it	eq
  4047c2:	f06f 4000 	mvneq.w	r0, #2147483648	; 0x80000000
  4047c6:	4770      	bx	lr
  4047c8:	f04f 0000 	mov.w	r0, #0
  4047cc:	4770      	bx	lr
  4047ce:	bf00      	nop

004047d0 <__aeabi_d2uiz>:
  4047d0:	004a      	lsls	r2, r1, #1
  4047d2:	d211      	bcs.n	4047f8 <__aeabi_d2uiz+0x28>
  4047d4:	f512 1200 	adds.w	r2, r2, #2097152	; 0x200000
  4047d8:	d211      	bcs.n	4047fe <__aeabi_d2uiz+0x2e>
  4047da:	d50d      	bpl.n	4047f8 <__aeabi_d2uiz+0x28>
  4047dc:	f46f 7378 	mvn.w	r3, #992	; 0x3e0
  4047e0:	ebb3 5262 	subs.w	r2, r3, r2, asr #21
  4047e4:	d40e      	bmi.n	404804 <__aeabi_d2uiz+0x34>
  4047e6:	ea4f 23c1 	mov.w	r3, r1, lsl #11
  4047ea:	f043 4300 	orr.w	r3, r3, #2147483648	; 0x80000000
  4047ee:	ea43 5350 	orr.w	r3, r3, r0, lsr #21
  4047f2:	fa23 f002 	lsr.w	r0, r3, r2
  4047f6:	4770      	bx	lr
  4047f8:	f04f 0000 	mov.w	r0, #0
  4047fc:	4770      	bx	lr
  4047fe:	ea50 3001 	orrs.w	r0, r0, r1, lsl #12
  404802:	d102      	bne.n	40480a <__aeabi_d2uiz+0x3a>
  404804:	f04f 30ff 	mov.w	r0, #4294967295
  404808:	4770      	bx	lr
  40480a:	f04f 0000 	mov.w	r0, #0
  40480e:	4770      	bx	lr

00404810 <__aeabi_d2f>:
  404810:	ea4f 0241 	mov.w	r2, r1, lsl #1
  404814:	f1b2 43e0 	subs.w	r3, r2, #1879048192	; 0x70000000
  404818:	bf24      	itt	cs
  40481a:	f5b3 1c00 	subscs.w	ip, r3, #2097152	; 0x200000
  40481e:	f1dc 5cfe 	rsbscs	ip, ip, #532676608	; 0x1fc00000
  404822:	d90d      	bls.n	404840 <__aeabi_d2f+0x30>
  404824:	f001 4c00 	and.w	ip, r1, #2147483648	; 0x80000000
  404828:	ea4f 02c0 	mov.w	r2, r0, lsl #3
  40482c:	ea4c 7050 	orr.w	r0, ip, r0, lsr #29
  404830:	f1b2 4f00 	cmp.w	r2, #2147483648	; 0x80000000
  404834:	eb40 0083 	adc.w	r0, r0, r3, lsl #2
  404838:	bf08      	it	eq
  40483a:	f020 0001 	biceq.w	r0, r0, #1
  40483e:	4770      	bx	lr
  404840:	f011 4f80 	tst.w	r1, #1073741824	; 0x40000000
  404844:	d121      	bne.n	40488a <__aeabi_d2f+0x7a>
  404846:	f113 7238 	adds.w	r2, r3, #48234496	; 0x2e00000
  40484a:	bfbc      	itt	lt
  40484c:	f001 4000 	andlt.w	r0, r1, #2147483648	; 0x80000000
  404850:	4770      	bxlt	lr
  404852:	f441 1180 	orr.w	r1, r1, #1048576	; 0x100000
  404856:	ea4f 5252 	mov.w	r2, r2, lsr #21
  40485a:	f1c2 0218 	rsb	r2, r2, #24
  40485e:	f1c2 0c20 	rsb	ip, r2, #32
  404862:	fa10 f30c 	lsls.w	r3, r0, ip
  404866:	fa20 f002 	lsr.w	r0, r0, r2
  40486a:	bf18      	it	ne
  40486c:	f040 0001 	orrne.w	r0, r0, #1
  404870:	ea4f 23c1 	mov.w	r3, r1, lsl #11
  404874:	ea4f 23d3 	mov.w	r3, r3, lsr #11
  404878:	fa03 fc0c 	lsl.w	ip, r3, ip
  40487c:	ea40 000c 	orr.w	r0, r0, ip
  404880:	fa23 f302 	lsr.w	r3, r3, r2
  404884:	ea4f 0343 	mov.w	r3, r3, lsl #1
  404888:	e7cc      	b.n	404824 <__aeabi_d2f+0x14>
  40488a:	ea7f 5362 	mvns.w	r3, r2, asr #21
  40488e:	d107      	bne.n	4048a0 <__aeabi_d2f+0x90>
  404890:	ea50 3301 	orrs.w	r3, r0, r1, lsl #12
  404894:	bf1e      	ittt	ne
  404896:	f04f 40fe 	movne.w	r0, #2130706432	; 0x7f000000
  40489a:	f440 0040 	orrne.w	r0, r0, #12582912	; 0xc00000
  40489e:	4770      	bxne	lr
  4048a0:	f001 4000 	and.w	r0, r1, #2147483648	; 0x80000000
  4048a4:	f040 40fe 	orr.w	r0, r0, #2130706432	; 0x7f000000
  4048a8:	f440 0000 	orr.w	r0, r0, #8388608	; 0x800000
  4048ac:	4770      	bx	lr
  4048ae:	bf00      	nop

004048b0 <__aeabi_frsub>:
  4048b0:	f080 4000 	eor.w	r0, r0, #2147483648	; 0x80000000
  4048b4:	e002      	b.n	4048bc <__addsf3>
  4048b6:	bf00      	nop

004048b8 <__aeabi_fsub>:
  4048b8:	f081 4100 	eor.w	r1, r1, #2147483648	; 0x80000000

004048bc <__addsf3>:
  4048bc:	0042      	lsls	r2, r0, #1
  4048be:	bf1f      	itttt	ne
  4048c0:	ea5f 0341 	movsne.w	r3, r1, lsl #1
  4048c4:	ea92 0f03 	teqne	r2, r3
  4048c8:	ea7f 6c22 	mvnsne.w	ip, r2, asr #24
  4048cc:	ea7f 6c23 	mvnsne.w	ip, r3, asr #24
  4048d0:	d06a      	beq.n	4049a8 <__addsf3+0xec>
  4048d2:	ea4f 6212 	mov.w	r2, r2, lsr #24
  4048d6:	ebd2 6313 	rsbs	r3, r2, r3, lsr #24
  4048da:	bfc1      	itttt	gt
  4048dc:	18d2      	addgt	r2, r2, r3
  4048de:	4041      	eorgt	r1, r0
  4048e0:	4048      	eorgt	r0, r1
  4048e2:	4041      	eorgt	r1, r0
  4048e4:	bfb8      	it	lt
  4048e6:	425b      	neglt	r3, r3
  4048e8:	2b19      	cmp	r3, #25
  4048ea:	bf88      	it	hi
  4048ec:	4770      	bxhi	lr
  4048ee:	f010 4f00 	tst.w	r0, #2147483648	; 0x80000000
  4048f2:	f440 0000 	orr.w	r0, r0, #8388608	; 0x800000
  4048f6:	f020 407f 	bic.w	r0, r0, #4278190080	; 0xff000000
  4048fa:	bf18      	it	ne
  4048fc:	4240      	negne	r0, r0
  4048fe:	f011 4f00 	tst.w	r1, #2147483648	; 0x80000000
  404902:	f441 0100 	orr.w	r1, r1, #8388608	; 0x800000
  404906:	f021 417f 	bic.w	r1, r1, #4278190080	; 0xff000000
  40490a:	bf18      	it	ne
  40490c:	4249      	negne	r1, r1
  40490e:	ea92 0f03 	teq	r2, r3
  404912:	d03f      	beq.n	404994 <__addsf3+0xd8>
  404914:	f1a2 0201 	sub.w	r2, r2, #1
  404918:	fa41 fc03 	asr.w	ip, r1, r3
  40491c:	eb10 000c 	adds.w	r0, r0, ip
  404920:	f1c3 0320 	rsb	r3, r3, #32
  404924:	fa01 f103 	lsl.w	r1, r1, r3
  404928:	f000 4300 	and.w	r3, r0, #2147483648	; 0x80000000
  40492c:	d502      	bpl.n	404934 <__addsf3+0x78>
  40492e:	4249      	negs	r1, r1
  404930:	eb60 0040 	sbc.w	r0, r0, r0, lsl #1
  404934:	f5b0 0f00 	cmp.w	r0, #8388608	; 0x800000
  404938:	d313      	bcc.n	404962 <__addsf3+0xa6>
  40493a:	f1b0 7f80 	cmp.w	r0, #16777216	; 0x1000000
  40493e:	d306      	bcc.n	40494e <__addsf3+0x92>
  404940:	0840      	lsrs	r0, r0, #1
  404942:	ea4f 0131 	mov.w	r1, r1, rrx
  404946:	f102 0201 	add.w	r2, r2, #1
  40494a:	2afe      	cmp	r2, #254	; 0xfe
  40494c:	d251      	bcs.n	4049f2 <__addsf3+0x136>
  40494e:	f1b1 4f00 	cmp.w	r1, #2147483648	; 0x80000000
  404952:	eb40 50c2 	adc.w	r0, r0, r2, lsl #23
  404956:	bf08      	it	eq
  404958:	f020 0001 	biceq.w	r0, r0, #1
  40495c:	ea40 0003 	orr.w	r0, r0, r3
  404960:	4770      	bx	lr
  404962:	0049      	lsls	r1, r1, #1
  404964:	eb40 0000 	adc.w	r0, r0, r0
  404968:	f410 0f00 	tst.w	r0, #8388608	; 0x800000
  40496c:	f1a2 0201 	sub.w	r2, r2, #1
  404970:	d1ed      	bne.n	40494e <__addsf3+0x92>
  404972:	fab0 fc80 	clz	ip, r0
  404976:	f1ac 0c08 	sub.w	ip, ip, #8
  40497a:	ebb2 020c 	subs.w	r2, r2, ip
  40497e:	fa00 f00c 	lsl.w	r0, r0, ip
  404982:	bfaa      	itet	ge
  404984:	eb00 50c2 	addge.w	r0, r0, r2, lsl #23
  404988:	4252      	neglt	r2, r2
  40498a:	4318      	orrge	r0, r3
  40498c:	bfbc      	itt	lt
  40498e:	40d0      	lsrlt	r0, r2
  404990:	4318      	orrlt	r0, r3
  404992:	4770      	bx	lr
  404994:	f092 0f00 	teq	r2, #0
  404998:	f481 0100 	eor.w	r1, r1, #8388608	; 0x800000
  40499c:	bf06      	itte	eq
  40499e:	f480 0000 	eoreq.w	r0, r0, #8388608	; 0x800000
  4049a2:	3201      	addeq	r2, #1
  4049a4:	3b01      	subne	r3, #1
  4049a6:	e7b5      	b.n	404914 <__addsf3+0x58>
  4049a8:	ea4f 0341 	mov.w	r3, r1, lsl #1
  4049ac:	ea7f 6c22 	mvns.w	ip, r2, asr #24
  4049b0:	bf18      	it	ne
  4049b2:	ea7f 6c23 	mvnsne.w	ip, r3, asr #24
  4049b6:	d021      	beq.n	4049fc <__addsf3+0x140>
  4049b8:	ea92 0f03 	teq	r2, r3
  4049bc:	d004      	beq.n	4049c8 <__addsf3+0x10c>
  4049be:	f092 0f00 	teq	r2, #0
  4049c2:	bf08      	it	eq
  4049c4:	4608      	moveq	r0, r1
  4049c6:	4770      	bx	lr
  4049c8:	ea90 0f01 	teq	r0, r1
  4049cc:	bf1c      	itt	ne
  4049ce:	2000      	movne	r0, #0
  4049d0:	4770      	bxne	lr
  4049d2:	f012 4f7f 	tst.w	r2, #4278190080	; 0xff000000
  4049d6:	d104      	bne.n	4049e2 <__addsf3+0x126>
  4049d8:	0040      	lsls	r0, r0, #1
  4049da:	bf28      	it	cs
  4049dc:	f040 4000 	orrcs.w	r0, r0, #2147483648	; 0x80000000
  4049e0:	4770      	bx	lr
  4049e2:	f112 7200 	adds.w	r2, r2, #33554432	; 0x2000000
  4049e6:	bf3c      	itt	cc
  4049e8:	f500 0000 	addcc.w	r0, r0, #8388608	; 0x800000
  4049ec:	4770      	bxcc	lr
  4049ee:	f000 4300 	and.w	r3, r0, #2147483648	; 0x80000000
  4049f2:	f043 40fe 	orr.w	r0, r3, #2130706432	; 0x7f000000
  4049f6:	f440 0000 	orr.w	r0, r0, #8388608	; 0x800000
  4049fa:	4770      	bx	lr
  4049fc:	ea7f 6222 	mvns.w	r2, r2, asr #24
  404a00:	bf16      	itet	ne
  404a02:	4608      	movne	r0, r1
  404a04:	ea7f 6323 	mvnseq.w	r3, r3, asr #24
  404a08:	4601      	movne	r1, r0
  404a0a:	0242      	lsls	r2, r0, #9
  404a0c:	bf06      	itte	eq
  404a0e:	ea5f 2341 	movseq.w	r3, r1, lsl #9
  404a12:	ea90 0f01 	teqeq	r0, r1
  404a16:	f440 0080 	orrne.w	r0, r0, #4194304	; 0x400000
  404a1a:	4770      	bx	lr

00404a1c <__aeabi_ui2f>:
  404a1c:	f04f 0300 	mov.w	r3, #0
  404a20:	e004      	b.n	404a2c <__aeabi_i2f+0x8>
  404a22:	bf00      	nop

00404a24 <__aeabi_i2f>:
  404a24:	f010 4300 	ands.w	r3, r0, #2147483648	; 0x80000000
  404a28:	bf48      	it	mi
  404a2a:	4240      	negmi	r0, r0
  404a2c:	ea5f 0c00 	movs.w	ip, r0
  404a30:	bf08      	it	eq
  404a32:	4770      	bxeq	lr
  404a34:	f043 4396 	orr.w	r3, r3, #1258291200	; 0x4b000000
  404a38:	4601      	mov	r1, r0
  404a3a:	f04f 0000 	mov.w	r0, #0
  404a3e:	e01c      	b.n	404a7a <__aeabi_l2f+0x2a>

00404a40 <__aeabi_ul2f>:
  404a40:	ea50 0201 	orrs.w	r2, r0, r1
  404a44:	bf08      	it	eq
  404a46:	4770      	bxeq	lr
  404a48:	f04f 0300 	mov.w	r3, #0
  404a4c:	e00a      	b.n	404a64 <__aeabi_l2f+0x14>
  404a4e:	bf00      	nop

00404a50 <__aeabi_l2f>:
  404a50:	ea50 0201 	orrs.w	r2, r0, r1
  404a54:	bf08      	it	eq
  404a56:	4770      	bxeq	lr
  404a58:	f011 4300 	ands.w	r3, r1, #2147483648	; 0x80000000
  404a5c:	d502      	bpl.n	404a64 <__aeabi_l2f+0x14>
  404a5e:	4240      	negs	r0, r0
  404a60:	eb61 0141 	sbc.w	r1, r1, r1, lsl #1
  404a64:	ea5f 0c01 	movs.w	ip, r1
  404a68:	bf02      	ittt	eq
  404a6a:	4684      	moveq	ip, r0
  404a6c:	4601      	moveq	r1, r0
  404a6e:	2000      	moveq	r0, #0
  404a70:	f043 43b6 	orr.w	r3, r3, #1526726656	; 0x5b000000
  404a74:	bf08      	it	eq
  404a76:	f1a3 5380 	subeq.w	r3, r3, #268435456	; 0x10000000
  404a7a:	f5a3 0300 	sub.w	r3, r3, #8388608	; 0x800000
  404a7e:	fabc f28c 	clz	r2, ip
  404a82:	3a08      	subs	r2, #8
  404a84:	eba3 53c2 	sub.w	r3, r3, r2, lsl #23
  404a88:	db10      	blt.n	404aac <__aeabi_l2f+0x5c>
  404a8a:	fa01 fc02 	lsl.w	ip, r1, r2
  404a8e:	4463      	add	r3, ip
  404a90:	fa00 fc02 	lsl.w	ip, r0, r2
  404a94:	f1c2 0220 	rsb	r2, r2, #32
  404a98:	f1bc 4f00 	cmp.w	ip, #2147483648	; 0x80000000
  404a9c:	fa20 f202 	lsr.w	r2, r0, r2
  404aa0:	eb43 0002 	adc.w	r0, r3, r2
  404aa4:	bf08      	it	eq
  404aa6:	f020 0001 	biceq.w	r0, r0, #1
  404aaa:	4770      	bx	lr
  404aac:	f102 0220 	add.w	r2, r2, #32
  404ab0:	fa01 fc02 	lsl.w	ip, r1, r2
  404ab4:	f1c2 0220 	rsb	r2, r2, #32
  404ab8:	ea50 004c 	orrs.w	r0, r0, ip, lsl #1
  404abc:	fa21 f202 	lsr.w	r2, r1, r2
  404ac0:	eb43 0002 	adc.w	r0, r3, r2
  404ac4:	bf08      	it	eq
  404ac6:	ea20 70dc 	biceq.w	r0, r0, ip, lsr #31
  404aca:	4770      	bx	lr

00404acc <__aeabi_fmul>:
  404acc:	f04f 0cff 	mov.w	ip, #255	; 0xff
  404ad0:	ea1c 52d0 	ands.w	r2, ip, r0, lsr #23
  404ad4:	bf1e      	ittt	ne
  404ad6:	ea1c 53d1 	andsne.w	r3, ip, r1, lsr #23
  404ada:	ea92 0f0c 	teqne	r2, ip
  404ade:	ea93 0f0c 	teqne	r3, ip
  404ae2:	d06f      	beq.n	404bc4 <__aeabi_fmul+0xf8>
  404ae4:	441a      	add	r2, r3
  404ae6:	ea80 0c01 	eor.w	ip, r0, r1
  404aea:	0240      	lsls	r0, r0, #9
  404aec:	bf18      	it	ne
  404aee:	ea5f 2141 	movsne.w	r1, r1, lsl #9
  404af2:	d01e      	beq.n	404b32 <__aeabi_fmul+0x66>
  404af4:	f04f 6300 	mov.w	r3, #134217728	; 0x8000000
  404af8:	ea43 1050 	orr.w	r0, r3, r0, lsr #5
  404afc:	ea43 1151 	orr.w	r1, r3, r1, lsr #5
  404b00:	fba0 3101 	umull	r3, r1, r0, r1
  404b04:	f00c 4000 	and.w	r0, ip, #2147483648	; 0x80000000
  404b08:	f5b1 0f00 	cmp.w	r1, #8388608	; 0x800000
  404b0c:	bf3e      	ittt	cc
  404b0e:	0049      	lslcc	r1, r1, #1
  404b10:	ea41 71d3 	orrcc.w	r1, r1, r3, lsr #31
  404b14:	005b      	lslcc	r3, r3, #1
  404b16:	ea40 0001 	orr.w	r0, r0, r1
  404b1a:	f162 027f 	sbc.w	r2, r2, #127	; 0x7f
  404b1e:	2afd      	cmp	r2, #253	; 0xfd
  404b20:	d81d      	bhi.n	404b5e <__aeabi_fmul+0x92>
  404b22:	f1b3 4f00 	cmp.w	r3, #2147483648	; 0x80000000
  404b26:	eb40 50c2 	adc.w	r0, r0, r2, lsl #23
  404b2a:	bf08      	it	eq
  404b2c:	f020 0001 	biceq.w	r0, r0, #1
  404b30:	4770      	bx	lr
  404b32:	f090 0f00 	teq	r0, #0
  404b36:	f00c 4c00 	and.w	ip, ip, #2147483648	; 0x80000000
  404b3a:	bf08      	it	eq
  404b3c:	0249      	lsleq	r1, r1, #9
  404b3e:	ea4c 2050 	orr.w	r0, ip, r0, lsr #9
  404b42:	ea40 2051 	orr.w	r0, r0, r1, lsr #9
  404b46:	3a7f      	subs	r2, #127	; 0x7f
  404b48:	bfc2      	ittt	gt
  404b4a:	f1d2 03ff 	rsbsgt	r3, r2, #255	; 0xff
  404b4e:	ea40 50c2 	orrgt.w	r0, r0, r2, lsl #23
  404b52:	4770      	bxgt	lr
  404b54:	f440 0000 	orr.w	r0, r0, #8388608	; 0x800000
  404b58:	f04f 0300 	mov.w	r3, #0
  404b5c:	3a01      	subs	r2, #1
  404b5e:	dc5d      	bgt.n	404c1c <__aeabi_fmul+0x150>
  404b60:	f112 0f19 	cmn.w	r2, #25
  404b64:	bfdc      	itt	le
  404b66:	f000 4000 	andle.w	r0, r0, #2147483648	; 0x80000000
  404b6a:	4770      	bxle	lr
  404b6c:	f1c2 0200 	rsb	r2, r2, #0
  404b70:	0041      	lsls	r1, r0, #1
  404b72:	fa21 f102 	lsr.w	r1, r1, r2
  404b76:	f1c2 0220 	rsb	r2, r2, #32
  404b7a:	fa00 fc02 	lsl.w	ip, r0, r2
  404b7e:	ea5f 0031 	movs.w	r0, r1, rrx
  404b82:	f140 0000 	adc.w	r0, r0, #0
  404b86:	ea53 034c 	orrs.w	r3, r3, ip, lsl #1
  404b8a:	bf08      	it	eq
  404b8c:	ea20 70dc 	biceq.w	r0, r0, ip, lsr #31
  404b90:	4770      	bx	lr
  404b92:	f092 0f00 	teq	r2, #0
  404b96:	f000 4c00 	and.w	ip, r0, #2147483648	; 0x80000000
  404b9a:	bf02      	ittt	eq
  404b9c:	0040      	lsleq	r0, r0, #1
  404b9e:	f410 0f00 	tsteq.w	r0, #8388608	; 0x800000
  404ba2:	3a01      	subeq	r2, #1
  404ba4:	d0f9      	beq.n	404b9a <__aeabi_fmul+0xce>
  404ba6:	ea40 000c 	orr.w	r0, r0, ip
  404baa:	f093 0f00 	teq	r3, #0
  404bae:	f001 4c00 	and.w	ip, r1, #2147483648	; 0x80000000
  404bb2:	bf02      	ittt	eq
  404bb4:	0049      	lsleq	r1, r1, #1
  404bb6:	f411 0f00 	tsteq.w	r1, #8388608	; 0x800000
  404bba:	3b01      	subeq	r3, #1
  404bbc:	d0f9      	beq.n	404bb2 <__aeabi_fmul+0xe6>
  404bbe:	ea41 010c 	orr.w	r1, r1, ip
  404bc2:	e78f      	b.n	404ae4 <__aeabi_fmul+0x18>
  404bc4:	ea0c 53d1 	and.w	r3, ip, r1, lsr #23
  404bc8:	ea92 0f0c 	teq	r2, ip
  404bcc:	bf18      	it	ne
  404bce:	ea93 0f0c 	teqne	r3, ip
  404bd2:	d00a      	beq.n	404bea <__aeabi_fmul+0x11e>
  404bd4:	f030 4c00 	bics.w	ip, r0, #2147483648	; 0x80000000
  404bd8:	bf18      	it	ne
  404bda:	f031 4c00 	bicsne.w	ip, r1, #2147483648	; 0x80000000
  404bde:	d1d8      	bne.n	404b92 <__aeabi_fmul+0xc6>
  404be0:	ea80 0001 	eor.w	r0, r0, r1
  404be4:	f000 4000 	and.w	r0, r0, #2147483648	; 0x80000000
  404be8:	4770      	bx	lr
  404bea:	f090 0f00 	teq	r0, #0
  404bee:	bf17      	itett	ne
  404bf0:	f090 4f00 	teqne	r0, #2147483648	; 0x80000000
  404bf4:	4608      	moveq	r0, r1
  404bf6:	f091 0f00 	teqne	r1, #0
  404bfa:	f091 4f00 	teqne	r1, #2147483648	; 0x80000000
  404bfe:	d014      	beq.n	404c2a <__aeabi_fmul+0x15e>
  404c00:	ea92 0f0c 	teq	r2, ip
  404c04:	d101      	bne.n	404c0a <__aeabi_fmul+0x13e>
  404c06:	0242      	lsls	r2, r0, #9
  404c08:	d10f      	bne.n	404c2a <__aeabi_fmul+0x15e>
  404c0a:	ea93 0f0c 	teq	r3, ip
  404c0e:	d103      	bne.n	404c18 <__aeabi_fmul+0x14c>
  404c10:	024b      	lsls	r3, r1, #9
  404c12:	bf18      	it	ne
  404c14:	4608      	movne	r0, r1
  404c16:	d108      	bne.n	404c2a <__aeabi_fmul+0x15e>
  404c18:	ea80 0001 	eor.w	r0, r0, r1
  404c1c:	f000 4000 	and.w	r0, r0, #2147483648	; 0x80000000
  404c20:	f040 40fe 	orr.w	r0, r0, #2130706432	; 0x7f000000
  404c24:	f440 0000 	orr.w	r0, r0, #8388608	; 0x800000
  404c28:	4770      	bx	lr
  404c2a:	f040 40fe 	orr.w	r0, r0, #2130706432	; 0x7f000000
  404c2e:	f440 0040 	orr.w	r0, r0, #12582912	; 0xc00000
  404c32:	4770      	bx	lr

00404c34 <__aeabi_fdiv>:
  404c34:	f04f 0cff 	mov.w	ip, #255	; 0xff
  404c38:	ea1c 52d0 	ands.w	r2, ip, r0, lsr #23
  404c3c:	bf1e      	ittt	ne
  404c3e:	ea1c 53d1 	andsne.w	r3, ip, r1, lsr #23
  404c42:	ea92 0f0c 	teqne	r2, ip
  404c46:	ea93 0f0c 	teqne	r3, ip
  404c4a:	d069      	beq.n	404d20 <__aeabi_fdiv+0xec>
  404c4c:	eba2 0203 	sub.w	r2, r2, r3
  404c50:	ea80 0c01 	eor.w	ip, r0, r1
  404c54:	0249      	lsls	r1, r1, #9
  404c56:	ea4f 2040 	mov.w	r0, r0, lsl #9
  404c5a:	d037      	beq.n	404ccc <__aeabi_fdiv+0x98>
  404c5c:	f04f 5380 	mov.w	r3, #268435456	; 0x10000000
  404c60:	ea43 1111 	orr.w	r1, r3, r1, lsr #4
  404c64:	ea43 1310 	orr.w	r3, r3, r0, lsr #4
  404c68:	f00c 4000 	and.w	r0, ip, #2147483648	; 0x80000000
  404c6c:	428b      	cmp	r3, r1
  404c6e:	bf38      	it	cc
  404c70:	005b      	lslcc	r3, r3, #1
  404c72:	f142 027d 	adc.w	r2, r2, #125	; 0x7d
  404c76:	f44f 0c00 	mov.w	ip, #8388608	; 0x800000
  404c7a:	428b      	cmp	r3, r1
  404c7c:	bf24      	itt	cs
  404c7e:	1a5b      	subcs	r3, r3, r1
  404c80:	ea40 000c 	orrcs.w	r0, r0, ip
  404c84:	ebb3 0f51 	cmp.w	r3, r1, lsr #1
  404c88:	bf24      	itt	cs
  404c8a:	eba3 0351 	subcs.w	r3, r3, r1, lsr #1
  404c8e:	ea40 005c 	orrcs.w	r0, r0, ip, lsr #1
  404c92:	ebb3 0f91 	cmp.w	r3, r1, lsr #2
  404c96:	bf24      	itt	cs
  404c98:	eba3 0391 	subcs.w	r3, r3, r1, lsr #2
  404c9c:	ea40 009c 	orrcs.w	r0, r0, ip, lsr #2
  404ca0:	ebb3 0fd1 	cmp.w	r3, r1, lsr #3
  404ca4:	bf24      	itt	cs
  404ca6:	eba3 03d1 	subcs.w	r3, r3, r1, lsr #3
  404caa:	ea40 00dc 	orrcs.w	r0, r0, ip, lsr #3
  404cae:	011b      	lsls	r3, r3, #4
  404cb0:	bf18      	it	ne
  404cb2:	ea5f 1c1c 	movsne.w	ip, ip, lsr #4
  404cb6:	d1e0      	bne.n	404c7a <__aeabi_fdiv+0x46>
  404cb8:	2afd      	cmp	r2, #253	; 0xfd
  404cba:	f63f af50 	bhi.w	404b5e <__aeabi_fmul+0x92>
  404cbe:	428b      	cmp	r3, r1
  404cc0:	eb40 50c2 	adc.w	r0, r0, r2, lsl #23
  404cc4:	bf08      	it	eq
  404cc6:	f020 0001 	biceq.w	r0, r0, #1
  404cca:	4770      	bx	lr
  404ccc:	f00c 4c00 	and.w	ip, ip, #2147483648	; 0x80000000
  404cd0:	ea4c 2050 	orr.w	r0, ip, r0, lsr #9
  404cd4:	327f      	adds	r2, #127	; 0x7f
  404cd6:	bfc2      	ittt	gt
  404cd8:	f1d2 03ff 	rsbsgt	r3, r2, #255	; 0xff
  404cdc:	ea40 50c2 	orrgt.w	r0, r0, r2, lsl #23
  404ce0:	4770      	bxgt	lr
  404ce2:	f440 0000 	orr.w	r0, r0, #8388608	; 0x800000
  404ce6:	f04f 0300 	mov.w	r3, #0
  404cea:	3a01      	subs	r2, #1
  404cec:	e737      	b.n	404b5e <__aeabi_fmul+0x92>
  404cee:	f092 0f00 	teq	r2, #0
  404cf2:	f000 4c00 	and.w	ip, r0, #2147483648	; 0x80000000
  404cf6:	bf02      	ittt	eq
  404cf8:	0040      	lsleq	r0, r0, #1
  404cfa:	f410 0f00 	tsteq.w	r0, #8388608	; 0x800000
  404cfe:	3a01      	subeq	r2, #1
  404d00:	d0f9      	beq.n	404cf6 <__aeabi_fdiv+0xc2>
  404d02:	ea40 000c 	orr.w	r0, r0, ip
  404d06:	f093 0f00 	teq	r3, #0
  404d0a:	f001 4c00 	and.w	ip, r1, #2147483648	; 0x80000000
  404d0e:	bf02      	ittt	eq
  404d10:	0049      	lsleq	r1, r1, #1
  404d12:	f411 0f00 	tsteq.w	r1, #8388608	; 0x800000
  404d16:	3b01      	subeq	r3, #1
  404d18:	d0f9      	beq.n	404d0e <__aeabi_fdiv+0xda>
  404d1a:	ea41 010c 	orr.w	r1, r1, ip
  404d1e:	e795      	b.n	404c4c <__aeabi_fdiv+0x18>
  404d20:	ea0c 53d1 	and.w	r3, ip, r1, lsr #23
  404d24:	ea92 0f0c 	teq	r2, ip
  404d28:	d108      	bne.n	404d3c <__aeabi_fdiv+0x108>
  404d2a:	0242      	lsls	r2, r0, #9
  404d2c:	f47f af7d 	bne.w	404c2a <__aeabi_fmul+0x15e>
  404d30:	ea93 0f0c 	teq	r3, ip
  404d34:	f47f af70 	bne.w	404c18 <__aeabi_fmul+0x14c>
  404d38:	4608      	mov	r0, r1
  404d3a:	e776      	b.n	404c2a <__aeabi_fmul+0x15e>
  404d3c:	ea93 0f0c 	teq	r3, ip
  404d40:	d104      	bne.n	404d4c <__aeabi_fdiv+0x118>
  404d42:	024b      	lsls	r3, r1, #9
  404d44:	f43f af4c 	beq.w	404be0 <__aeabi_fmul+0x114>
  404d48:	4608      	mov	r0, r1
  404d4a:	e76e      	b.n	404c2a <__aeabi_fmul+0x15e>
  404d4c:	f030 4c00 	bics.w	ip, r0, #2147483648	; 0x80000000
  404d50:	bf18      	it	ne
  404d52:	f031 4c00 	bicsne.w	ip, r1, #2147483648	; 0x80000000
  404d56:	d1ca      	bne.n	404cee <__aeabi_fdiv+0xba>
  404d58:	f030 4200 	bics.w	r2, r0, #2147483648	; 0x80000000
  404d5c:	f47f af5c 	bne.w	404c18 <__aeabi_fmul+0x14c>
  404d60:	f031 4300 	bics.w	r3, r1, #2147483648	; 0x80000000
  404d64:	f47f af3c 	bne.w	404be0 <__aeabi_fmul+0x114>
  404d68:	e75f      	b.n	404c2a <__aeabi_fmul+0x15e>
  404d6a:	bf00      	nop

00404d6c <__aeabi_f2uiz>:
  404d6c:	0042      	lsls	r2, r0, #1
  404d6e:	d20e      	bcs.n	404d8e <__aeabi_f2uiz+0x22>
  404d70:	f1b2 4ffe 	cmp.w	r2, #2130706432	; 0x7f000000
  404d74:	d30b      	bcc.n	404d8e <__aeabi_f2uiz+0x22>
  404d76:	f04f 039e 	mov.w	r3, #158	; 0x9e
  404d7a:	ebb3 6212 	subs.w	r2, r3, r2, lsr #24
  404d7e:	d409      	bmi.n	404d94 <__aeabi_f2uiz+0x28>
  404d80:	ea4f 2300 	mov.w	r3, r0, lsl #8
  404d84:	f043 4300 	orr.w	r3, r3, #2147483648	; 0x80000000
  404d88:	fa23 f002 	lsr.w	r0, r3, r2
  404d8c:	4770      	bx	lr
  404d8e:	f04f 0000 	mov.w	r0, #0
  404d92:	4770      	bx	lr
  404d94:	f112 0f61 	cmn.w	r2, #97	; 0x61
  404d98:	d101      	bne.n	404d9e <__aeabi_f2uiz+0x32>
  404d9a:	0242      	lsls	r2, r0, #9
  404d9c:	d102      	bne.n	404da4 <__aeabi_f2uiz+0x38>
  404d9e:	f04f 30ff 	mov.w	r0, #4294967295
  404da2:	4770      	bx	lr
  404da4:	f04f 0000 	mov.w	r0, #0
  404da8:	4770      	bx	lr
  404daa:	bf00      	nop

00404dac <__libc_init_array>:
  404dac:	b570      	push	{r4, r5, r6, lr}
  404dae:	4e0f      	ldr	r6, [pc, #60]	; (404dec <__libc_init_array+0x40>)
  404db0:	4d0f      	ldr	r5, [pc, #60]	; (404df0 <__libc_init_array+0x44>)
  404db2:	1b76      	subs	r6, r6, r5
  404db4:	10b6      	asrs	r6, r6, #2
  404db6:	bf18      	it	ne
  404db8:	2400      	movne	r4, #0
  404dba:	d005      	beq.n	404dc8 <__libc_init_array+0x1c>
  404dbc:	3401      	adds	r4, #1
  404dbe:	f855 3b04 	ldr.w	r3, [r5], #4
  404dc2:	4798      	blx	r3
  404dc4:	42a6      	cmp	r6, r4
  404dc6:	d1f9      	bne.n	404dbc <__libc_init_array+0x10>
  404dc8:	4e0a      	ldr	r6, [pc, #40]	; (404df4 <__libc_init_array+0x48>)
  404dca:	4d0b      	ldr	r5, [pc, #44]	; (404df8 <__libc_init_array+0x4c>)
  404dcc:	1b76      	subs	r6, r6, r5
  404dce:	f004 fe87 	bl	409ae0 <_init>
  404dd2:	10b6      	asrs	r6, r6, #2
  404dd4:	bf18      	it	ne
  404dd6:	2400      	movne	r4, #0
  404dd8:	d006      	beq.n	404de8 <__libc_init_array+0x3c>
  404dda:	3401      	adds	r4, #1
  404ddc:	f855 3b04 	ldr.w	r3, [r5], #4
  404de0:	4798      	blx	r3
  404de2:	42a6      	cmp	r6, r4
  404de4:	d1f9      	bne.n	404dda <__libc_init_array+0x2e>
  404de6:	bd70      	pop	{r4, r5, r6, pc}
  404de8:	bd70      	pop	{r4, r5, r6, pc}
  404dea:	bf00      	nop
  404dec:	00409aec 	.word	0x00409aec
  404df0:	00409aec 	.word	0x00409aec
  404df4:	00409af4 	.word	0x00409af4
  404df8:	00409aec 	.word	0x00409aec

00404dfc <memset>:
  404dfc:	b470      	push	{r4, r5, r6}
  404dfe:	0784      	lsls	r4, r0, #30
  404e00:	d046      	beq.n	404e90 <memset+0x94>
  404e02:	1e54      	subs	r4, r2, #1
  404e04:	2a00      	cmp	r2, #0
  404e06:	d041      	beq.n	404e8c <memset+0x90>
  404e08:	b2cd      	uxtb	r5, r1
  404e0a:	4603      	mov	r3, r0
  404e0c:	e002      	b.n	404e14 <memset+0x18>
  404e0e:	1e62      	subs	r2, r4, #1
  404e10:	b3e4      	cbz	r4, 404e8c <memset+0x90>
  404e12:	4614      	mov	r4, r2
  404e14:	f803 5b01 	strb.w	r5, [r3], #1
  404e18:	079a      	lsls	r2, r3, #30
  404e1a:	d1f8      	bne.n	404e0e <memset+0x12>
  404e1c:	2c03      	cmp	r4, #3
  404e1e:	d92e      	bls.n	404e7e <memset+0x82>
  404e20:	b2cd      	uxtb	r5, r1
  404e22:	ea45 2505 	orr.w	r5, r5, r5, lsl #8
  404e26:	2c0f      	cmp	r4, #15
  404e28:	ea45 4505 	orr.w	r5, r5, r5, lsl #16
  404e2c:	d919      	bls.n	404e62 <memset+0x66>
  404e2e:	f103 0210 	add.w	r2, r3, #16
  404e32:	4626      	mov	r6, r4
  404e34:	3e10      	subs	r6, #16
  404e36:	2e0f      	cmp	r6, #15
  404e38:	f842 5c10 	str.w	r5, [r2, #-16]
  404e3c:	f842 5c0c 	str.w	r5, [r2, #-12]
  404e40:	f842 5c08 	str.w	r5, [r2, #-8]
  404e44:	f842 5c04 	str.w	r5, [r2, #-4]
  404e48:	f102 0210 	add.w	r2, r2, #16
  404e4c:	d8f2      	bhi.n	404e34 <memset+0x38>
  404e4e:	f1a4 0210 	sub.w	r2, r4, #16
  404e52:	f022 020f 	bic.w	r2, r2, #15
  404e56:	f004 040f 	and.w	r4, r4, #15
  404e5a:	3210      	adds	r2, #16
  404e5c:	2c03      	cmp	r4, #3
  404e5e:	4413      	add	r3, r2
  404e60:	d90d      	bls.n	404e7e <memset+0x82>
  404e62:	461e      	mov	r6, r3
  404e64:	4622      	mov	r2, r4
  404e66:	3a04      	subs	r2, #4
  404e68:	2a03      	cmp	r2, #3
  404e6a:	f846 5b04 	str.w	r5, [r6], #4
  404e6e:	d8fa      	bhi.n	404e66 <memset+0x6a>
  404e70:	1f22      	subs	r2, r4, #4
  404e72:	f022 0203 	bic.w	r2, r2, #3
  404e76:	3204      	adds	r2, #4
  404e78:	4413      	add	r3, r2
  404e7a:	f004 0403 	and.w	r4, r4, #3
  404e7e:	b12c      	cbz	r4, 404e8c <memset+0x90>
  404e80:	b2c9      	uxtb	r1, r1
  404e82:	441c      	add	r4, r3
  404e84:	f803 1b01 	strb.w	r1, [r3], #1
  404e88:	42a3      	cmp	r3, r4
  404e8a:	d1fb      	bne.n	404e84 <memset+0x88>
  404e8c:	bc70      	pop	{r4, r5, r6}
  404e8e:	4770      	bx	lr
  404e90:	4614      	mov	r4, r2
  404e92:	4603      	mov	r3, r0
  404e94:	e7c2      	b.n	404e1c <memset+0x20>
  404e96:	bf00      	nop

00404e98 <sprintf>:
  404e98:	b40e      	push	{r1, r2, r3}
  404e9a:	b5f0      	push	{r4, r5, r6, r7, lr}
  404e9c:	b09c      	sub	sp, #112	; 0x70
  404e9e:	ab21      	add	r3, sp, #132	; 0x84
  404ea0:	490f      	ldr	r1, [pc, #60]	; (404ee0 <sprintf+0x48>)
  404ea2:	f853 2b04 	ldr.w	r2, [r3], #4
  404ea6:	9301      	str	r3, [sp, #4]
  404ea8:	4605      	mov	r5, r0
  404eaa:	f06f 4400 	mvn.w	r4, #2147483648	; 0x80000000
  404eae:	6808      	ldr	r0, [r1, #0]
  404eb0:	9502      	str	r5, [sp, #8]
  404eb2:	f44f 7702 	mov.w	r7, #520	; 0x208
  404eb6:	f64f 76ff 	movw	r6, #65535	; 0xffff
  404eba:	a902      	add	r1, sp, #8
  404ebc:	9506      	str	r5, [sp, #24]
  404ebe:	f8ad 7014 	strh.w	r7, [sp, #20]
  404ec2:	9404      	str	r4, [sp, #16]
  404ec4:	9407      	str	r4, [sp, #28]
  404ec6:	f8ad 6016 	strh.w	r6, [sp, #22]
  404eca:	f000 f839 	bl	404f40 <_svfprintf_r>
  404ece:	9b02      	ldr	r3, [sp, #8]
  404ed0:	2200      	movs	r2, #0
  404ed2:	701a      	strb	r2, [r3, #0]
  404ed4:	b01c      	add	sp, #112	; 0x70
  404ed6:	e8bd 40f0 	ldmia.w	sp!, {r4, r5, r6, r7, lr}
  404eda:	b003      	add	sp, #12
  404edc:	4770      	bx	lr
  404ede:	bf00      	nop
  404ee0:	20000438 	.word	0x20000438

00404ee4 <strlen>:
  404ee4:	f020 0103 	bic.w	r1, r0, #3
  404ee8:	f010 0003 	ands.w	r0, r0, #3
  404eec:	f1c0 0000 	rsb	r0, r0, #0
  404ef0:	f851 3b04 	ldr.w	r3, [r1], #4
  404ef4:	f100 0c04 	add.w	ip, r0, #4
  404ef8:	ea4f 0ccc 	mov.w	ip, ip, lsl #3
  404efc:	f06f 0200 	mvn.w	r2, #0
  404f00:	bf1c      	itt	ne
  404f02:	fa22 f20c 	lsrne.w	r2, r2, ip
  404f06:	4313      	orrne	r3, r2
  404f08:	f04f 0c01 	mov.w	ip, #1
  404f0c:	ea4c 2c0c 	orr.w	ip, ip, ip, lsl #8
  404f10:	ea4c 4c0c 	orr.w	ip, ip, ip, lsl #16
  404f14:	eba3 020c 	sub.w	r2, r3, ip
  404f18:	ea22 0203 	bic.w	r2, r2, r3
  404f1c:	ea12 12cc 	ands.w	r2, r2, ip, lsl #7
  404f20:	bf04      	itt	eq
  404f22:	f851 3b04 	ldreq.w	r3, [r1], #4
  404f26:	3004      	addeq	r0, #4
  404f28:	d0f4      	beq.n	404f14 <strlen+0x30>
  404f2a:	f1c2 0100 	rsb	r1, r2, #0
  404f2e:	ea02 0201 	and.w	r2, r2, r1
  404f32:	fab2 f282 	clz	r2, r2
  404f36:	f1c2 021f 	rsb	r2, r2, #31
  404f3a:	eb00 00d2 	add.w	r0, r0, r2, lsr #3
  404f3e:	4770      	bx	lr

00404f40 <_svfprintf_r>:
  404f40:	e92d 4ff0 	stmdb	sp!, {r4, r5, r6, r7, r8, r9, sl, fp, lr}
  404f44:	b0c1      	sub	sp, #260	; 0x104
  404f46:	4689      	mov	r9, r1
  404f48:	920a      	str	r2, [sp, #40]	; 0x28
  404f4a:	930e      	str	r3, [sp, #56]	; 0x38
  404f4c:	9008      	str	r0, [sp, #32]
  404f4e:	f002 fb6d 	bl	40762c <_localeconv_r>
  404f52:	6803      	ldr	r3, [r0, #0]
  404f54:	9317      	str	r3, [sp, #92]	; 0x5c
  404f56:	4618      	mov	r0, r3
  404f58:	f7ff ffc4 	bl	404ee4 <strlen>
  404f5c:	f8b9 300c 	ldrh.w	r3, [r9, #12]
  404f60:	9018      	str	r0, [sp, #96]	; 0x60
  404f62:	061a      	lsls	r2, r3, #24
  404f64:	d504      	bpl.n	404f70 <_svfprintf_r+0x30>
  404f66:	f8d9 3010 	ldr.w	r3, [r9, #16]
  404f6a:	2b00      	cmp	r3, #0
  404f6c:	f001 808c 	beq.w	406088 <_svfprintf_r+0x1148>
  404f70:	2300      	movs	r3, #0
  404f72:	af30      	add	r7, sp, #192	; 0xc0
  404f74:	9313      	str	r3, [sp, #76]	; 0x4c
  404f76:	9325      	str	r3, [sp, #148]	; 0x94
  404f78:	9324      	str	r3, [sp, #144]	; 0x90
  404f7a:	9316      	str	r3, [sp, #88]	; 0x58
  404f7c:	9319      	str	r3, [sp, #100]	; 0x64
  404f7e:	930b      	str	r3, [sp, #44]	; 0x2c
  404f80:	9723      	str	r7, [sp, #140]	; 0x8c
  404f82:	9314      	str	r3, [sp, #80]	; 0x50
  404f84:	9315      	str	r3, [sp, #84]	; 0x54
  404f86:	463c      	mov	r4, r7
  404f88:	464e      	mov	r6, r9
  404f8a:	9d0a      	ldr	r5, [sp, #40]	; 0x28
  404f8c:	782b      	ldrb	r3, [r5, #0]
  404f8e:	2b00      	cmp	r3, #0
  404f90:	f000 80a9 	beq.w	4050e6 <_svfprintf_r+0x1a6>
  404f94:	2b25      	cmp	r3, #37	; 0x25
  404f96:	d102      	bne.n	404f9e <_svfprintf_r+0x5e>
  404f98:	e0a5      	b.n	4050e6 <_svfprintf_r+0x1a6>
  404f9a:	2b25      	cmp	r3, #37	; 0x25
  404f9c:	d003      	beq.n	404fa6 <_svfprintf_r+0x66>
  404f9e:	f815 3f01 	ldrb.w	r3, [r5, #1]!
  404fa2:	2b00      	cmp	r3, #0
  404fa4:	d1f9      	bne.n	404f9a <_svfprintf_r+0x5a>
  404fa6:	9b0a      	ldr	r3, [sp, #40]	; 0x28
  404fa8:	1aeb      	subs	r3, r5, r3
  404faa:	b173      	cbz	r3, 404fca <_svfprintf_r+0x8a>
  404fac:	9a24      	ldr	r2, [sp, #144]	; 0x90
  404fae:	9925      	ldr	r1, [sp, #148]	; 0x94
  404fb0:	980a      	ldr	r0, [sp, #40]	; 0x28
  404fb2:	6020      	str	r0, [r4, #0]
  404fb4:	3201      	adds	r2, #1
  404fb6:	4419      	add	r1, r3
  404fb8:	2a07      	cmp	r2, #7
  404fba:	6063      	str	r3, [r4, #4]
  404fbc:	9125      	str	r1, [sp, #148]	; 0x94
  404fbe:	9224      	str	r2, [sp, #144]	; 0x90
  404fc0:	dc72      	bgt.n	4050a8 <_svfprintf_r+0x168>
  404fc2:	3408      	adds	r4, #8
  404fc4:	9a0b      	ldr	r2, [sp, #44]	; 0x2c
  404fc6:	441a      	add	r2, r3
  404fc8:	920b      	str	r2, [sp, #44]	; 0x2c
  404fca:	782b      	ldrb	r3, [r5, #0]
  404fcc:	2b00      	cmp	r3, #0
  404fce:	f000 87b5 	beq.w	405f3c <_svfprintf_r+0xffc>
  404fd2:	2300      	movs	r3, #0
  404fd4:	1c69      	adds	r1, r5, #1
  404fd6:	786d      	ldrb	r5, [r5, #1]
  404fd8:	f88d 306f 	strb.w	r3, [sp, #111]	; 0x6f
  404fdc:	461a      	mov	r2, r3
  404fde:	930c      	str	r3, [sp, #48]	; 0x30
  404fe0:	9307      	str	r3, [sp, #28]
  404fe2:	f04f 3aff 	mov.w	sl, #4294967295
  404fe6:	1c4b      	adds	r3, r1, #1
  404fe8:	f1a5 0120 	sub.w	r1, r5, #32
  404fec:	2958      	cmp	r1, #88	; 0x58
  404fee:	f200 83d9 	bhi.w	4057a4 <_svfprintf_r+0x864>
  404ff2:	e8df f011 	tbh	[pc, r1, lsl #1]
  404ff6:	0270      	.short	0x0270
  404ff8:	03d703d7 	.word	0x03d703d7
  404ffc:	03d70374 	.word	0x03d70374
  405000:	03d703d7 	.word	0x03d703d7
  405004:	03d703d7 	.word	0x03d703d7
  405008:	02f003d7 	.word	0x02f003d7
  40500c:	03d7020d 	.word	0x03d7020d
  405010:	021101f4 	.word	0x021101f4
  405014:	037b03d7 	.word	0x037b03d7
  405018:	02ba02ba 	.word	0x02ba02ba
  40501c:	02ba02ba 	.word	0x02ba02ba
  405020:	02ba02ba 	.word	0x02ba02ba
  405024:	02ba02ba 	.word	0x02ba02ba
  405028:	03d702ba 	.word	0x03d702ba
  40502c:	03d703d7 	.word	0x03d703d7
  405030:	03d703d7 	.word	0x03d703d7
  405034:	03d703d7 	.word	0x03d703d7
  405038:	03d703d7 	.word	0x03d703d7
  40503c:	02c903d7 	.word	0x02c903d7
  405040:	03d7038b 	.word	0x03d7038b
  405044:	03d7038b 	.word	0x03d7038b
  405048:	03d703d7 	.word	0x03d703d7
  40504c:	036d03d7 	.word	0x036d03d7
  405050:	03d703d7 	.word	0x03d703d7
  405054:	03d70305 	.word	0x03d70305
  405058:	03d703d7 	.word	0x03d703d7
  40505c:	03d703d7 	.word	0x03d703d7
  405060:	03d70323 	.word	0x03d70323
  405064:	033d03d7 	.word	0x033d03d7
  405068:	03d703d7 	.word	0x03d703d7
  40506c:	03d703d7 	.word	0x03d703d7
  405070:	03d703d7 	.word	0x03d703d7
  405074:	03d703d7 	.word	0x03d703d7
  405078:	03d703d7 	.word	0x03d703d7
  40507c:	022c0358 	.word	0x022c0358
  405080:	038b038b 	.word	0x038b038b
  405084:	02fe038b 	.word	0x02fe038b
  405088:	03d7022c 	.word	0x03d7022c
  40508c:	02e603d7 	.word	0x02e603d7
  405090:	027e03d7 	.word	0x027e03d7
  405094:	03c001fb 	.word	0x03c001fb
  405098:	03d70277 	.word	0x03d70277
  40509c:	03d70292 	.word	0x03d70292
  4050a0:	03d7007a 	.word	0x03d7007a
  4050a4:	024a03d7 	.word	0x024a03d7
  4050a8:	9808      	ldr	r0, [sp, #32]
  4050aa:	9307      	str	r3, [sp, #28]
  4050ac:	4631      	mov	r1, r6
  4050ae:	aa23      	add	r2, sp, #140	; 0x8c
  4050b0:	f003 fbc6 	bl	408840 <__ssprint_r>
  4050b4:	b950      	cbnz	r0, 4050cc <_svfprintf_r+0x18c>
  4050b6:	463c      	mov	r4, r7
  4050b8:	9b07      	ldr	r3, [sp, #28]
  4050ba:	e783      	b.n	404fc4 <_svfprintf_r+0x84>
  4050bc:	9808      	ldr	r0, [sp, #32]
  4050be:	4631      	mov	r1, r6
  4050c0:	aa23      	add	r2, sp, #140	; 0x8c
  4050c2:	f003 fbbd 	bl	408840 <__ssprint_r>
  4050c6:	2800      	cmp	r0, #0
  4050c8:	f000 8185 	beq.w	4053d6 <_svfprintf_r+0x496>
  4050cc:	46b1      	mov	r9, r6
  4050ce:	f8b9 300c 	ldrh.w	r3, [r9, #12]
  4050d2:	f013 0f40 	tst.w	r3, #64	; 0x40
  4050d6:	9b0b      	ldr	r3, [sp, #44]	; 0x2c
  4050d8:	bf18      	it	ne
  4050da:	f04f 33ff 	movne.w	r3, #4294967295
  4050de:	4618      	mov	r0, r3
  4050e0:	b041      	add	sp, #260	; 0x104
  4050e2:	e8bd 8ff0 	ldmia.w	sp!, {r4, r5, r6, r7, r8, r9, sl, fp, pc}
  4050e6:	9d0a      	ldr	r5, [sp, #40]	; 0x28
  4050e8:	e76f      	b.n	404fca <_svfprintf_r+0x8a>
  4050ea:	930a      	str	r3, [sp, #40]	; 0x28
  4050ec:	9b07      	ldr	r3, [sp, #28]
  4050ee:	0698      	lsls	r0, r3, #26
  4050f0:	f140 82ad 	bpl.w	40564e <_svfprintf_r+0x70e>
  4050f4:	9b0e      	ldr	r3, [sp, #56]	; 0x38
  4050f6:	f103 0907 	add.w	r9, r3, #7
  4050fa:	f029 0307 	bic.w	r3, r9, #7
  4050fe:	f103 0208 	add.w	r2, r3, #8
  405102:	e9d3 8900 	ldrd	r8, r9, [r3]
  405106:	920e      	str	r2, [sp, #56]	; 0x38
  405108:	2301      	movs	r3, #1
  40510a:	f04f 0c00 	mov.w	ip, #0
  40510e:	f88d c06f 	strb.w	ip, [sp, #111]	; 0x6f
  405112:	f8cd a044 	str.w	sl, [sp, #68]	; 0x44
  405116:	f1ba 0f00 	cmp.w	sl, #0
  40511a:	db03      	blt.n	405124 <_svfprintf_r+0x1e4>
  40511c:	9a07      	ldr	r2, [sp, #28]
  40511e:	f022 0280 	bic.w	r2, r2, #128	; 0x80
  405122:	9207      	str	r2, [sp, #28]
  405124:	ea58 0209 	orrs.w	r2, r8, r9
  405128:	f040 834c 	bne.w	4057c4 <_svfprintf_r+0x884>
  40512c:	f1ba 0f00 	cmp.w	sl, #0
  405130:	f000 8451 	beq.w	4059d6 <_svfprintf_r+0xa96>
  405134:	2b01      	cmp	r3, #1
  405136:	f000 834f 	beq.w	4057d8 <_svfprintf_r+0x898>
  40513a:	2b02      	cmp	r3, #2
  40513c:	f000 8490 	beq.w	405a60 <_svfprintf_r+0xb20>
  405140:	4639      	mov	r1, r7
  405142:	ea4f 02d8 	mov.w	r2, r8, lsr #3
  405146:	ea42 7249 	orr.w	r2, r2, r9, lsl #29
  40514a:	ea4f 00d9 	mov.w	r0, r9, lsr #3
  40514e:	f008 0307 	and.w	r3, r8, #7
  405152:	4681      	mov	r9, r0
  405154:	4690      	mov	r8, r2
  405156:	3330      	adds	r3, #48	; 0x30
  405158:	ea58 0209 	orrs.w	r2, r8, r9
  40515c:	f801 3d01 	strb.w	r3, [r1, #-1]!
  405160:	d1ef      	bne.n	405142 <_svfprintf_r+0x202>
  405162:	9a07      	ldr	r2, [sp, #28]
  405164:	9110      	str	r1, [sp, #64]	; 0x40
  405166:	07d2      	lsls	r2, r2, #31
  405168:	f100 8544 	bmi.w	405bf4 <_svfprintf_r+0xcb4>
  40516c:	1a7b      	subs	r3, r7, r1
  40516e:	930d      	str	r3, [sp, #52]	; 0x34
  405170:	9a0d      	ldr	r2, [sp, #52]	; 0x34
  405172:	4592      	cmp	sl, r2
  405174:	4653      	mov	r3, sl
  405176:	bfb8      	it	lt
  405178:	4613      	movlt	r3, r2
  40517a:	9309      	str	r3, [sp, #36]	; 0x24
  40517c:	2300      	movs	r3, #0
  40517e:	9312      	str	r3, [sp, #72]	; 0x48
  405180:	f1bc 0f00 	cmp.w	ip, #0
  405184:	d002      	beq.n	40518c <_svfprintf_r+0x24c>
  405186:	9b09      	ldr	r3, [sp, #36]	; 0x24
  405188:	3301      	adds	r3, #1
  40518a:	9309      	str	r3, [sp, #36]	; 0x24
  40518c:	9b07      	ldr	r3, [sp, #28]
  40518e:	f013 0302 	ands.w	r3, r3, #2
  405192:	930f      	str	r3, [sp, #60]	; 0x3c
  405194:	d002      	beq.n	40519c <_svfprintf_r+0x25c>
  405196:	9b09      	ldr	r3, [sp, #36]	; 0x24
  405198:	3302      	adds	r3, #2
  40519a:	9309      	str	r3, [sp, #36]	; 0x24
  40519c:	9b07      	ldr	r3, [sp, #28]
  40519e:	f013 0984 	ands.w	r9, r3, #132	; 0x84
  4051a2:	f040 830c 	bne.w	4057be <_svfprintf_r+0x87e>
  4051a6:	9b0c      	ldr	r3, [sp, #48]	; 0x30
  4051a8:	9a09      	ldr	r2, [sp, #36]	; 0x24
  4051aa:	ebc2 0803 	rsb	r8, r2, r3
  4051ae:	f1b8 0f00 	cmp.w	r8, #0
  4051b2:	f340 8304 	ble.w	4057be <_svfprintf_r+0x87e>
  4051b6:	f1b8 0f10 	cmp.w	r8, #16
  4051ba:	9925      	ldr	r1, [sp, #148]	; 0x94
  4051bc:	9a24      	ldr	r2, [sp, #144]	; 0x90
  4051be:	f8df a544 	ldr.w	sl, [pc, #1348]	; 405704 <_svfprintf_r+0x7c4>
  4051c2:	dd29      	ble.n	405218 <_svfprintf_r+0x2d8>
  4051c4:	4653      	mov	r3, sl
  4051c6:	f04f 0b10 	mov.w	fp, #16
  4051ca:	46c2      	mov	sl, r8
  4051cc:	46a8      	mov	r8, r5
  4051ce:	461d      	mov	r5, r3
  4051d0:	e006      	b.n	4051e0 <_svfprintf_r+0x2a0>
  4051d2:	f1aa 0a10 	sub.w	sl, sl, #16
  4051d6:	f1ba 0f10 	cmp.w	sl, #16
  4051da:	f104 0408 	add.w	r4, r4, #8
  4051de:	dd17      	ble.n	405210 <_svfprintf_r+0x2d0>
  4051e0:	3201      	adds	r2, #1
  4051e2:	3110      	adds	r1, #16
  4051e4:	2a07      	cmp	r2, #7
  4051e6:	9125      	str	r1, [sp, #148]	; 0x94
  4051e8:	9224      	str	r2, [sp, #144]	; 0x90
  4051ea:	e884 0820 	stmia.w	r4, {r5, fp}
  4051ee:	ddf0      	ble.n	4051d2 <_svfprintf_r+0x292>
  4051f0:	9808      	ldr	r0, [sp, #32]
  4051f2:	4631      	mov	r1, r6
  4051f4:	aa23      	add	r2, sp, #140	; 0x8c
  4051f6:	f003 fb23 	bl	408840 <__ssprint_r>
  4051fa:	2800      	cmp	r0, #0
  4051fc:	f47f af66 	bne.w	4050cc <_svfprintf_r+0x18c>
  405200:	f1aa 0a10 	sub.w	sl, sl, #16
  405204:	f1ba 0f10 	cmp.w	sl, #16
  405208:	9925      	ldr	r1, [sp, #148]	; 0x94
  40520a:	9a24      	ldr	r2, [sp, #144]	; 0x90
  40520c:	463c      	mov	r4, r7
  40520e:	dce7      	bgt.n	4051e0 <_svfprintf_r+0x2a0>
  405210:	462b      	mov	r3, r5
  405212:	4645      	mov	r5, r8
  405214:	46d0      	mov	r8, sl
  405216:	469a      	mov	sl, r3
  405218:	3201      	adds	r2, #1
  40521a:	eb08 0b01 	add.w	fp, r8, r1
  40521e:	2a07      	cmp	r2, #7
  405220:	f8cd b094 	str.w	fp, [sp, #148]	; 0x94
  405224:	9224      	str	r2, [sp, #144]	; 0x90
  405226:	f8c4 a000 	str.w	sl, [r4]
  40522a:	f8c4 8004 	str.w	r8, [r4, #4]
  40522e:	f300 847b 	bgt.w	405b28 <_svfprintf_r+0xbe8>
  405232:	f89d c06f 	ldrb.w	ip, [sp, #111]	; 0x6f
  405236:	3408      	adds	r4, #8
  405238:	f1bc 0f00 	cmp.w	ip, #0
  40523c:	d00f      	beq.n	40525e <_svfprintf_r+0x31e>
  40523e:	9b24      	ldr	r3, [sp, #144]	; 0x90
  405240:	3301      	adds	r3, #1
  405242:	f10b 0b01 	add.w	fp, fp, #1
  405246:	f10d 016f 	add.w	r1, sp, #111	; 0x6f
  40524a:	2201      	movs	r2, #1
  40524c:	2b07      	cmp	r3, #7
  40524e:	f8cd b094 	str.w	fp, [sp, #148]	; 0x94
  405252:	9324      	str	r3, [sp, #144]	; 0x90
  405254:	e884 0006 	stmia.w	r4, {r1, r2}
  405258:	f300 83da 	bgt.w	405a10 <_svfprintf_r+0xad0>
  40525c:	3408      	adds	r4, #8
  40525e:	9b0f      	ldr	r3, [sp, #60]	; 0x3c
  405260:	b173      	cbz	r3, 405280 <_svfprintf_r+0x340>
  405262:	9b24      	ldr	r3, [sp, #144]	; 0x90
  405264:	3301      	adds	r3, #1
  405266:	f10b 0b02 	add.w	fp, fp, #2
  40526a:	a91c      	add	r1, sp, #112	; 0x70
  40526c:	2202      	movs	r2, #2
  40526e:	2b07      	cmp	r3, #7
  405270:	f8cd b094 	str.w	fp, [sp, #148]	; 0x94
  405274:	9324      	str	r3, [sp, #144]	; 0x90
  405276:	e884 0006 	stmia.w	r4, {r1, r2}
  40527a:	f300 83d5 	bgt.w	405a28 <_svfprintf_r+0xae8>
  40527e:	3408      	adds	r4, #8
  405280:	f1b9 0f80 	cmp.w	r9, #128	; 0x80
  405284:	f000 8311 	beq.w	4058aa <_svfprintf_r+0x96a>
  405288:	9b11      	ldr	r3, [sp, #68]	; 0x44
  40528a:	9a0d      	ldr	r2, [sp, #52]	; 0x34
  40528c:	ebc2 0a03 	rsb	sl, r2, r3
  405290:	f1ba 0f00 	cmp.w	sl, #0
  405294:	dd3c      	ble.n	405310 <_svfprintf_r+0x3d0>
  405296:	f1ba 0f10 	cmp.w	sl, #16
  40529a:	9a24      	ldr	r2, [sp, #144]	; 0x90
  40529c:	f8df 9468 	ldr.w	r9, [pc, #1128]	; 405708 <_svfprintf_r+0x7c8>
  4052a0:	dd2b      	ble.n	4052fa <_svfprintf_r+0x3ba>
  4052a2:	4649      	mov	r1, r9
  4052a4:	465b      	mov	r3, fp
  4052a6:	46a9      	mov	r9, r5
  4052a8:	f04f 0810 	mov.w	r8, #16
  4052ac:	f8dd b020 	ldr.w	fp, [sp, #32]
  4052b0:	460d      	mov	r5, r1
  4052b2:	e006      	b.n	4052c2 <_svfprintf_r+0x382>
  4052b4:	f1aa 0a10 	sub.w	sl, sl, #16
  4052b8:	f1ba 0f10 	cmp.w	sl, #16
  4052bc:	f104 0408 	add.w	r4, r4, #8
  4052c0:	dd17      	ble.n	4052f2 <_svfprintf_r+0x3b2>
  4052c2:	3201      	adds	r2, #1
  4052c4:	3310      	adds	r3, #16
  4052c6:	2a07      	cmp	r2, #7
  4052c8:	9325      	str	r3, [sp, #148]	; 0x94
  4052ca:	9224      	str	r2, [sp, #144]	; 0x90
  4052cc:	e884 0120 	stmia.w	r4, {r5, r8}
  4052d0:	ddf0      	ble.n	4052b4 <_svfprintf_r+0x374>
  4052d2:	4658      	mov	r0, fp
  4052d4:	4631      	mov	r1, r6
  4052d6:	aa23      	add	r2, sp, #140	; 0x8c
  4052d8:	f003 fab2 	bl	408840 <__ssprint_r>
  4052dc:	2800      	cmp	r0, #0
  4052de:	f47f aef5 	bne.w	4050cc <_svfprintf_r+0x18c>
  4052e2:	f1aa 0a10 	sub.w	sl, sl, #16
  4052e6:	f1ba 0f10 	cmp.w	sl, #16
  4052ea:	9b25      	ldr	r3, [sp, #148]	; 0x94
  4052ec:	9a24      	ldr	r2, [sp, #144]	; 0x90
  4052ee:	463c      	mov	r4, r7
  4052f0:	dce7      	bgt.n	4052c2 <_svfprintf_r+0x382>
  4052f2:	469b      	mov	fp, r3
  4052f4:	462b      	mov	r3, r5
  4052f6:	464d      	mov	r5, r9
  4052f8:	4699      	mov	r9, r3
  4052fa:	3201      	adds	r2, #1
  4052fc:	44d3      	add	fp, sl
  4052fe:	2a07      	cmp	r2, #7
  405300:	f8cd b094 	str.w	fp, [sp, #148]	; 0x94
  405304:	9224      	str	r2, [sp, #144]	; 0x90
  405306:	e884 0600 	stmia.w	r4, {r9, sl}
  40530a:	f300 8375 	bgt.w	4059f8 <_svfprintf_r+0xab8>
  40530e:	3408      	adds	r4, #8
  405310:	9b07      	ldr	r3, [sp, #28]
  405312:	05d9      	lsls	r1, r3, #23
  405314:	f100 826c 	bmi.w	4057f0 <_svfprintf_r+0x8b0>
  405318:	9b24      	ldr	r3, [sp, #144]	; 0x90
  40531a:	990d      	ldr	r1, [sp, #52]	; 0x34
  40531c:	9a10      	ldr	r2, [sp, #64]	; 0x40
  40531e:	6022      	str	r2, [r4, #0]
  405320:	3301      	adds	r3, #1
  405322:	448b      	add	fp, r1
  405324:	2b07      	cmp	r3, #7
  405326:	f8cd b094 	str.w	fp, [sp, #148]	; 0x94
  40532a:	6061      	str	r1, [r4, #4]
  40532c:	9324      	str	r3, [sp, #144]	; 0x90
  40532e:	f300 8346 	bgt.w	4059be <_svfprintf_r+0xa7e>
  405332:	3408      	adds	r4, #8
  405334:	9b07      	ldr	r3, [sp, #28]
  405336:	075a      	lsls	r2, r3, #29
  405338:	d541      	bpl.n	4053be <_svfprintf_r+0x47e>
  40533a:	9b0c      	ldr	r3, [sp, #48]	; 0x30
  40533c:	9a09      	ldr	r2, [sp, #36]	; 0x24
  40533e:	1a9d      	subs	r5, r3, r2
  405340:	2d00      	cmp	r5, #0
  405342:	dd3c      	ble.n	4053be <_svfprintf_r+0x47e>
  405344:	2d10      	cmp	r5, #16
  405346:	9b24      	ldr	r3, [sp, #144]	; 0x90
  405348:	f8df a3b8 	ldr.w	sl, [pc, #952]	; 405704 <_svfprintf_r+0x7c4>
  40534c:	dd23      	ble.n	405396 <_svfprintf_r+0x456>
  40534e:	f04f 0810 	mov.w	r8, #16
  405352:	465a      	mov	r2, fp
  405354:	f8dd 9020 	ldr.w	r9, [sp, #32]
  405358:	e004      	b.n	405364 <_svfprintf_r+0x424>
  40535a:	3d10      	subs	r5, #16
  40535c:	2d10      	cmp	r5, #16
  40535e:	f104 0408 	add.w	r4, r4, #8
  405362:	dd17      	ble.n	405394 <_svfprintf_r+0x454>
  405364:	3301      	adds	r3, #1
  405366:	3210      	adds	r2, #16
  405368:	2b07      	cmp	r3, #7
  40536a:	9225      	str	r2, [sp, #148]	; 0x94
  40536c:	9324      	str	r3, [sp, #144]	; 0x90
  40536e:	f8c4 a000 	str.w	sl, [r4]
  405372:	f8c4 8004 	str.w	r8, [r4, #4]
  405376:	ddf0      	ble.n	40535a <_svfprintf_r+0x41a>
  405378:	4648      	mov	r0, r9
  40537a:	4631      	mov	r1, r6
  40537c:	aa23      	add	r2, sp, #140	; 0x8c
  40537e:	f003 fa5f 	bl	408840 <__ssprint_r>
  405382:	2800      	cmp	r0, #0
  405384:	f47f aea2 	bne.w	4050cc <_svfprintf_r+0x18c>
  405388:	3d10      	subs	r5, #16
  40538a:	2d10      	cmp	r5, #16
  40538c:	9a25      	ldr	r2, [sp, #148]	; 0x94
  40538e:	9b24      	ldr	r3, [sp, #144]	; 0x90
  405390:	463c      	mov	r4, r7
  405392:	dce7      	bgt.n	405364 <_svfprintf_r+0x424>
  405394:	4693      	mov	fp, r2
  405396:	3301      	adds	r3, #1
  405398:	44ab      	add	fp, r5
  40539a:	2b07      	cmp	r3, #7
  40539c:	f8cd b094 	str.w	fp, [sp, #148]	; 0x94
  4053a0:	9324      	str	r3, [sp, #144]	; 0x90
  4053a2:	f8c4 a000 	str.w	sl, [r4]
  4053a6:	6065      	str	r5, [r4, #4]
  4053a8:	dd09      	ble.n	4053be <_svfprintf_r+0x47e>
  4053aa:	9808      	ldr	r0, [sp, #32]
  4053ac:	4631      	mov	r1, r6
  4053ae:	aa23      	add	r2, sp, #140	; 0x8c
  4053b0:	f003 fa46 	bl	408840 <__ssprint_r>
  4053b4:	2800      	cmp	r0, #0
  4053b6:	f47f ae89 	bne.w	4050cc <_svfprintf_r+0x18c>
  4053ba:	f8dd b094 	ldr.w	fp, [sp, #148]	; 0x94
  4053be:	9b0b      	ldr	r3, [sp, #44]	; 0x2c
  4053c0:	9a09      	ldr	r2, [sp, #36]	; 0x24
  4053c2:	990c      	ldr	r1, [sp, #48]	; 0x30
  4053c4:	428a      	cmp	r2, r1
  4053c6:	bfac      	ite	ge
  4053c8:	189b      	addge	r3, r3, r2
  4053ca:	185b      	addlt	r3, r3, r1
  4053cc:	930b      	str	r3, [sp, #44]	; 0x2c
  4053ce:	f1bb 0f00 	cmp.w	fp, #0
  4053d2:	f47f ae73 	bne.w	4050bc <_svfprintf_r+0x17c>
  4053d6:	2300      	movs	r3, #0
  4053d8:	9324      	str	r3, [sp, #144]	; 0x90
  4053da:	463c      	mov	r4, r7
  4053dc:	e5d5      	b.n	404f8a <_svfprintf_r+0x4a>
  4053de:	4619      	mov	r1, r3
  4053e0:	9807      	ldr	r0, [sp, #28]
  4053e2:	781d      	ldrb	r5, [r3, #0]
  4053e4:	f040 0004 	orr.w	r0, r0, #4
  4053e8:	9007      	str	r0, [sp, #28]
  4053ea:	e5fc      	b.n	404fe6 <_svfprintf_r+0xa6>
  4053ec:	930a      	str	r3, [sp, #40]	; 0x28
  4053ee:	9b07      	ldr	r3, [sp, #28]
  4053f0:	f013 0320 	ands.w	r3, r3, #32
  4053f4:	f000 810e 	beq.w	405614 <_svfprintf_r+0x6d4>
  4053f8:	9b0e      	ldr	r3, [sp, #56]	; 0x38
  4053fa:	f103 0907 	add.w	r9, r3, #7
  4053fe:	f029 0307 	bic.w	r3, r9, #7
  405402:	f103 0208 	add.w	r2, r3, #8
  405406:	e9d3 8900 	ldrd	r8, r9, [r3]
  40540a:	920e      	str	r2, [sp, #56]	; 0x38
  40540c:	2300      	movs	r3, #0
  40540e:	e67c      	b.n	40510a <_svfprintf_r+0x1ca>
  405410:	781d      	ldrb	r5, [r3, #0]
  405412:	4619      	mov	r1, r3
  405414:	222b      	movs	r2, #43	; 0x2b
  405416:	e5e6      	b.n	404fe6 <_svfprintf_r+0xa6>
  405418:	781d      	ldrb	r5, [r3, #0]
  40541a:	2d2a      	cmp	r5, #42	; 0x2a
  40541c:	f103 0101 	add.w	r1, r3, #1
  405420:	f000 87ad 	beq.w	40637e <_svfprintf_r+0x143e>
  405424:	f1a5 0030 	sub.w	r0, r5, #48	; 0x30
  405428:	2809      	cmp	r0, #9
  40542a:	460b      	mov	r3, r1
  40542c:	f04f 0a00 	mov.w	sl, #0
  405430:	f63f adda 	bhi.w	404fe8 <_svfprintf_r+0xa8>
  405434:	f813 5b01 	ldrb.w	r5, [r3], #1
  405438:	eb0a 0a8a 	add.w	sl, sl, sl, lsl #2
  40543c:	eb00 0a4a 	add.w	sl, r0, sl, lsl #1
  405440:	f1a5 0030 	sub.w	r0, r5, #48	; 0x30
  405444:	2809      	cmp	r0, #9
  405446:	d9f5      	bls.n	405434 <_svfprintf_r+0x4f4>
  405448:	ea4a 7aea 	orr.w	sl, sl, sl, asr #31
  40544c:	e5cc      	b.n	404fe8 <_svfprintf_r+0xa8>
  40544e:	930a      	str	r3, [sp, #40]	; 0x28
  405450:	9b07      	ldr	r3, [sp, #28]
  405452:	f88d 206f 	strb.w	r2, [sp, #111]	; 0x6f
  405456:	069b      	lsls	r3, r3, #26
  405458:	f140 80a1 	bpl.w	40559e <_svfprintf_r+0x65e>
  40545c:	9b0e      	ldr	r3, [sp, #56]	; 0x38
  40545e:	f103 0907 	add.w	r9, r3, #7
  405462:	f029 0907 	bic.w	r9, r9, #7
  405466:	e9d9 2300 	ldrd	r2, r3, [r9]
  40546a:	f109 0108 	add.w	r1, r9, #8
  40546e:	910e      	str	r1, [sp, #56]	; 0x38
  405470:	4690      	mov	r8, r2
  405472:	4699      	mov	r9, r3
  405474:	2a00      	cmp	r2, #0
  405476:	f173 0300 	sbcs.w	r3, r3, #0
  40547a:	f2c0 840b 	blt.w	405c94 <_svfprintf_r+0xd54>
  40547e:	f89d c06f 	ldrb.w	ip, [sp, #111]	; 0x6f
  405482:	f8cd a044 	str.w	sl, [sp, #68]	; 0x44
  405486:	2301      	movs	r3, #1
  405488:	e645      	b.n	405116 <_svfprintf_r+0x1d6>
  40548a:	930a      	str	r3, [sp, #40]	; 0x28
  40548c:	4b9b      	ldr	r3, [pc, #620]	; (4056fc <_svfprintf_r+0x7bc>)
  40548e:	9316      	str	r3, [sp, #88]	; 0x58
  405490:	9b07      	ldr	r3, [sp, #28]
  405492:	f88d 206f 	strb.w	r2, [sp, #111]	; 0x6f
  405496:	069b      	lsls	r3, r3, #26
  405498:	f140 80f3 	bpl.w	405682 <_svfprintf_r+0x742>
  40549c:	9b0e      	ldr	r3, [sp, #56]	; 0x38
  40549e:	f103 0907 	add.w	r9, r3, #7
  4054a2:	f029 0307 	bic.w	r3, r9, #7
  4054a6:	e9d3 8900 	ldrd	r8, r9, [r3]
  4054aa:	f103 0208 	add.w	r2, r3, #8
  4054ae:	920e      	str	r2, [sp, #56]	; 0x38
  4054b0:	9b07      	ldr	r3, [sp, #28]
  4054b2:	07d9      	lsls	r1, r3, #31
  4054b4:	f140 80f5 	bpl.w	4056a2 <_svfprintf_r+0x762>
  4054b8:	ea58 0309 	orrs.w	r3, r8, r9
  4054bc:	f000 80f1 	beq.w	4056a2 <_svfprintf_r+0x762>
  4054c0:	9a07      	ldr	r2, [sp, #28]
  4054c2:	f88d 5071 	strb.w	r5, [sp, #113]	; 0x71
  4054c6:	2330      	movs	r3, #48	; 0x30
  4054c8:	f042 0202 	orr.w	r2, r2, #2
  4054cc:	f88d 3070 	strb.w	r3, [sp, #112]	; 0x70
  4054d0:	9207      	str	r2, [sp, #28]
  4054d2:	2302      	movs	r3, #2
  4054d4:	e619      	b.n	40510a <_svfprintf_r+0x1ca>
  4054d6:	781d      	ldrb	r5, [r3, #0]
  4054d8:	4619      	mov	r1, r3
  4054da:	2a00      	cmp	r2, #0
  4054dc:	f47f ad83 	bne.w	404fe6 <_svfprintf_r+0xa6>
  4054e0:	2220      	movs	r2, #32
  4054e2:	e580      	b.n	404fe6 <_svfprintf_r+0xa6>
  4054e4:	9907      	ldr	r1, [sp, #28]
  4054e6:	f041 0120 	orr.w	r1, r1, #32
  4054ea:	9107      	str	r1, [sp, #28]
  4054ec:	781d      	ldrb	r5, [r3, #0]
  4054ee:	4619      	mov	r1, r3
  4054f0:	e579      	b.n	404fe6 <_svfprintf_r+0xa6>
  4054f2:	930a      	str	r3, [sp, #40]	; 0x28
  4054f4:	9b07      	ldr	r3, [sp, #28]
  4054f6:	f88d 206f 	strb.w	r2, [sp, #111]	; 0x6f
  4054fa:	069a      	lsls	r2, r3, #26
  4054fc:	f140 84a1 	bpl.w	405e42 <_svfprintf_r+0xf02>
  405500:	990b      	ldr	r1, [sp, #44]	; 0x2c
  405502:	9a0e      	ldr	r2, [sp, #56]	; 0x38
  405504:	ea4f 79e1 	mov.w	r9, r1, asr #31
  405508:	6813      	ldr	r3, [r2, #0]
  40550a:	4608      	mov	r0, r1
  40550c:	4688      	mov	r8, r1
  40550e:	3204      	adds	r2, #4
  405510:	4649      	mov	r1, r9
  405512:	920e      	str	r2, [sp, #56]	; 0x38
  405514:	e9c3 0100 	strd	r0, r1, [r3]
  405518:	e537      	b.n	404f8a <_svfprintf_r+0x4a>
  40551a:	9a0e      	ldr	r2, [sp, #56]	; 0x38
  40551c:	930a      	str	r3, [sp, #40]	; 0x28
  40551e:	6813      	ldr	r3, [r2, #0]
  405520:	9310      	str	r3, [sp, #64]	; 0x40
  405522:	f04f 0b00 	mov.w	fp, #0
  405526:	f88d b06f 	strb.w	fp, [sp, #111]	; 0x6f
  40552a:	f102 0904 	add.w	r9, r2, #4
  40552e:	2b00      	cmp	r3, #0
  405530:	f000 863b 	beq.w	4061aa <_svfprintf_r+0x126a>
  405534:	f1ba 0f00 	cmp.w	sl, #0
  405538:	9810      	ldr	r0, [sp, #64]	; 0x40
  40553a:	f2c0 85e9 	blt.w	406110 <_svfprintf_r+0x11d0>
  40553e:	4659      	mov	r1, fp
  405540:	4652      	mov	r2, sl
  405542:	f002 fb09 	bl	407b58 <memchr>
  405546:	2800      	cmp	r0, #0
  405548:	f000 866c 	beq.w	406224 <_svfprintf_r+0x12e4>
  40554c:	9b10      	ldr	r3, [sp, #64]	; 0x40
  40554e:	f8cd b044 	str.w	fp, [sp, #68]	; 0x44
  405552:	1ac3      	subs	r3, r0, r3
  405554:	930d      	str	r3, [sp, #52]	; 0x34
  405556:	f8cd 9038 	str.w	r9, [sp, #56]	; 0x38
  40555a:	ea23 73e3 	bic.w	r3, r3, r3, asr #31
  40555e:	9309      	str	r3, [sp, #36]	; 0x24
  405560:	f8cd b048 	str.w	fp, [sp, #72]	; 0x48
  405564:	f89d c06f 	ldrb.w	ip, [sp, #111]	; 0x6f
  405568:	e60a      	b.n	405180 <_svfprintf_r+0x240>
  40556a:	f1a5 0030 	sub.w	r0, r5, #48	; 0x30
  40556e:	2100      	movs	r1, #0
  405570:	f813 5b01 	ldrb.w	r5, [r3], #1
  405574:	eb01 0181 	add.w	r1, r1, r1, lsl #2
  405578:	eb00 0141 	add.w	r1, r0, r1, lsl #1
  40557c:	f1a5 0030 	sub.w	r0, r5, #48	; 0x30
  405580:	2809      	cmp	r0, #9
  405582:	d9f5      	bls.n	405570 <_svfprintf_r+0x630>
  405584:	910c      	str	r1, [sp, #48]	; 0x30
  405586:	e52f      	b.n	404fe8 <_svfprintf_r+0xa8>
  405588:	930a      	str	r3, [sp, #40]	; 0x28
  40558a:	9b07      	ldr	r3, [sp, #28]
  40558c:	f88d 206f 	strb.w	r2, [sp, #111]	; 0x6f
  405590:	f043 0310 	orr.w	r3, r3, #16
  405594:	9307      	str	r3, [sp, #28]
  405596:	9b07      	ldr	r3, [sp, #28]
  405598:	069b      	lsls	r3, r3, #26
  40559a:	f53f af5f 	bmi.w	40545c <_svfprintf_r+0x51c>
  40559e:	9b07      	ldr	r3, [sp, #28]
  4055a0:	06d8      	lsls	r0, r3, #27
  4055a2:	f100 8368 	bmi.w	405c76 <_svfprintf_r+0xd36>
  4055a6:	9b07      	ldr	r3, [sp, #28]
  4055a8:	0659      	lsls	r1, r3, #25
  4055aa:	f140 8364 	bpl.w	405c76 <_svfprintf_r+0xd36>
  4055ae:	990e      	ldr	r1, [sp, #56]	; 0x38
  4055b0:	f9b1 8000 	ldrsh.w	r8, [r1]
  4055b4:	3104      	adds	r1, #4
  4055b6:	ea4f 79e8 	mov.w	r9, r8, asr #31
  4055ba:	4642      	mov	r2, r8
  4055bc:	464b      	mov	r3, r9
  4055be:	910e      	str	r1, [sp, #56]	; 0x38
  4055c0:	e758      	b.n	405474 <_svfprintf_r+0x534>
  4055c2:	781d      	ldrb	r5, [r3, #0]
  4055c4:	9907      	ldr	r1, [sp, #28]
  4055c6:	2d6c      	cmp	r5, #108	; 0x6c
  4055c8:	f000 84cb 	beq.w	405f62 <_svfprintf_r+0x1022>
  4055cc:	f041 0110 	orr.w	r1, r1, #16
  4055d0:	9107      	str	r1, [sp, #28]
  4055d2:	4619      	mov	r1, r3
  4055d4:	e507      	b.n	404fe6 <_svfprintf_r+0xa6>
  4055d6:	9d0e      	ldr	r5, [sp, #56]	; 0x38
  4055d8:	6829      	ldr	r1, [r5, #0]
  4055da:	910c      	str	r1, [sp, #48]	; 0x30
  4055dc:	4608      	mov	r0, r1
  4055de:	2800      	cmp	r0, #0
  4055e0:	4629      	mov	r1, r5
  4055e2:	f101 0104 	add.w	r1, r1, #4
  4055e6:	f2c0 84b5 	blt.w	405f54 <_svfprintf_r+0x1014>
  4055ea:	910e      	str	r1, [sp, #56]	; 0x38
  4055ec:	781d      	ldrb	r5, [r3, #0]
  4055ee:	4619      	mov	r1, r3
  4055f0:	e4f9      	b.n	404fe6 <_svfprintf_r+0xa6>
  4055f2:	9907      	ldr	r1, [sp, #28]
  4055f4:	f041 0140 	orr.w	r1, r1, #64	; 0x40
  4055f8:	9107      	str	r1, [sp, #28]
  4055fa:	781d      	ldrb	r5, [r3, #0]
  4055fc:	4619      	mov	r1, r3
  4055fe:	e4f2      	b.n	404fe6 <_svfprintf_r+0xa6>
  405600:	930a      	str	r3, [sp, #40]	; 0x28
  405602:	9b07      	ldr	r3, [sp, #28]
  405604:	f043 0310 	orr.w	r3, r3, #16
  405608:	9307      	str	r3, [sp, #28]
  40560a:	9b07      	ldr	r3, [sp, #28]
  40560c:	f013 0320 	ands.w	r3, r3, #32
  405610:	f47f aef2 	bne.w	4053f8 <_svfprintf_r+0x4b8>
  405614:	9a07      	ldr	r2, [sp, #28]
  405616:	f012 0210 	ands.w	r2, r2, #16
  40561a:	f040 8319 	bne.w	405c50 <_svfprintf_r+0xd10>
  40561e:	9b07      	ldr	r3, [sp, #28]
  405620:	f013 0340 	ands.w	r3, r3, #64	; 0x40
  405624:	f000 8314 	beq.w	405c50 <_svfprintf_r+0xd10>
  405628:	990e      	ldr	r1, [sp, #56]	; 0x38
  40562a:	4613      	mov	r3, r2
  40562c:	460a      	mov	r2, r1
  40562e:	3204      	adds	r2, #4
  405630:	f8b1 8000 	ldrh.w	r8, [r1]
  405634:	920e      	str	r2, [sp, #56]	; 0x38
  405636:	f04f 0900 	mov.w	r9, #0
  40563a:	e566      	b.n	40510a <_svfprintf_r+0x1ca>
  40563c:	930a      	str	r3, [sp, #40]	; 0x28
  40563e:	9b07      	ldr	r3, [sp, #28]
  405640:	f043 0310 	orr.w	r3, r3, #16
  405644:	9307      	str	r3, [sp, #28]
  405646:	9b07      	ldr	r3, [sp, #28]
  405648:	0698      	lsls	r0, r3, #26
  40564a:	f53f ad53 	bmi.w	4050f4 <_svfprintf_r+0x1b4>
  40564e:	9b07      	ldr	r3, [sp, #28]
  405650:	06d9      	lsls	r1, r3, #27
  405652:	f100 8306 	bmi.w	405c62 <_svfprintf_r+0xd22>
  405656:	9b07      	ldr	r3, [sp, #28]
  405658:	065a      	lsls	r2, r3, #25
  40565a:	f140 8302 	bpl.w	405c62 <_svfprintf_r+0xd22>
  40565e:	9a0e      	ldr	r2, [sp, #56]	; 0x38
  405660:	f8b2 8000 	ldrh.w	r8, [r2]
  405664:	3204      	adds	r2, #4
  405666:	f04f 0900 	mov.w	r9, #0
  40566a:	2301      	movs	r3, #1
  40566c:	920e      	str	r2, [sp, #56]	; 0x38
  40566e:	e54c      	b.n	40510a <_svfprintf_r+0x1ca>
  405670:	930a      	str	r3, [sp, #40]	; 0x28
  405672:	4b23      	ldr	r3, [pc, #140]	; (405700 <_svfprintf_r+0x7c0>)
  405674:	9316      	str	r3, [sp, #88]	; 0x58
  405676:	9b07      	ldr	r3, [sp, #28]
  405678:	f88d 206f 	strb.w	r2, [sp, #111]	; 0x6f
  40567c:	069b      	lsls	r3, r3, #26
  40567e:	f53f af0d 	bmi.w	40549c <_svfprintf_r+0x55c>
  405682:	9b07      	ldr	r3, [sp, #28]
  405684:	06d8      	lsls	r0, r3, #27
  405686:	f140 83cd 	bpl.w	405e24 <_svfprintf_r+0xee4>
  40568a:	9a0e      	ldr	r2, [sp, #56]	; 0x38
  40568c:	4613      	mov	r3, r2
  40568e:	681b      	ldr	r3, [r3, #0]
  405690:	4698      	mov	r8, r3
  405692:	9b07      	ldr	r3, [sp, #28]
  405694:	3204      	adds	r2, #4
  405696:	07d9      	lsls	r1, r3, #31
  405698:	920e      	str	r2, [sp, #56]	; 0x38
  40569a:	f04f 0900 	mov.w	r9, #0
  40569e:	f53f af0b 	bmi.w	4054b8 <_svfprintf_r+0x578>
  4056a2:	2302      	movs	r3, #2
  4056a4:	e531      	b.n	40510a <_svfprintf_r+0x1ca>
  4056a6:	990e      	ldr	r1, [sp, #56]	; 0x38
  4056a8:	930a      	str	r3, [sp, #40]	; 0x28
  4056aa:	680a      	ldr	r2, [r1, #0]
  4056ac:	f88d 2098 	strb.w	r2, [sp, #152]	; 0x98
  4056b0:	2300      	movs	r3, #0
  4056b2:	2201      	movs	r2, #1
  4056b4:	3104      	adds	r1, #4
  4056b6:	469c      	mov	ip, r3
  4056b8:	9209      	str	r2, [sp, #36]	; 0x24
  4056ba:	910e      	str	r1, [sp, #56]	; 0x38
  4056bc:	f88d 306f 	strb.w	r3, [sp, #111]	; 0x6f
  4056c0:	ab26      	add	r3, sp, #152	; 0x98
  4056c2:	f8cd c044 	str.w	ip, [sp, #68]	; 0x44
  4056c6:	f8cd c048 	str.w	ip, [sp, #72]	; 0x48
  4056ca:	920d      	str	r2, [sp, #52]	; 0x34
  4056cc:	9310      	str	r3, [sp, #64]	; 0x40
  4056ce:	e55d      	b.n	40518c <_svfprintf_r+0x24c>
  4056d0:	9907      	ldr	r1, [sp, #28]
  4056d2:	f041 0108 	orr.w	r1, r1, #8
  4056d6:	9107      	str	r1, [sp, #28]
  4056d8:	781d      	ldrb	r5, [r3, #0]
  4056da:	4619      	mov	r1, r3
  4056dc:	e483      	b.n	404fe6 <_svfprintf_r+0xa6>
  4056de:	9907      	ldr	r1, [sp, #28]
  4056e0:	f041 0101 	orr.w	r1, r1, #1
  4056e4:	9107      	str	r1, [sp, #28]
  4056e6:	781d      	ldrb	r5, [r3, #0]
  4056e8:	4619      	mov	r1, r3
  4056ea:	e47c      	b.n	404fe6 <_svfprintf_r+0xa6>
  4056ec:	9907      	ldr	r1, [sp, #28]
  4056ee:	f041 0180 	orr.w	r1, r1, #128	; 0x80
  4056f2:	9107      	str	r1, [sp, #28]
  4056f4:	781d      	ldrb	r5, [r3, #0]
  4056f6:	4619      	mov	r1, r3
  4056f8:	e475      	b.n	404fe6 <_svfprintf_r+0xa6>
  4056fa:	bf00      	nop
  4056fc:	004099a4 	.word	0x004099a4
  405700:	00409990 	.word	0x00409990
  405704:	00409970 	.word	0x00409970
  405708:	00409960 	.word	0x00409960
  40570c:	930a      	str	r3, [sp, #40]	; 0x28
  40570e:	9b0e      	ldr	r3, [sp, #56]	; 0x38
  405710:	f88d 206f 	strb.w	r2, [sp, #111]	; 0x6f
  405714:	f103 0907 	add.w	r9, r3, #7
  405718:	f029 0307 	bic.w	r3, r9, #7
  40571c:	f103 0208 	add.w	r2, r3, #8
  405720:	920e      	str	r2, [sp, #56]	; 0x38
  405722:	681a      	ldr	r2, [r3, #0]
  405724:	9214      	str	r2, [sp, #80]	; 0x50
  405726:	685b      	ldr	r3, [r3, #4]
  405728:	9315      	str	r3, [sp, #84]	; 0x54
  40572a:	9915      	ldr	r1, [sp, #84]	; 0x54
  40572c:	9814      	ldr	r0, [sp, #80]	; 0x50
  40572e:	f003 f849 	bl	4087c4 <__fpclassifyd>
  405732:	2801      	cmp	r0, #1
  405734:	46d3      	mov	fp, sl
  405736:	9814      	ldr	r0, [sp, #80]	; 0x50
  405738:	9915      	ldr	r1, [sp, #84]	; 0x54
  40573a:	f040 8359 	bne.w	405df0 <_svfprintf_r+0xeb0>
  40573e:	2200      	movs	r2, #0
  405740:	2300      	movs	r3, #0
  405742:	f7fe fff5 	bl	404730 <__aeabi_dcmplt>
  405746:	2800      	cmp	r0, #0
  405748:	f040 8564 	bne.w	406214 <_svfprintf_r+0x12d4>
  40574c:	f89d c06f 	ldrb.w	ip, [sp, #111]	; 0x6f
  405750:	9b07      	ldr	r3, [sp, #28]
  405752:	4abe      	ldr	r2, [pc, #760]	; (405a4c <_svfprintf_r+0xb0c>)
  405754:	f8df e300 	ldr.w	lr, [pc, #768]	; 405a58 <_svfprintf_r+0xb18>
  405758:	f023 0380 	bic.w	r3, r3, #128	; 0x80
  40575c:	9307      	str	r3, [sp, #28]
  40575e:	4613      	mov	r3, r2
  405760:	2103      	movs	r1, #3
  405762:	2000      	movs	r0, #0
  405764:	2d47      	cmp	r5, #71	; 0x47
  405766:	bfd8      	it	le
  405768:	4673      	movle	r3, lr
  40576a:	9109      	str	r1, [sp, #36]	; 0x24
  40576c:	9011      	str	r0, [sp, #68]	; 0x44
  40576e:	9310      	str	r3, [sp, #64]	; 0x40
  405770:	910d      	str	r1, [sp, #52]	; 0x34
  405772:	9012      	str	r0, [sp, #72]	; 0x48
  405774:	e504      	b.n	405180 <_svfprintf_r+0x240>
  405776:	980e      	ldr	r0, [sp, #56]	; 0x38
  405778:	9907      	ldr	r1, [sp, #28]
  40577a:	930a      	str	r3, [sp, #40]	; 0x28
  40577c:	2230      	movs	r2, #48	; 0x30
  40577e:	6803      	ldr	r3, [r0, #0]
  405780:	f88d 2070 	strb.w	r2, [sp, #112]	; 0x70
  405784:	4602      	mov	r2, r0
  405786:	2578      	movs	r5, #120	; 0x78
  405788:	f041 0102 	orr.w	r1, r1, #2
  40578c:	3204      	adds	r2, #4
  40578e:	4698      	mov	r8, r3
  405790:	4baf      	ldr	r3, [pc, #700]	; (405a50 <_svfprintf_r+0xb10>)
  405792:	9316      	str	r3, [sp, #88]	; 0x58
  405794:	9107      	str	r1, [sp, #28]
  405796:	920e      	str	r2, [sp, #56]	; 0x38
  405798:	f04f 0900 	mov.w	r9, #0
  40579c:	f88d 5071 	strb.w	r5, [sp, #113]	; 0x71
  4057a0:	2302      	movs	r3, #2
  4057a2:	e4b2      	b.n	40510a <_svfprintf_r+0x1ca>
  4057a4:	930a      	str	r3, [sp, #40]	; 0x28
  4057a6:	f88d 206f 	strb.w	r2, [sp, #111]	; 0x6f
  4057aa:	2d00      	cmp	r5, #0
  4057ac:	f000 83c6 	beq.w	405f3c <_svfprintf_r+0xffc>
  4057b0:	2300      	movs	r3, #0
  4057b2:	2201      	movs	r2, #1
  4057b4:	469c      	mov	ip, r3
  4057b6:	9209      	str	r2, [sp, #36]	; 0x24
  4057b8:	f88d 5098 	strb.w	r5, [sp, #152]	; 0x98
  4057bc:	e77e      	b.n	4056bc <_svfprintf_r+0x77c>
  4057be:	f8dd b094 	ldr.w	fp, [sp, #148]	; 0x94
  4057c2:	e539      	b.n	405238 <_svfprintf_r+0x2f8>
  4057c4:	2b01      	cmp	r3, #1
  4057c6:	f47f acb8 	bne.w	40513a <_svfprintf_r+0x1fa>
  4057ca:	f1b9 0f00 	cmp.w	r9, #0
  4057ce:	bf08      	it	eq
  4057d0:	f1b8 0f0a 	cmpeq.w	r8, #10
  4057d4:	f080 821c 	bcs.w	405c10 <_svfprintf_r+0xcd0>
  4057d8:	f50d 7b80 	add.w	fp, sp, #256	; 0x100
  4057dc:	f108 0830 	add.w	r8, r8, #48	; 0x30
  4057e0:	f80b 8d41 	strb.w	r8, [fp, #-65]!
  4057e4:	ebcb 0307 	rsb	r3, fp, r7
  4057e8:	930d      	str	r3, [sp, #52]	; 0x34
  4057ea:	f8cd b040 	str.w	fp, [sp, #64]	; 0x40
  4057ee:	e4bf      	b.n	405170 <_svfprintf_r+0x230>
  4057f0:	2d65      	cmp	r5, #101	; 0x65
  4057f2:	f340 80a0 	ble.w	405936 <_svfprintf_r+0x9f6>
  4057f6:	9814      	ldr	r0, [sp, #80]	; 0x50
  4057f8:	9915      	ldr	r1, [sp, #84]	; 0x54
  4057fa:	2200      	movs	r2, #0
  4057fc:	2300      	movs	r3, #0
  4057fe:	f7fe ff8d 	bl	40471c <__aeabi_dcmpeq>
  405802:	2800      	cmp	r0, #0
  405804:	f000 8145 	beq.w	405a92 <_svfprintf_r+0xb52>
  405808:	9b24      	ldr	r3, [sp, #144]	; 0x90
  40580a:	4a92      	ldr	r2, [pc, #584]	; (405a54 <_svfprintf_r+0xb14>)
  40580c:	6022      	str	r2, [r4, #0]
  40580e:	3301      	adds	r3, #1
  405810:	f10b 0b01 	add.w	fp, fp, #1
  405814:	2201      	movs	r2, #1
  405816:	2b07      	cmp	r3, #7
  405818:	f8cd b094 	str.w	fp, [sp, #148]	; 0x94
  40581c:	9324      	str	r3, [sp, #144]	; 0x90
  40581e:	6062      	str	r2, [r4, #4]
  405820:	f300 8334 	bgt.w	405e8c <_svfprintf_r+0xf4c>
  405824:	3408      	adds	r4, #8
  405826:	9b1d      	ldr	r3, [sp, #116]	; 0x74
  405828:	9a13      	ldr	r2, [sp, #76]	; 0x4c
  40582a:	4293      	cmp	r3, r2
  40582c:	db03      	blt.n	405836 <_svfprintf_r+0x8f6>
  40582e:	9b07      	ldr	r3, [sp, #28]
  405830:	07da      	lsls	r2, r3, #31
  405832:	f57f ad7f 	bpl.w	405334 <_svfprintf_r+0x3f4>
  405836:	9b24      	ldr	r3, [sp, #144]	; 0x90
  405838:	9918      	ldr	r1, [sp, #96]	; 0x60
  40583a:	9a17      	ldr	r2, [sp, #92]	; 0x5c
  40583c:	6022      	str	r2, [r4, #0]
  40583e:	3301      	adds	r3, #1
  405840:	448b      	add	fp, r1
  405842:	2b07      	cmp	r3, #7
  405844:	f8cd b094 	str.w	fp, [sp, #148]	; 0x94
  405848:	6061      	str	r1, [r4, #4]
  40584a:	9324      	str	r3, [sp, #144]	; 0x90
  40584c:	f300 8390 	bgt.w	405f70 <_svfprintf_r+0x1030>
  405850:	3408      	adds	r4, #8
  405852:	9b13      	ldr	r3, [sp, #76]	; 0x4c
  405854:	1e5d      	subs	r5, r3, #1
  405856:	2d00      	cmp	r5, #0
  405858:	f77f ad6c 	ble.w	405334 <_svfprintf_r+0x3f4>
  40585c:	2d10      	cmp	r5, #16
  40585e:	9b24      	ldr	r3, [sp, #144]	; 0x90
  405860:	f8df 91f8 	ldr.w	r9, [pc, #504]	; 405a5c <_svfprintf_r+0xb1c>
  405864:	f340 81ba 	ble.w	405bdc <_svfprintf_r+0xc9c>
  405868:	f04f 0810 	mov.w	r8, #16
  40586c:	465a      	mov	r2, fp
  40586e:	f8dd a020 	ldr.w	sl, [sp, #32]
  405872:	e004      	b.n	40587e <_svfprintf_r+0x93e>
  405874:	3408      	adds	r4, #8
  405876:	3d10      	subs	r5, #16
  405878:	2d10      	cmp	r5, #16
  40587a:	f340 81ae 	ble.w	405bda <_svfprintf_r+0xc9a>
  40587e:	3301      	adds	r3, #1
  405880:	3210      	adds	r2, #16
  405882:	2b07      	cmp	r3, #7
  405884:	9225      	str	r2, [sp, #148]	; 0x94
  405886:	9324      	str	r3, [sp, #144]	; 0x90
  405888:	f8c4 9000 	str.w	r9, [r4]
  40588c:	f8c4 8004 	str.w	r8, [r4, #4]
  405890:	ddf0      	ble.n	405874 <_svfprintf_r+0x934>
  405892:	4650      	mov	r0, sl
  405894:	4631      	mov	r1, r6
  405896:	aa23      	add	r2, sp, #140	; 0x8c
  405898:	f002 ffd2 	bl	408840 <__ssprint_r>
  40589c:	2800      	cmp	r0, #0
  40589e:	f47f ac15 	bne.w	4050cc <_svfprintf_r+0x18c>
  4058a2:	9a25      	ldr	r2, [sp, #148]	; 0x94
  4058a4:	9b24      	ldr	r3, [sp, #144]	; 0x90
  4058a6:	463c      	mov	r4, r7
  4058a8:	e7e5      	b.n	405876 <_svfprintf_r+0x936>
  4058aa:	9b0c      	ldr	r3, [sp, #48]	; 0x30
  4058ac:	9a09      	ldr	r2, [sp, #36]	; 0x24
  4058ae:	ebc2 0a03 	rsb	sl, r2, r3
  4058b2:	f1ba 0f00 	cmp.w	sl, #0
  4058b6:	f77f ace7 	ble.w	405288 <_svfprintf_r+0x348>
  4058ba:	f1ba 0f10 	cmp.w	sl, #16
  4058be:	9a24      	ldr	r2, [sp, #144]	; 0x90
  4058c0:	f8df 9198 	ldr.w	r9, [pc, #408]	; 405a5c <_svfprintf_r+0xb1c>
  4058c4:	dd2b      	ble.n	40591e <_svfprintf_r+0x9de>
  4058c6:	4649      	mov	r1, r9
  4058c8:	465b      	mov	r3, fp
  4058ca:	46a9      	mov	r9, r5
  4058cc:	f04f 0810 	mov.w	r8, #16
  4058d0:	f8dd b020 	ldr.w	fp, [sp, #32]
  4058d4:	460d      	mov	r5, r1
  4058d6:	e006      	b.n	4058e6 <_svfprintf_r+0x9a6>
  4058d8:	f1aa 0a10 	sub.w	sl, sl, #16
  4058dc:	f1ba 0f10 	cmp.w	sl, #16
  4058e0:	f104 0408 	add.w	r4, r4, #8
  4058e4:	dd17      	ble.n	405916 <_svfprintf_r+0x9d6>
  4058e6:	3201      	adds	r2, #1
  4058e8:	3310      	adds	r3, #16
  4058ea:	2a07      	cmp	r2, #7
  4058ec:	9325      	str	r3, [sp, #148]	; 0x94
  4058ee:	9224      	str	r2, [sp, #144]	; 0x90
  4058f0:	e884 0120 	stmia.w	r4, {r5, r8}
  4058f4:	ddf0      	ble.n	4058d8 <_svfprintf_r+0x998>
  4058f6:	4658      	mov	r0, fp
  4058f8:	4631      	mov	r1, r6
  4058fa:	aa23      	add	r2, sp, #140	; 0x8c
  4058fc:	f002 ffa0 	bl	408840 <__ssprint_r>
  405900:	2800      	cmp	r0, #0
  405902:	f47f abe3 	bne.w	4050cc <_svfprintf_r+0x18c>
  405906:	f1aa 0a10 	sub.w	sl, sl, #16
  40590a:	f1ba 0f10 	cmp.w	sl, #16
  40590e:	9b25      	ldr	r3, [sp, #148]	; 0x94
  405910:	9a24      	ldr	r2, [sp, #144]	; 0x90
  405912:	463c      	mov	r4, r7
  405914:	dce7      	bgt.n	4058e6 <_svfprintf_r+0x9a6>
  405916:	469b      	mov	fp, r3
  405918:	462b      	mov	r3, r5
  40591a:	464d      	mov	r5, r9
  40591c:	4699      	mov	r9, r3
  40591e:	3201      	adds	r2, #1
  405920:	44d3      	add	fp, sl
  405922:	2a07      	cmp	r2, #7
  405924:	f8cd b094 	str.w	fp, [sp, #148]	; 0x94
  405928:	9224      	str	r2, [sp, #144]	; 0x90
  40592a:	e884 0600 	stmia.w	r4, {r9, sl}
  40592e:	f300 8252 	bgt.w	405dd6 <_svfprintf_r+0xe96>
  405932:	3408      	adds	r4, #8
  405934:	e4a8      	b.n	405288 <_svfprintf_r+0x348>
  405936:	9b13      	ldr	r3, [sp, #76]	; 0x4c
  405938:	9d24      	ldr	r5, [sp, #144]	; 0x90
  40593a:	2b01      	cmp	r3, #1
  40593c:	f340 8220 	ble.w	405d80 <_svfprintf_r+0xe40>
  405940:	9b10      	ldr	r3, [sp, #64]	; 0x40
  405942:	6023      	str	r3, [r4, #0]
  405944:	3501      	adds	r5, #1
  405946:	f10b 0301 	add.w	r3, fp, #1
  40594a:	2201      	movs	r2, #1
  40594c:	2d07      	cmp	r5, #7
  40594e:	9325      	str	r3, [sp, #148]	; 0x94
  405950:	9524      	str	r5, [sp, #144]	; 0x90
  405952:	6062      	str	r2, [r4, #4]
  405954:	f300 8226 	bgt.w	405da4 <_svfprintf_r+0xe64>
  405958:	3408      	adds	r4, #8
  40595a:	9918      	ldr	r1, [sp, #96]	; 0x60
  40595c:	6061      	str	r1, [r4, #4]
  40595e:	3501      	adds	r5, #1
  405960:	eb03 0b01 	add.w	fp, r3, r1
  405964:	2d07      	cmp	r5, #7
  405966:	9b17      	ldr	r3, [sp, #92]	; 0x5c
  405968:	f8cd b094 	str.w	fp, [sp, #148]	; 0x94
  40596c:	9524      	str	r5, [sp, #144]	; 0x90
  40596e:	6023      	str	r3, [r4, #0]
  405970:	f300 8224 	bgt.w	405dbc <_svfprintf_r+0xe7c>
  405974:	3408      	adds	r4, #8
  405976:	2300      	movs	r3, #0
  405978:	9814      	ldr	r0, [sp, #80]	; 0x50
  40597a:	9915      	ldr	r1, [sp, #84]	; 0x54
  40597c:	2200      	movs	r2, #0
  40597e:	f7fe fecd 	bl	40471c <__aeabi_dcmpeq>
  405982:	9b13      	ldr	r3, [sp, #76]	; 0x4c
  405984:	2800      	cmp	r0, #0
  405986:	f040 80de 	bne.w	405b46 <_svfprintf_r+0xc06>
  40598a:	9a10      	ldr	r2, [sp, #64]	; 0x40
  40598c:	3b01      	subs	r3, #1
  40598e:	3501      	adds	r5, #1
  405990:	3201      	adds	r2, #1
  405992:	449b      	add	fp, r3
  405994:	2d07      	cmp	r5, #7
  405996:	9524      	str	r5, [sp, #144]	; 0x90
  405998:	f8cd b094 	str.w	fp, [sp, #148]	; 0x94
  40599c:	6022      	str	r2, [r4, #0]
  40599e:	6063      	str	r3, [r4, #4]
  4059a0:	f300 810e 	bgt.w	405bc0 <_svfprintf_r+0xc80>
  4059a4:	3408      	adds	r4, #8
  4059a6:	9a19      	ldr	r2, [sp, #100]	; 0x64
  4059a8:	6062      	str	r2, [r4, #4]
  4059aa:	3501      	adds	r5, #1
  4059ac:	4493      	add	fp, r2
  4059ae:	ab1f      	add	r3, sp, #124	; 0x7c
  4059b0:	2d07      	cmp	r5, #7
  4059b2:	f8cd b094 	str.w	fp, [sp, #148]	; 0x94
  4059b6:	9524      	str	r5, [sp, #144]	; 0x90
  4059b8:	6023      	str	r3, [r4, #0]
  4059ba:	f77f acba 	ble.w	405332 <_svfprintf_r+0x3f2>
  4059be:	9808      	ldr	r0, [sp, #32]
  4059c0:	4631      	mov	r1, r6
  4059c2:	aa23      	add	r2, sp, #140	; 0x8c
  4059c4:	f002 ff3c 	bl	408840 <__ssprint_r>
  4059c8:	2800      	cmp	r0, #0
  4059ca:	f47f ab7f 	bne.w	4050cc <_svfprintf_r+0x18c>
  4059ce:	f8dd b094 	ldr.w	fp, [sp, #148]	; 0x94
  4059d2:	463c      	mov	r4, r7
  4059d4:	e4ae      	b.n	405334 <_svfprintf_r+0x3f4>
  4059d6:	2b00      	cmp	r3, #0
  4059d8:	d132      	bne.n	405a40 <_svfprintf_r+0xb00>
  4059da:	9b07      	ldr	r3, [sp, #28]
  4059dc:	07d8      	lsls	r0, r3, #31
  4059de:	d52f      	bpl.n	405a40 <_svfprintf_r+0xb00>
  4059e0:	f50d 7b80 	add.w	fp, sp, #256	; 0x100
  4059e4:	2330      	movs	r3, #48	; 0x30
  4059e6:	f80b 3d41 	strb.w	r3, [fp, #-65]!
  4059ea:	ebcb 0307 	rsb	r3, fp, r7
  4059ee:	930d      	str	r3, [sp, #52]	; 0x34
  4059f0:	f8cd b040 	str.w	fp, [sp, #64]	; 0x40
  4059f4:	f7ff bbbc 	b.w	405170 <_svfprintf_r+0x230>
  4059f8:	9808      	ldr	r0, [sp, #32]
  4059fa:	4631      	mov	r1, r6
  4059fc:	aa23      	add	r2, sp, #140	; 0x8c
  4059fe:	f002 ff1f 	bl	408840 <__ssprint_r>
  405a02:	2800      	cmp	r0, #0
  405a04:	f47f ab62 	bne.w	4050cc <_svfprintf_r+0x18c>
  405a08:	f8dd b094 	ldr.w	fp, [sp, #148]	; 0x94
  405a0c:	463c      	mov	r4, r7
  405a0e:	e47f      	b.n	405310 <_svfprintf_r+0x3d0>
  405a10:	9808      	ldr	r0, [sp, #32]
  405a12:	4631      	mov	r1, r6
  405a14:	aa23      	add	r2, sp, #140	; 0x8c
  405a16:	f002 ff13 	bl	408840 <__ssprint_r>
  405a1a:	2800      	cmp	r0, #0
  405a1c:	f47f ab56 	bne.w	4050cc <_svfprintf_r+0x18c>
  405a20:	f8dd b094 	ldr.w	fp, [sp, #148]	; 0x94
  405a24:	463c      	mov	r4, r7
  405a26:	e41a      	b.n	40525e <_svfprintf_r+0x31e>
  405a28:	9808      	ldr	r0, [sp, #32]
  405a2a:	4631      	mov	r1, r6
  405a2c:	aa23      	add	r2, sp, #140	; 0x8c
  405a2e:	f002 ff07 	bl	408840 <__ssprint_r>
  405a32:	2800      	cmp	r0, #0
  405a34:	f47f ab4a 	bne.w	4050cc <_svfprintf_r+0x18c>
  405a38:	f8dd b094 	ldr.w	fp, [sp, #148]	; 0x94
  405a3c:	463c      	mov	r4, r7
  405a3e:	e41f      	b.n	405280 <_svfprintf_r+0x340>
  405a40:	f8cd a034 	str.w	sl, [sp, #52]	; 0x34
  405a44:	9710      	str	r7, [sp, #64]	; 0x40
  405a46:	f7ff bb93 	b.w	405170 <_svfprintf_r+0x230>
  405a4a:	bf00      	nop
  405a4c:	00409984 	.word	0x00409984
  405a50:	004099a4 	.word	0x004099a4
  405a54:	004099c0 	.word	0x004099c0
  405a58:	00409980 	.word	0x00409980
  405a5c:	00409960 	.word	0x00409960
  405a60:	9816      	ldr	r0, [sp, #88]	; 0x58
  405a62:	46bb      	mov	fp, r7
  405a64:	ea4f 1318 	mov.w	r3, r8, lsr #4
  405a68:	f008 010f 	and.w	r1, r8, #15
  405a6c:	ea43 7309 	orr.w	r3, r3, r9, lsl #28
  405a70:	ea4f 1219 	mov.w	r2, r9, lsr #4
  405a74:	4698      	mov	r8, r3
  405a76:	4691      	mov	r9, r2
  405a78:	5c43      	ldrb	r3, [r0, r1]
  405a7a:	f80b 3d01 	strb.w	r3, [fp, #-1]!
  405a7e:	ea58 0309 	orrs.w	r3, r8, r9
  405a82:	d1ef      	bne.n	405a64 <_svfprintf_r+0xb24>
  405a84:	465b      	mov	r3, fp
  405a86:	f8cd b040 	str.w	fp, [sp, #64]	; 0x40
  405a8a:	1afb      	subs	r3, r7, r3
  405a8c:	930d      	str	r3, [sp, #52]	; 0x34
  405a8e:	f7ff bb6f 	b.w	405170 <_svfprintf_r+0x230>
  405a92:	9d1d      	ldr	r5, [sp, #116]	; 0x74
  405a94:	2d00      	cmp	r5, #0
  405a96:	f340 8205 	ble.w	405ea4 <_svfprintf_r+0xf64>
  405a9a:	9a13      	ldr	r2, [sp, #76]	; 0x4c
  405a9c:	9912      	ldr	r1, [sp, #72]	; 0x48
  405a9e:	428a      	cmp	r2, r1
  405aa0:	4613      	mov	r3, r2
  405aa2:	bfa8      	it	ge
  405aa4:	460b      	movge	r3, r1
  405aa6:	461d      	mov	r5, r3
  405aa8:	9910      	ldr	r1, [sp, #64]	; 0x40
  405aaa:	2d00      	cmp	r5, #0
  405aac:	eb01 0a02 	add.w	sl, r1, r2
  405ab0:	dd0b      	ble.n	405aca <_svfprintf_r+0xb8a>
  405ab2:	9b24      	ldr	r3, [sp, #144]	; 0x90
  405ab4:	6021      	str	r1, [r4, #0]
  405ab6:	3301      	adds	r3, #1
  405ab8:	44ab      	add	fp, r5
  405aba:	2b07      	cmp	r3, #7
  405abc:	f8cd b094 	str.w	fp, [sp, #148]	; 0x94
  405ac0:	6065      	str	r5, [r4, #4]
  405ac2:	9324      	str	r3, [sp, #144]	; 0x90
  405ac4:	f300 834d 	bgt.w	406162 <_svfprintf_r+0x1222>
  405ac8:	3408      	adds	r4, #8
  405aca:	9b12      	ldr	r3, [sp, #72]	; 0x48
  405acc:	2d00      	cmp	r5, #0
  405ace:	bfa8      	it	ge
  405ad0:	1b5b      	subge	r3, r3, r5
  405ad2:	2b00      	cmp	r3, #0
  405ad4:	461d      	mov	r5, r3
  405ad6:	f340 80f5 	ble.w	405cc4 <_svfprintf_r+0xd84>
  405ada:	2d10      	cmp	r5, #16
  405adc:	9b24      	ldr	r3, [sp, #144]	; 0x90
  405ade:	f8df 95f4 	ldr.w	r9, [pc, #1524]	; 4060d4 <_svfprintf_r+0x1194>
  405ae2:	f340 81c6 	ble.w	405e72 <_svfprintf_r+0xf32>
  405ae6:	465a      	mov	r2, fp
  405ae8:	f04f 0810 	mov.w	r8, #16
  405aec:	f8dd b020 	ldr.w	fp, [sp, #32]
  405af0:	e004      	b.n	405afc <_svfprintf_r+0xbbc>
  405af2:	3408      	adds	r4, #8
  405af4:	3d10      	subs	r5, #16
  405af6:	2d10      	cmp	r5, #16
  405af8:	f340 81ba 	ble.w	405e70 <_svfprintf_r+0xf30>
  405afc:	3301      	adds	r3, #1
  405afe:	3210      	adds	r2, #16
  405b00:	2b07      	cmp	r3, #7
  405b02:	9225      	str	r2, [sp, #148]	; 0x94
  405b04:	9324      	str	r3, [sp, #144]	; 0x90
  405b06:	f8c4 9000 	str.w	r9, [r4]
  405b0a:	f8c4 8004 	str.w	r8, [r4, #4]
  405b0e:	ddf0      	ble.n	405af2 <_svfprintf_r+0xbb2>
  405b10:	4658      	mov	r0, fp
  405b12:	4631      	mov	r1, r6
  405b14:	aa23      	add	r2, sp, #140	; 0x8c
  405b16:	f002 fe93 	bl	408840 <__ssprint_r>
  405b1a:	2800      	cmp	r0, #0
  405b1c:	f47f aad6 	bne.w	4050cc <_svfprintf_r+0x18c>
  405b20:	9a25      	ldr	r2, [sp, #148]	; 0x94
  405b22:	9b24      	ldr	r3, [sp, #144]	; 0x90
  405b24:	463c      	mov	r4, r7
  405b26:	e7e5      	b.n	405af4 <_svfprintf_r+0xbb4>
  405b28:	9808      	ldr	r0, [sp, #32]
  405b2a:	4631      	mov	r1, r6
  405b2c:	aa23      	add	r2, sp, #140	; 0x8c
  405b2e:	f002 fe87 	bl	408840 <__ssprint_r>
  405b32:	2800      	cmp	r0, #0
  405b34:	f47f aaca 	bne.w	4050cc <_svfprintf_r+0x18c>
  405b38:	f89d c06f 	ldrb.w	ip, [sp, #111]	; 0x6f
  405b3c:	f8dd b094 	ldr.w	fp, [sp, #148]	; 0x94
  405b40:	463c      	mov	r4, r7
  405b42:	f7ff bb79 	b.w	405238 <_svfprintf_r+0x2f8>
  405b46:	f103 38ff 	add.w	r8, r3, #4294967295
  405b4a:	f1b8 0f00 	cmp.w	r8, #0
  405b4e:	f77f af2a 	ble.w	4059a6 <_svfprintf_r+0xa66>
  405b52:	f1b8 0f10 	cmp.w	r8, #16
  405b56:	f8df 957c 	ldr.w	r9, [pc, #1404]	; 4060d4 <_svfprintf_r+0x1194>
  405b5a:	dd25      	ble.n	405ba8 <_svfprintf_r+0xc68>
  405b5c:	465b      	mov	r3, fp
  405b5e:	f04f 0a10 	mov.w	sl, #16
  405b62:	f8dd b020 	ldr.w	fp, [sp, #32]
  405b66:	e006      	b.n	405b76 <_svfprintf_r+0xc36>
  405b68:	f1a8 0810 	sub.w	r8, r8, #16
  405b6c:	f1b8 0f10 	cmp.w	r8, #16
  405b70:	f104 0408 	add.w	r4, r4, #8
  405b74:	dd17      	ble.n	405ba6 <_svfprintf_r+0xc66>
  405b76:	3501      	adds	r5, #1
  405b78:	3310      	adds	r3, #16
  405b7a:	2d07      	cmp	r5, #7
  405b7c:	9325      	str	r3, [sp, #148]	; 0x94
  405b7e:	9524      	str	r5, [sp, #144]	; 0x90
  405b80:	e884 0600 	stmia.w	r4, {r9, sl}
  405b84:	ddf0      	ble.n	405b68 <_svfprintf_r+0xc28>
  405b86:	4658      	mov	r0, fp
  405b88:	4631      	mov	r1, r6
  405b8a:	aa23      	add	r2, sp, #140	; 0x8c
  405b8c:	f002 fe58 	bl	408840 <__ssprint_r>
  405b90:	2800      	cmp	r0, #0
  405b92:	f47f aa9b 	bne.w	4050cc <_svfprintf_r+0x18c>
  405b96:	f1a8 0810 	sub.w	r8, r8, #16
  405b9a:	f1b8 0f10 	cmp.w	r8, #16
  405b9e:	9b25      	ldr	r3, [sp, #148]	; 0x94
  405ba0:	9d24      	ldr	r5, [sp, #144]	; 0x90
  405ba2:	463c      	mov	r4, r7
  405ba4:	dce7      	bgt.n	405b76 <_svfprintf_r+0xc36>
  405ba6:	469b      	mov	fp, r3
  405ba8:	3501      	adds	r5, #1
  405baa:	44c3      	add	fp, r8
  405bac:	2d07      	cmp	r5, #7
  405bae:	f8cd b094 	str.w	fp, [sp, #148]	; 0x94
  405bb2:	9524      	str	r5, [sp, #144]	; 0x90
  405bb4:	f8c4 9000 	str.w	r9, [r4]
  405bb8:	f8c4 8004 	str.w	r8, [r4, #4]
  405bbc:	f77f aef2 	ble.w	4059a4 <_svfprintf_r+0xa64>
  405bc0:	9808      	ldr	r0, [sp, #32]
  405bc2:	4631      	mov	r1, r6
  405bc4:	aa23      	add	r2, sp, #140	; 0x8c
  405bc6:	f002 fe3b 	bl	408840 <__ssprint_r>
  405bca:	2800      	cmp	r0, #0
  405bcc:	f47f aa7e 	bne.w	4050cc <_svfprintf_r+0x18c>
  405bd0:	f8dd b094 	ldr.w	fp, [sp, #148]	; 0x94
  405bd4:	9d24      	ldr	r5, [sp, #144]	; 0x90
  405bd6:	463c      	mov	r4, r7
  405bd8:	e6e5      	b.n	4059a6 <_svfprintf_r+0xa66>
  405bda:	4693      	mov	fp, r2
  405bdc:	3301      	adds	r3, #1
  405bde:	44ab      	add	fp, r5
  405be0:	2b07      	cmp	r3, #7
  405be2:	f8cd b094 	str.w	fp, [sp, #148]	; 0x94
  405be6:	9324      	str	r3, [sp, #144]	; 0x90
  405be8:	f8c4 9000 	str.w	r9, [r4]
  405bec:	6065      	str	r5, [r4, #4]
  405bee:	f77f aba0 	ble.w	405332 <_svfprintf_r+0x3f2>
  405bf2:	e6e4      	b.n	4059be <_svfprintf_r+0xa7e>
  405bf4:	2b30      	cmp	r3, #48	; 0x30
  405bf6:	9b10      	ldr	r3, [sp, #64]	; 0x40
  405bf8:	f43f af47 	beq.w	405a8a <_svfprintf_r+0xb4a>
  405bfc:	3b01      	subs	r3, #1
  405bfe:	461a      	mov	r2, r3
  405c00:	9310      	str	r3, [sp, #64]	; 0x40
  405c02:	1aba      	subs	r2, r7, r2
  405c04:	2330      	movs	r3, #48	; 0x30
  405c06:	920d      	str	r2, [sp, #52]	; 0x34
  405c08:	f801 3c01 	strb.w	r3, [r1, #-1]
  405c0c:	f7ff bab0 	b.w	405170 <_svfprintf_r+0x230>
  405c10:	46bb      	mov	fp, r7
  405c12:	f8cd c024 	str.w	ip, [sp, #36]	; 0x24
  405c16:	4640      	mov	r0, r8
  405c18:	4649      	mov	r1, r9
  405c1a:	220a      	movs	r2, #10
  405c1c:	2300      	movs	r3, #0
  405c1e:	f002 ff13 	bl	408a48 <__aeabi_uldivmod>
  405c22:	3230      	adds	r2, #48	; 0x30
  405c24:	4640      	mov	r0, r8
  405c26:	4649      	mov	r1, r9
  405c28:	f80b 2d01 	strb.w	r2, [fp, #-1]!
  405c2c:	2300      	movs	r3, #0
  405c2e:	220a      	movs	r2, #10
  405c30:	f002 ff0a 	bl	408a48 <__aeabi_uldivmod>
  405c34:	4680      	mov	r8, r0
  405c36:	4689      	mov	r9, r1
  405c38:	ea58 0309 	orrs.w	r3, r8, r9
  405c3c:	d1eb      	bne.n	405c16 <_svfprintf_r+0xcd6>
  405c3e:	465b      	mov	r3, fp
  405c40:	1afb      	subs	r3, r7, r3
  405c42:	f8dd c024 	ldr.w	ip, [sp, #36]	; 0x24
  405c46:	f8cd b040 	str.w	fp, [sp, #64]	; 0x40
  405c4a:	930d      	str	r3, [sp, #52]	; 0x34
  405c4c:	f7ff ba90 	b.w	405170 <_svfprintf_r+0x230>
  405c50:	990e      	ldr	r1, [sp, #56]	; 0x38
  405c52:	680a      	ldr	r2, [r1, #0]
  405c54:	3104      	adds	r1, #4
  405c56:	910e      	str	r1, [sp, #56]	; 0x38
  405c58:	4690      	mov	r8, r2
  405c5a:	f04f 0900 	mov.w	r9, #0
  405c5e:	f7ff ba54 	b.w	40510a <_svfprintf_r+0x1ca>
  405c62:	990e      	ldr	r1, [sp, #56]	; 0x38
  405c64:	680a      	ldr	r2, [r1, #0]
  405c66:	3104      	adds	r1, #4
  405c68:	2301      	movs	r3, #1
  405c6a:	910e      	str	r1, [sp, #56]	; 0x38
  405c6c:	4690      	mov	r8, r2
  405c6e:	f04f 0900 	mov.w	r9, #0
  405c72:	f7ff ba4a 	b.w	40510a <_svfprintf_r+0x1ca>
  405c76:	9a0e      	ldr	r2, [sp, #56]	; 0x38
  405c78:	6813      	ldr	r3, [r2, #0]
  405c7a:	4698      	mov	r8, r3
  405c7c:	ea4f 79e3 	mov.w	r9, r3, asr #31
  405c80:	4613      	mov	r3, r2
  405c82:	3304      	adds	r3, #4
  405c84:	4642      	mov	r2, r8
  405c86:	930e      	str	r3, [sp, #56]	; 0x38
  405c88:	2a00      	cmp	r2, #0
  405c8a:	464b      	mov	r3, r9
  405c8c:	f173 0300 	sbcs.w	r3, r3, #0
  405c90:	f6bf abf5 	bge.w	40547e <_svfprintf_r+0x53e>
  405c94:	f04f 0c2d 	mov.w	ip, #45	; 0x2d
  405c98:	f1d8 0800 	rsbs	r8, r8, #0
  405c9c:	eb69 0949 	sbc.w	r9, r9, r9, lsl #1
  405ca0:	f88d c06f 	strb.w	ip, [sp, #111]	; 0x6f
  405ca4:	f8cd a044 	str.w	sl, [sp, #68]	; 0x44
  405ca8:	2301      	movs	r3, #1
  405caa:	f7ff ba34 	b.w	405116 <_svfprintf_r+0x1d6>
  405cae:	9808      	ldr	r0, [sp, #32]
  405cb0:	4631      	mov	r1, r6
  405cb2:	aa23      	add	r2, sp, #140	; 0x8c
  405cb4:	f002 fdc4 	bl	408840 <__ssprint_r>
  405cb8:	2800      	cmp	r0, #0
  405cba:	f47f aa07 	bne.w	4050cc <_svfprintf_r+0x18c>
  405cbe:	f8dd b094 	ldr.w	fp, [sp, #148]	; 0x94
  405cc2:	463c      	mov	r4, r7
  405cc4:	9a10      	ldr	r2, [sp, #64]	; 0x40
  405cc6:	9912      	ldr	r1, [sp, #72]	; 0x48
  405cc8:	9b1d      	ldr	r3, [sp, #116]	; 0x74
  405cca:	440a      	add	r2, r1
  405ccc:	4690      	mov	r8, r2
  405cce:	9a13      	ldr	r2, [sp, #76]	; 0x4c
  405cd0:	4293      	cmp	r3, r2
  405cd2:	db46      	blt.n	405d62 <_svfprintf_r+0xe22>
  405cd4:	9a07      	ldr	r2, [sp, #28]
  405cd6:	07d0      	lsls	r0, r2, #31
  405cd8:	d443      	bmi.n	405d62 <_svfprintf_r+0xe22>
  405cda:	9a13      	ldr	r2, [sp, #76]	; 0x4c
  405cdc:	ebc8 050a 	rsb	r5, r8, sl
  405ce0:	1ad3      	subs	r3, r2, r3
  405ce2:	429d      	cmp	r5, r3
  405ce4:	bfa8      	it	ge
  405ce6:	461d      	movge	r5, r3
  405ce8:	2d00      	cmp	r5, #0
  405cea:	dd0c      	ble.n	405d06 <_svfprintf_r+0xdc6>
  405cec:	9a24      	ldr	r2, [sp, #144]	; 0x90
  405cee:	f8c4 8000 	str.w	r8, [r4]
  405cf2:	3201      	adds	r2, #1
  405cf4:	44ab      	add	fp, r5
  405cf6:	2a07      	cmp	r2, #7
  405cf8:	f8cd b094 	str.w	fp, [sp, #148]	; 0x94
  405cfc:	6065      	str	r5, [r4, #4]
  405cfe:	9224      	str	r2, [sp, #144]	; 0x90
  405d00:	f300 8267 	bgt.w	4061d2 <_svfprintf_r+0x1292>
  405d04:	3408      	adds	r4, #8
  405d06:	2d00      	cmp	r5, #0
  405d08:	bfac      	ite	ge
  405d0a:	1b5d      	subge	r5, r3, r5
  405d0c:	461d      	movlt	r5, r3
  405d0e:	2d00      	cmp	r5, #0
  405d10:	f77f ab10 	ble.w	405334 <_svfprintf_r+0x3f4>
  405d14:	2d10      	cmp	r5, #16
  405d16:	9b24      	ldr	r3, [sp, #144]	; 0x90
  405d18:	f8df 93b8 	ldr.w	r9, [pc, #952]	; 4060d4 <_svfprintf_r+0x1194>
  405d1c:	f77f af5e 	ble.w	405bdc <_svfprintf_r+0xc9c>
  405d20:	f04f 0810 	mov.w	r8, #16
  405d24:	465a      	mov	r2, fp
  405d26:	f8dd a020 	ldr.w	sl, [sp, #32]
  405d2a:	e004      	b.n	405d36 <_svfprintf_r+0xdf6>
  405d2c:	3408      	adds	r4, #8
  405d2e:	3d10      	subs	r5, #16
  405d30:	2d10      	cmp	r5, #16
  405d32:	f77f af52 	ble.w	405bda <_svfprintf_r+0xc9a>
  405d36:	3301      	adds	r3, #1
  405d38:	3210      	adds	r2, #16
  405d3a:	2b07      	cmp	r3, #7
  405d3c:	9225      	str	r2, [sp, #148]	; 0x94
  405d3e:	9324      	str	r3, [sp, #144]	; 0x90
  405d40:	f8c4 9000 	str.w	r9, [r4]
  405d44:	f8c4 8004 	str.w	r8, [r4, #4]
  405d48:	ddf0      	ble.n	405d2c <_svfprintf_r+0xdec>
  405d4a:	4650      	mov	r0, sl
  405d4c:	4631      	mov	r1, r6
  405d4e:	aa23      	add	r2, sp, #140	; 0x8c
  405d50:	f002 fd76 	bl	408840 <__ssprint_r>
  405d54:	2800      	cmp	r0, #0
  405d56:	f47f a9b9 	bne.w	4050cc <_svfprintf_r+0x18c>
  405d5a:	9a25      	ldr	r2, [sp, #148]	; 0x94
  405d5c:	9b24      	ldr	r3, [sp, #144]	; 0x90
  405d5e:	463c      	mov	r4, r7
  405d60:	e7e5      	b.n	405d2e <_svfprintf_r+0xdee>
  405d62:	9a24      	ldr	r2, [sp, #144]	; 0x90
  405d64:	9818      	ldr	r0, [sp, #96]	; 0x60
  405d66:	9917      	ldr	r1, [sp, #92]	; 0x5c
  405d68:	6021      	str	r1, [r4, #0]
  405d6a:	3201      	adds	r2, #1
  405d6c:	4483      	add	fp, r0
  405d6e:	2a07      	cmp	r2, #7
  405d70:	f8cd b094 	str.w	fp, [sp, #148]	; 0x94
  405d74:	6060      	str	r0, [r4, #4]
  405d76:	9224      	str	r2, [sp, #144]	; 0x90
  405d78:	f300 820a 	bgt.w	406190 <_svfprintf_r+0x1250>
  405d7c:	3408      	adds	r4, #8
  405d7e:	e7ac      	b.n	405cda <_svfprintf_r+0xd9a>
  405d80:	9b07      	ldr	r3, [sp, #28]
  405d82:	07d9      	lsls	r1, r3, #31
  405d84:	f53f addc 	bmi.w	405940 <_svfprintf_r+0xa00>
  405d88:	9b10      	ldr	r3, [sp, #64]	; 0x40
  405d8a:	6023      	str	r3, [r4, #0]
  405d8c:	3501      	adds	r5, #1
  405d8e:	f10b 0b01 	add.w	fp, fp, #1
  405d92:	2301      	movs	r3, #1
  405d94:	2d07      	cmp	r5, #7
  405d96:	f8cd b094 	str.w	fp, [sp, #148]	; 0x94
  405d9a:	9524      	str	r5, [sp, #144]	; 0x90
  405d9c:	6063      	str	r3, [r4, #4]
  405d9e:	f77f ae01 	ble.w	4059a4 <_svfprintf_r+0xa64>
  405da2:	e70d      	b.n	405bc0 <_svfprintf_r+0xc80>
  405da4:	9808      	ldr	r0, [sp, #32]
  405da6:	4631      	mov	r1, r6
  405da8:	aa23      	add	r2, sp, #140	; 0x8c
  405daa:	f002 fd49 	bl	408840 <__ssprint_r>
  405dae:	2800      	cmp	r0, #0
  405db0:	f47f a98c 	bne.w	4050cc <_svfprintf_r+0x18c>
  405db4:	9b25      	ldr	r3, [sp, #148]	; 0x94
  405db6:	9d24      	ldr	r5, [sp, #144]	; 0x90
  405db8:	463c      	mov	r4, r7
  405dba:	e5ce      	b.n	40595a <_svfprintf_r+0xa1a>
  405dbc:	9808      	ldr	r0, [sp, #32]
  405dbe:	4631      	mov	r1, r6
  405dc0:	aa23      	add	r2, sp, #140	; 0x8c
  405dc2:	f002 fd3d 	bl	408840 <__ssprint_r>
  405dc6:	2800      	cmp	r0, #0
  405dc8:	f47f a980 	bne.w	4050cc <_svfprintf_r+0x18c>
  405dcc:	f8dd b094 	ldr.w	fp, [sp, #148]	; 0x94
  405dd0:	9d24      	ldr	r5, [sp, #144]	; 0x90
  405dd2:	463c      	mov	r4, r7
  405dd4:	e5cf      	b.n	405976 <_svfprintf_r+0xa36>
  405dd6:	9808      	ldr	r0, [sp, #32]
  405dd8:	4631      	mov	r1, r6
  405dda:	aa23      	add	r2, sp, #140	; 0x8c
  405ddc:	f002 fd30 	bl	408840 <__ssprint_r>
  405de0:	2800      	cmp	r0, #0
  405de2:	f47f a973 	bne.w	4050cc <_svfprintf_r+0x18c>
  405de6:	f8dd b094 	ldr.w	fp, [sp, #148]	; 0x94
  405dea:	463c      	mov	r4, r7
  405dec:	f7ff ba4c 	b.w	405288 <_svfprintf_r+0x348>
  405df0:	f002 fce8 	bl	4087c4 <__fpclassifyd>
  405df4:	2800      	cmp	r0, #0
  405df6:	f040 80c7 	bne.w	405f88 <_svfprintf_r+0x1048>
  405dfa:	4686      	mov	lr, r0
  405dfc:	4ab2      	ldr	r2, [pc, #712]	; (4060c8 <_svfprintf_r+0x1188>)
  405dfe:	4bb3      	ldr	r3, [pc, #716]	; (4060cc <_svfprintf_r+0x118c>)
  405e00:	9011      	str	r0, [sp, #68]	; 0x44
  405e02:	9807      	ldr	r0, [sp, #28]
  405e04:	f89d c06f 	ldrb.w	ip, [sp, #111]	; 0x6f
  405e08:	f8cd e048 	str.w	lr, [sp, #72]	; 0x48
  405e0c:	2103      	movs	r1, #3
  405e0e:	f020 0080 	bic.w	r0, r0, #128	; 0x80
  405e12:	2d47      	cmp	r5, #71	; 0x47
  405e14:	bfd8      	it	le
  405e16:	461a      	movle	r2, r3
  405e18:	9109      	str	r1, [sp, #36]	; 0x24
  405e1a:	9007      	str	r0, [sp, #28]
  405e1c:	9210      	str	r2, [sp, #64]	; 0x40
  405e1e:	910d      	str	r1, [sp, #52]	; 0x34
  405e20:	f7ff b9ae 	b.w	405180 <_svfprintf_r+0x240>
  405e24:	9b07      	ldr	r3, [sp, #28]
  405e26:	9a0e      	ldr	r2, [sp, #56]	; 0x38
  405e28:	f013 0f40 	tst.w	r3, #64	; 0x40
  405e2c:	4613      	mov	r3, r2
  405e2e:	f43f ac2e 	beq.w	40568e <_svfprintf_r+0x74e>
  405e32:	3304      	adds	r3, #4
  405e34:	f8b2 8000 	ldrh.w	r8, [r2]
  405e38:	930e      	str	r3, [sp, #56]	; 0x38
  405e3a:	f04f 0900 	mov.w	r9, #0
  405e3e:	f7ff bb37 	b.w	4054b0 <_svfprintf_r+0x570>
  405e42:	9b07      	ldr	r3, [sp, #28]
  405e44:	06db      	lsls	r3, r3, #27
  405e46:	d40b      	bmi.n	405e60 <_svfprintf_r+0xf20>
  405e48:	9b07      	ldr	r3, [sp, #28]
  405e4a:	065d      	lsls	r5, r3, #25
  405e4c:	d508      	bpl.n	405e60 <_svfprintf_r+0xf20>
  405e4e:	9a0e      	ldr	r2, [sp, #56]	; 0x38
  405e50:	6813      	ldr	r3, [r2, #0]
  405e52:	3204      	adds	r2, #4
  405e54:	920e      	str	r2, [sp, #56]	; 0x38
  405e56:	f8bd 202c 	ldrh.w	r2, [sp, #44]	; 0x2c
  405e5a:	801a      	strh	r2, [r3, #0]
  405e5c:	f7ff b895 	b.w	404f8a <_svfprintf_r+0x4a>
  405e60:	9a0e      	ldr	r2, [sp, #56]	; 0x38
  405e62:	6813      	ldr	r3, [r2, #0]
  405e64:	3204      	adds	r2, #4
  405e66:	920e      	str	r2, [sp, #56]	; 0x38
  405e68:	9a0b      	ldr	r2, [sp, #44]	; 0x2c
  405e6a:	601a      	str	r2, [r3, #0]
  405e6c:	f7ff b88d 	b.w	404f8a <_svfprintf_r+0x4a>
  405e70:	4693      	mov	fp, r2
  405e72:	3301      	adds	r3, #1
  405e74:	44ab      	add	fp, r5
  405e76:	2b07      	cmp	r3, #7
  405e78:	f8cd b094 	str.w	fp, [sp, #148]	; 0x94
  405e7c:	9324      	str	r3, [sp, #144]	; 0x90
  405e7e:	f8c4 9000 	str.w	r9, [r4]
  405e82:	6065      	str	r5, [r4, #4]
  405e84:	f73f af13 	bgt.w	405cae <_svfprintf_r+0xd6e>
  405e88:	3408      	adds	r4, #8
  405e8a:	e71b      	b.n	405cc4 <_svfprintf_r+0xd84>
  405e8c:	9808      	ldr	r0, [sp, #32]
  405e8e:	4631      	mov	r1, r6
  405e90:	aa23      	add	r2, sp, #140	; 0x8c
  405e92:	f002 fcd5 	bl	408840 <__ssprint_r>
  405e96:	2800      	cmp	r0, #0
  405e98:	f47f a918 	bne.w	4050cc <_svfprintf_r+0x18c>
  405e9c:	f8dd b094 	ldr.w	fp, [sp, #148]	; 0x94
  405ea0:	463c      	mov	r4, r7
  405ea2:	e4c0      	b.n	405826 <_svfprintf_r+0x8e6>
  405ea4:	9b24      	ldr	r3, [sp, #144]	; 0x90
  405ea6:	4a8a      	ldr	r2, [pc, #552]	; (4060d0 <_svfprintf_r+0x1190>)
  405ea8:	6022      	str	r2, [r4, #0]
  405eaa:	3301      	adds	r3, #1
  405eac:	f10b 0b01 	add.w	fp, fp, #1
  405eb0:	2201      	movs	r2, #1
  405eb2:	2b07      	cmp	r3, #7
  405eb4:	f8cd b094 	str.w	fp, [sp, #148]	; 0x94
  405eb8:	9324      	str	r3, [sp, #144]	; 0x90
  405eba:	6062      	str	r2, [r4, #4]
  405ebc:	f300 80f4 	bgt.w	4060a8 <_svfprintf_r+0x1168>
  405ec0:	3408      	adds	r4, #8
  405ec2:	b92d      	cbnz	r5, 405ed0 <_svfprintf_r+0xf90>
  405ec4:	9b13      	ldr	r3, [sp, #76]	; 0x4c
  405ec6:	b91b      	cbnz	r3, 405ed0 <_svfprintf_r+0xf90>
  405ec8:	9b07      	ldr	r3, [sp, #28]
  405eca:	07db      	lsls	r3, r3, #31
  405ecc:	f57f aa32 	bpl.w	405334 <_svfprintf_r+0x3f4>
  405ed0:	9b24      	ldr	r3, [sp, #144]	; 0x90
  405ed2:	9818      	ldr	r0, [sp, #96]	; 0x60
  405ed4:	9a17      	ldr	r2, [sp, #92]	; 0x5c
  405ed6:	6022      	str	r2, [r4, #0]
  405ed8:	3301      	adds	r3, #1
  405eda:	eb0b 0100 	add.w	r1, fp, r0
  405ede:	2b07      	cmp	r3, #7
  405ee0:	9125      	str	r1, [sp, #148]	; 0x94
  405ee2:	6060      	str	r0, [r4, #4]
  405ee4:	9324      	str	r3, [sp, #144]	; 0x90
  405ee6:	f300 81f3 	bgt.w	4062d0 <_svfprintf_r+0x1390>
  405eea:	f104 0208 	add.w	r2, r4, #8
  405eee:	426d      	negs	r5, r5
  405ef0:	2d00      	cmp	r5, #0
  405ef2:	f340 80fc 	ble.w	4060ee <_svfprintf_r+0x11ae>
  405ef6:	2d10      	cmp	r5, #16
  405ef8:	f8df 91d8 	ldr.w	r9, [pc, #472]	; 4060d4 <_svfprintf_r+0x1194>
  405efc:	f340 813d 	ble.w	40617a <_svfprintf_r+0x123a>
  405f00:	2410      	movs	r4, #16
  405f02:	f8dd 8020 	ldr.w	r8, [sp, #32]
  405f06:	e004      	b.n	405f12 <_svfprintf_r+0xfd2>
  405f08:	3208      	adds	r2, #8
  405f0a:	3d10      	subs	r5, #16
  405f0c:	2d10      	cmp	r5, #16
  405f0e:	f340 8134 	ble.w	40617a <_svfprintf_r+0x123a>
  405f12:	3301      	adds	r3, #1
  405f14:	3110      	adds	r1, #16
  405f16:	2b07      	cmp	r3, #7
  405f18:	9125      	str	r1, [sp, #148]	; 0x94
  405f1a:	9324      	str	r3, [sp, #144]	; 0x90
  405f1c:	f8c2 9000 	str.w	r9, [r2]
  405f20:	6054      	str	r4, [r2, #4]
  405f22:	ddf1      	ble.n	405f08 <_svfprintf_r+0xfc8>
  405f24:	4640      	mov	r0, r8
  405f26:	4631      	mov	r1, r6
  405f28:	aa23      	add	r2, sp, #140	; 0x8c
  405f2a:	f002 fc89 	bl	408840 <__ssprint_r>
  405f2e:	2800      	cmp	r0, #0
  405f30:	f47f a8cc 	bne.w	4050cc <_svfprintf_r+0x18c>
  405f34:	9925      	ldr	r1, [sp, #148]	; 0x94
  405f36:	9b24      	ldr	r3, [sp, #144]	; 0x90
  405f38:	463a      	mov	r2, r7
  405f3a:	e7e6      	b.n	405f0a <_svfprintf_r+0xfca>
  405f3c:	9b25      	ldr	r3, [sp, #148]	; 0x94
  405f3e:	46b1      	mov	r9, r6
  405f40:	2b00      	cmp	r3, #0
  405f42:	f43f a8c4 	beq.w	4050ce <_svfprintf_r+0x18e>
  405f46:	9808      	ldr	r0, [sp, #32]
  405f48:	4631      	mov	r1, r6
  405f4a:	aa23      	add	r2, sp, #140	; 0x8c
  405f4c:	f002 fc78 	bl	408840 <__ssprint_r>
  405f50:	f7ff b8bd 	b.w	4050ce <_svfprintf_r+0x18e>
  405f54:	980c      	ldr	r0, [sp, #48]	; 0x30
  405f56:	910e      	str	r1, [sp, #56]	; 0x38
  405f58:	4240      	negs	r0, r0
  405f5a:	900c      	str	r0, [sp, #48]	; 0x30
  405f5c:	4619      	mov	r1, r3
  405f5e:	f7ff ba3f 	b.w	4053e0 <_svfprintf_r+0x4a0>
  405f62:	f041 0120 	orr.w	r1, r1, #32
  405f66:	9107      	str	r1, [sp, #28]
  405f68:	785d      	ldrb	r5, [r3, #1]
  405f6a:	1c59      	adds	r1, r3, #1
  405f6c:	f7ff b83b 	b.w	404fe6 <_svfprintf_r+0xa6>
  405f70:	9808      	ldr	r0, [sp, #32]
  405f72:	4631      	mov	r1, r6
  405f74:	aa23      	add	r2, sp, #140	; 0x8c
  405f76:	f002 fc63 	bl	408840 <__ssprint_r>
  405f7a:	2800      	cmp	r0, #0
  405f7c:	f47f a8a6 	bne.w	4050cc <_svfprintf_r+0x18c>
  405f80:	f8dd b094 	ldr.w	fp, [sp, #148]	; 0x94
  405f84:	463c      	mov	r4, r7
  405f86:	e464      	b.n	405852 <_svfprintf_r+0x912>
  405f88:	f025 0320 	bic.w	r3, r5, #32
  405f8c:	f1ba 3fff 	cmp.w	sl, #4294967295
  405f90:	930d      	str	r3, [sp, #52]	; 0x34
  405f92:	f000 8096 	beq.w	4060c2 <_svfprintf_r+0x1182>
  405f96:	2b47      	cmp	r3, #71	; 0x47
  405f98:	d105      	bne.n	405fa6 <_svfprintf_r+0x1066>
  405f9a:	f1ba 0f00 	cmp.w	sl, #0
  405f9e:	bf14      	ite	ne
  405fa0:	46d3      	movne	fp, sl
  405fa2:	f04f 0b01 	moveq.w	fp, #1
  405fa6:	9b07      	ldr	r3, [sp, #28]
  405fa8:	f443 7380 	orr.w	r3, r3, #256	; 0x100
  405fac:	9311      	str	r3, [sp, #68]	; 0x44
  405fae:	9b15      	ldr	r3, [sp, #84]	; 0x54
  405fb0:	f1b3 0a00 	subs.w	sl, r3, #0
  405fb4:	9b14      	ldr	r3, [sp, #80]	; 0x50
  405fb6:	9309      	str	r3, [sp, #36]	; 0x24
  405fb8:	bfbb      	ittet	lt
  405fba:	4653      	movlt	r3, sl
  405fbc:	f103 4a00 	addlt.w	sl, r3, #2147483648	; 0x80000000
  405fc0:	2300      	movge	r3, #0
  405fc2:	232d      	movlt	r3, #45	; 0x2d
  405fc4:	2d66      	cmp	r5, #102	; 0x66
  405fc6:	930f      	str	r3, [sp, #60]	; 0x3c
  405fc8:	f000 80ac 	beq.w	406124 <_svfprintf_r+0x11e4>
  405fcc:	2d46      	cmp	r5, #70	; 0x46
  405fce:	f000 80a9 	beq.w	406124 <_svfprintf_r+0x11e4>
  405fd2:	9b0d      	ldr	r3, [sp, #52]	; 0x34
  405fd4:	9a09      	ldr	r2, [sp, #36]	; 0x24
  405fd6:	2b45      	cmp	r3, #69	; 0x45
  405fd8:	bf0c      	ite	eq
  405fda:	f10b 0901 	addeq.w	r9, fp, #1
  405fde:	46d9      	movne	r9, fp
  405fe0:	2002      	movs	r0, #2
  405fe2:	a91d      	add	r1, sp, #116	; 0x74
  405fe4:	e88d 0201 	stmia.w	sp, {r0, r9}
  405fe8:	9102      	str	r1, [sp, #8]
  405fea:	a81e      	add	r0, sp, #120	; 0x78
  405fec:	a921      	add	r1, sp, #132	; 0x84
  405fee:	9003      	str	r0, [sp, #12]
  405ff0:	4653      	mov	r3, sl
  405ff2:	9104      	str	r1, [sp, #16]
  405ff4:	9808      	ldr	r0, [sp, #32]
  405ff6:	f000 fa93 	bl	406520 <_dtoa_r>
  405ffa:	2d67      	cmp	r5, #103	; 0x67
  405ffc:	9010      	str	r0, [sp, #64]	; 0x40
  405ffe:	d002      	beq.n	406006 <_svfprintf_r+0x10c6>
  406000:	2d47      	cmp	r5, #71	; 0x47
  406002:	f040 809f 	bne.w	406144 <_svfprintf_r+0x1204>
  406006:	9b07      	ldr	r3, [sp, #28]
  406008:	07db      	lsls	r3, r3, #31
  40600a:	f140 8189 	bpl.w	406320 <_svfprintf_r+0x13e0>
  40600e:	9b10      	ldr	r3, [sp, #64]	; 0x40
  406010:	eb03 0809 	add.w	r8, r3, r9
  406014:	9809      	ldr	r0, [sp, #36]	; 0x24
  406016:	4651      	mov	r1, sl
  406018:	2200      	movs	r2, #0
  40601a:	2300      	movs	r3, #0
  40601c:	f7fe fb7e 	bl	40471c <__aeabi_dcmpeq>
  406020:	2800      	cmp	r0, #0
  406022:	f040 80fd 	bne.w	406220 <_svfprintf_r+0x12e0>
  406026:	9b21      	ldr	r3, [sp, #132]	; 0x84
  406028:	4598      	cmp	r8, r3
  40602a:	d906      	bls.n	40603a <_svfprintf_r+0x10fa>
  40602c:	2130      	movs	r1, #48	; 0x30
  40602e:	1c5a      	adds	r2, r3, #1
  406030:	9221      	str	r2, [sp, #132]	; 0x84
  406032:	7019      	strb	r1, [r3, #0]
  406034:	9b21      	ldr	r3, [sp, #132]	; 0x84
  406036:	4598      	cmp	r8, r3
  406038:	d8f9      	bhi.n	40602e <_svfprintf_r+0x10ee>
  40603a:	9a10      	ldr	r2, [sp, #64]	; 0x40
  40603c:	1a9b      	subs	r3, r3, r2
  40603e:	9313      	str	r3, [sp, #76]	; 0x4c
  406040:	9b0d      	ldr	r3, [sp, #52]	; 0x34
  406042:	2b47      	cmp	r3, #71	; 0x47
  406044:	9b1d      	ldr	r3, [sp, #116]	; 0x74
  406046:	f000 80de 	beq.w	406206 <_svfprintf_r+0x12c6>
  40604a:	2d65      	cmp	r5, #101	; 0x65
  40604c:	f340 80f8 	ble.w	406240 <_svfprintf_r+0x1300>
  406050:	2d66      	cmp	r5, #102	; 0x66
  406052:	9312      	str	r3, [sp, #72]	; 0x48
  406054:	f000 8157 	beq.w	406306 <_svfprintf_r+0x13c6>
  406058:	9b13      	ldr	r3, [sp, #76]	; 0x4c
  40605a:	9a12      	ldr	r2, [sp, #72]	; 0x48
  40605c:	4293      	cmp	r3, r2
  40605e:	f300 8144 	bgt.w	4062ea <_svfprintf_r+0x13aa>
  406062:	9b07      	ldr	r3, [sp, #28]
  406064:	07d9      	lsls	r1, r3, #31
  406066:	f100 8173 	bmi.w	406350 <_svfprintf_r+0x1410>
  40606a:	ea22 73e2 	bic.w	r3, r2, r2, asr #31
  40606e:	920d      	str	r2, [sp, #52]	; 0x34
  406070:	9a0f      	ldr	r2, [sp, #60]	; 0x3c
  406072:	2a00      	cmp	r2, #0
  406074:	f040 80bc 	bne.w	4061f0 <_svfprintf_r+0x12b0>
  406078:	9309      	str	r3, [sp, #36]	; 0x24
  40607a:	9b11      	ldr	r3, [sp, #68]	; 0x44
  40607c:	9307      	str	r3, [sp, #28]
  40607e:	9211      	str	r2, [sp, #68]	; 0x44
  406080:	f89d c06f 	ldrb.w	ip, [sp, #111]	; 0x6f
  406084:	f7ff b87c 	b.w	405180 <_svfprintf_r+0x240>
  406088:	9808      	ldr	r0, [sp, #32]
  40608a:	2140      	movs	r1, #64	; 0x40
  40608c:	f001 fad2 	bl	407634 <_malloc_r>
  406090:	f8c9 0000 	str.w	r0, [r9]
  406094:	f8c9 0010 	str.w	r0, [r9, #16]
  406098:	2800      	cmp	r0, #0
  40609a:	f000 818c 	beq.w	4063b6 <_svfprintf_r+0x1476>
  40609e:	2340      	movs	r3, #64	; 0x40
  4060a0:	f8c9 3014 	str.w	r3, [r9, #20]
  4060a4:	f7fe bf64 	b.w	404f70 <_svfprintf_r+0x30>
  4060a8:	9808      	ldr	r0, [sp, #32]
  4060aa:	4631      	mov	r1, r6
  4060ac:	aa23      	add	r2, sp, #140	; 0x8c
  4060ae:	f002 fbc7 	bl	408840 <__ssprint_r>
  4060b2:	2800      	cmp	r0, #0
  4060b4:	f47f a80a 	bne.w	4050cc <_svfprintf_r+0x18c>
  4060b8:	9d1d      	ldr	r5, [sp, #116]	; 0x74
  4060ba:	f8dd b094 	ldr.w	fp, [sp, #148]	; 0x94
  4060be:	463c      	mov	r4, r7
  4060c0:	e6ff      	b.n	405ec2 <_svfprintf_r+0xf82>
  4060c2:	f04f 0b06 	mov.w	fp, #6
  4060c6:	e76e      	b.n	405fa6 <_svfprintf_r+0x1066>
  4060c8:	0040998c 	.word	0x0040998c
  4060cc:	00409988 	.word	0x00409988
  4060d0:	004099c0 	.word	0x004099c0
  4060d4:	00409960 	.word	0x00409960
  4060d8:	9808      	ldr	r0, [sp, #32]
  4060da:	4631      	mov	r1, r6
  4060dc:	aa23      	add	r2, sp, #140	; 0x8c
  4060de:	f002 fbaf 	bl	408840 <__ssprint_r>
  4060e2:	2800      	cmp	r0, #0
  4060e4:	f47e aff2 	bne.w	4050cc <_svfprintf_r+0x18c>
  4060e8:	9925      	ldr	r1, [sp, #148]	; 0x94
  4060ea:	9b24      	ldr	r3, [sp, #144]	; 0x90
  4060ec:	463a      	mov	r2, r7
  4060ee:	9c13      	ldr	r4, [sp, #76]	; 0x4c
  4060f0:	6054      	str	r4, [r2, #4]
  4060f2:	3301      	adds	r3, #1
  4060f4:	eb01 0b04 	add.w	fp, r1, r4
  4060f8:	2b07      	cmp	r3, #7
  4060fa:	9910      	ldr	r1, [sp, #64]	; 0x40
  4060fc:	f8cd b094 	str.w	fp, [sp, #148]	; 0x94
  406100:	9324      	str	r3, [sp, #144]	; 0x90
  406102:	6011      	str	r1, [r2, #0]
  406104:	f73f ac5b 	bgt.w	4059be <_svfprintf_r+0xa7e>
  406108:	f102 0408 	add.w	r4, r2, #8
  40610c:	f7ff b912 	b.w	405334 <_svfprintf_r+0x3f4>
  406110:	f8cd b044 	str.w	fp, [sp, #68]	; 0x44
  406114:	f7fe fee6 	bl	404ee4 <strlen>
  406118:	f8cd 9038 	str.w	r9, [sp, #56]	; 0x38
  40611c:	900d      	str	r0, [sp, #52]	; 0x34
  40611e:	4603      	mov	r3, r0
  406120:	f7ff ba1b 	b.w	40555a <_svfprintf_r+0x61a>
  406124:	2003      	movs	r0, #3
  406126:	a91d      	add	r1, sp, #116	; 0x74
  406128:	e88d 0801 	stmia.w	sp, {r0, fp}
  40612c:	9102      	str	r1, [sp, #8]
  40612e:	a81e      	add	r0, sp, #120	; 0x78
  406130:	a921      	add	r1, sp, #132	; 0x84
  406132:	9003      	str	r0, [sp, #12]
  406134:	9a09      	ldr	r2, [sp, #36]	; 0x24
  406136:	9104      	str	r1, [sp, #16]
  406138:	4653      	mov	r3, sl
  40613a:	9808      	ldr	r0, [sp, #32]
  40613c:	f000 f9f0 	bl	406520 <_dtoa_r>
  406140:	46d9      	mov	r9, fp
  406142:	9010      	str	r0, [sp, #64]	; 0x40
  406144:	9b10      	ldr	r3, [sp, #64]	; 0x40
  406146:	eb03 0809 	add.w	r8, r3, r9
  40614a:	9b0d      	ldr	r3, [sp, #52]	; 0x34
  40614c:	2b46      	cmp	r3, #70	; 0x46
  40614e:	f47f af61 	bne.w	406014 <_svfprintf_r+0x10d4>
  406152:	9b10      	ldr	r3, [sp, #64]	; 0x40
  406154:	781b      	ldrb	r3, [r3, #0]
  406156:	2b30      	cmp	r3, #48	; 0x30
  406158:	f000 80e4 	beq.w	406324 <_svfprintf_r+0x13e4>
  40615c:	9b1d      	ldr	r3, [sp, #116]	; 0x74
  40615e:	4498      	add	r8, r3
  406160:	e758      	b.n	406014 <_svfprintf_r+0x10d4>
  406162:	9808      	ldr	r0, [sp, #32]
  406164:	4631      	mov	r1, r6
  406166:	aa23      	add	r2, sp, #140	; 0x8c
  406168:	f002 fb6a 	bl	408840 <__ssprint_r>
  40616c:	2800      	cmp	r0, #0
  40616e:	f47e afad 	bne.w	4050cc <_svfprintf_r+0x18c>
  406172:	f8dd b094 	ldr.w	fp, [sp, #148]	; 0x94
  406176:	463c      	mov	r4, r7
  406178:	e4a7      	b.n	405aca <_svfprintf_r+0xb8a>
  40617a:	3301      	adds	r3, #1
  40617c:	4429      	add	r1, r5
  40617e:	2b07      	cmp	r3, #7
  406180:	9125      	str	r1, [sp, #148]	; 0x94
  406182:	9324      	str	r3, [sp, #144]	; 0x90
  406184:	f8c2 9000 	str.w	r9, [r2]
  406188:	6055      	str	r5, [r2, #4]
  40618a:	dca5      	bgt.n	4060d8 <_svfprintf_r+0x1198>
  40618c:	3208      	adds	r2, #8
  40618e:	e7ae      	b.n	4060ee <_svfprintf_r+0x11ae>
  406190:	9808      	ldr	r0, [sp, #32]
  406192:	4631      	mov	r1, r6
  406194:	aa23      	add	r2, sp, #140	; 0x8c
  406196:	f002 fb53 	bl	408840 <__ssprint_r>
  40619a:	2800      	cmp	r0, #0
  40619c:	f47e af96 	bne.w	4050cc <_svfprintf_r+0x18c>
  4061a0:	9b1d      	ldr	r3, [sp, #116]	; 0x74
  4061a2:	f8dd b094 	ldr.w	fp, [sp, #148]	; 0x94
  4061a6:	463c      	mov	r4, r7
  4061a8:	e597      	b.n	405cda <_svfprintf_r+0xd9a>
  4061aa:	4653      	mov	r3, sl
  4061ac:	2b06      	cmp	r3, #6
  4061ae:	bf28      	it	cs
  4061b0:	2306      	movcs	r3, #6
  4061b2:	930d      	str	r3, [sp, #52]	; 0x34
  4061b4:	ea23 73e3 	bic.w	r3, r3, r3, asr #31
  4061b8:	f8dd c040 	ldr.w	ip, [sp, #64]	; 0x40
  4061bc:	9309      	str	r3, [sp, #36]	; 0x24
  4061be:	4b83      	ldr	r3, [pc, #524]	; (4063cc <_svfprintf_r+0x148c>)
  4061c0:	f8cd 9038 	str.w	r9, [sp, #56]	; 0x38
  4061c4:	f8cd c044 	str.w	ip, [sp, #68]	; 0x44
  4061c8:	f8cd c048 	str.w	ip, [sp, #72]	; 0x48
  4061cc:	9310      	str	r3, [sp, #64]	; 0x40
  4061ce:	f7fe bfd7 	b.w	405180 <_svfprintf_r+0x240>
  4061d2:	9808      	ldr	r0, [sp, #32]
  4061d4:	4631      	mov	r1, r6
  4061d6:	aa23      	add	r2, sp, #140	; 0x8c
  4061d8:	f002 fb32 	bl	408840 <__ssprint_r>
  4061dc:	2800      	cmp	r0, #0
  4061de:	f47e af75 	bne.w	4050cc <_svfprintf_r+0x18c>
  4061e2:	9b1d      	ldr	r3, [sp, #116]	; 0x74
  4061e4:	9a13      	ldr	r2, [sp, #76]	; 0x4c
  4061e6:	f8dd b094 	ldr.w	fp, [sp, #148]	; 0x94
  4061ea:	1ad3      	subs	r3, r2, r3
  4061ec:	463c      	mov	r4, r7
  4061ee:	e58a      	b.n	405d06 <_svfprintf_r+0xdc6>
  4061f0:	9309      	str	r3, [sp, #36]	; 0x24
  4061f2:	9b11      	ldr	r3, [sp, #68]	; 0x44
  4061f4:	9307      	str	r3, [sp, #28]
  4061f6:	f04f 0c2d 	mov.w	ip, #45	; 0x2d
  4061fa:	2300      	movs	r3, #0
  4061fc:	f88d c06f 	strb.w	ip, [sp, #111]	; 0x6f
  406200:	9311      	str	r3, [sp, #68]	; 0x44
  406202:	f7fe bfc0 	b.w	405186 <_svfprintf_r+0x246>
  406206:	1cda      	adds	r2, r3, #3
  406208:	db19      	blt.n	40623e <_svfprintf_r+0x12fe>
  40620a:	459b      	cmp	fp, r3
  40620c:	db17      	blt.n	40623e <_svfprintf_r+0x12fe>
  40620e:	9312      	str	r3, [sp, #72]	; 0x48
  406210:	2567      	movs	r5, #103	; 0x67
  406212:	e721      	b.n	406058 <_svfprintf_r+0x1118>
  406214:	f04f 0c2d 	mov.w	ip, #45	; 0x2d
  406218:	f88d c06f 	strb.w	ip, [sp, #111]	; 0x6f
  40621c:	f7ff ba98 	b.w	405750 <_svfprintf_r+0x810>
  406220:	4643      	mov	r3, r8
  406222:	e70a      	b.n	40603a <_svfprintf_r+0x10fa>
  406224:	ea2a 73ea 	bic.w	r3, sl, sl, asr #31
  406228:	9011      	str	r0, [sp, #68]	; 0x44
  40622a:	f8cd 9038 	str.w	r9, [sp, #56]	; 0x38
  40622e:	9012      	str	r0, [sp, #72]	; 0x48
  406230:	f89d c06f 	ldrb.w	ip, [sp, #111]	; 0x6f
  406234:	9309      	str	r3, [sp, #36]	; 0x24
  406236:	f8cd a034 	str.w	sl, [sp, #52]	; 0x34
  40623a:	f7fe bfa1 	b.w	405180 <_svfprintf_r+0x240>
  40623e:	3d02      	subs	r5, #2
  406240:	3b01      	subs	r3, #1
  406242:	2b00      	cmp	r3, #0
  406244:	931d      	str	r3, [sp, #116]	; 0x74
  406246:	bfba      	itte	lt
  406248:	425b      	neglt	r3, r3
  40624a:	222d      	movlt	r2, #45	; 0x2d
  40624c:	222b      	movge	r2, #43	; 0x2b
  40624e:	2b09      	cmp	r3, #9
  406250:	f88d 507c 	strb.w	r5, [sp, #124]	; 0x7c
  406254:	f88d 207d 	strb.w	r2, [sp, #125]	; 0x7d
  406258:	dd72      	ble.n	406340 <_svfprintf_r+0x1400>
  40625a:	f10d 0e8b 	add.w	lr, sp, #139	; 0x8b
  40625e:	4670      	mov	r0, lr
  406260:	4a5b      	ldr	r2, [pc, #364]	; (4063d0 <_svfprintf_r+0x1490>)
  406262:	fb82 2103 	smull	r2, r1, r2, r3
  406266:	17da      	asrs	r2, r3, #31
  406268:	ebc2 02a1 	rsb	r2, r2, r1, asr #2
  40626c:	eb02 0182 	add.w	r1, r2, r2, lsl #2
  406270:	eba3 0341 	sub.w	r3, r3, r1, lsl #1
  406274:	f103 0130 	add.w	r1, r3, #48	; 0x30
  406278:	2a09      	cmp	r2, #9
  40627a:	4613      	mov	r3, r2
  40627c:	f800 1d01 	strb.w	r1, [r0, #-1]!
  406280:	dcee      	bgt.n	406260 <_svfprintf_r+0x1320>
  406282:	4602      	mov	r2, r0
  406284:	3330      	adds	r3, #48	; 0x30
  406286:	b2d9      	uxtb	r1, r3
  406288:	f802 1d01 	strb.w	r1, [r2, #-1]!
  40628c:	4596      	cmp	lr, r2
  40628e:	f240 8099 	bls.w	4063c4 <_svfprintf_r+0x1484>
  406292:	f10d 027e 	add.w	r2, sp, #126	; 0x7e
  406296:	4603      	mov	r3, r0
  406298:	e001      	b.n	40629e <_svfprintf_r+0x135e>
  40629a:	f813 1b01 	ldrb.w	r1, [r3], #1
  40629e:	f802 1b01 	strb.w	r1, [r2], #1
  4062a2:	4573      	cmp	r3, lr
  4062a4:	d1f9      	bne.n	40629a <_svfprintf_r+0x135a>
  4062a6:	ab23      	add	r3, sp, #140	; 0x8c
  4062a8:	1a1b      	subs	r3, r3, r0
  4062aa:	f10d 027e 	add.w	r2, sp, #126	; 0x7e
  4062ae:	4413      	add	r3, r2
  4062b0:	aa1f      	add	r2, sp, #124	; 0x7c
  4062b2:	1a9b      	subs	r3, r3, r2
  4062b4:	9a13      	ldr	r2, [sp, #76]	; 0x4c
  4062b6:	9319      	str	r3, [sp, #100]	; 0x64
  4062b8:	2a01      	cmp	r2, #1
  4062ba:	4413      	add	r3, r2
  4062bc:	930d      	str	r3, [sp, #52]	; 0x34
  4062be:	dd6b      	ble.n	406398 <_svfprintf_r+0x1458>
  4062c0:	9b0d      	ldr	r3, [sp, #52]	; 0x34
  4062c2:	2200      	movs	r2, #0
  4062c4:	3301      	adds	r3, #1
  4062c6:	930d      	str	r3, [sp, #52]	; 0x34
  4062c8:	9212      	str	r2, [sp, #72]	; 0x48
  4062ca:	ea23 73e3 	bic.w	r3, r3, r3, asr #31
  4062ce:	e6cf      	b.n	406070 <_svfprintf_r+0x1130>
  4062d0:	9808      	ldr	r0, [sp, #32]
  4062d2:	4631      	mov	r1, r6
  4062d4:	aa23      	add	r2, sp, #140	; 0x8c
  4062d6:	f002 fab3 	bl	408840 <__ssprint_r>
  4062da:	2800      	cmp	r0, #0
  4062dc:	f47e aef6 	bne.w	4050cc <_svfprintf_r+0x18c>
  4062e0:	9d1d      	ldr	r5, [sp, #116]	; 0x74
  4062e2:	9925      	ldr	r1, [sp, #148]	; 0x94
  4062e4:	9b24      	ldr	r3, [sp, #144]	; 0x90
  4062e6:	463a      	mov	r2, r7
  4062e8:	e601      	b.n	405eee <_svfprintf_r+0xfae>
  4062ea:	9b12      	ldr	r3, [sp, #72]	; 0x48
  4062ec:	2b00      	cmp	r3, #0
  4062ee:	bfd8      	it	le
  4062f0:	f1c3 0802 	rsble	r8, r3, #2
  4062f4:	9b13      	ldr	r3, [sp, #76]	; 0x4c
  4062f6:	bfc8      	it	gt
  4062f8:	f04f 0801 	movgt.w	r8, #1
  4062fc:	4443      	add	r3, r8
  4062fe:	930d      	str	r3, [sp, #52]	; 0x34
  406300:	ea23 73e3 	bic.w	r3, r3, r3, asr #31
  406304:	e6b4      	b.n	406070 <_svfprintf_r+0x1130>
  406306:	2b00      	cmp	r3, #0
  406308:	dd30      	ble.n	40636c <_svfprintf_r+0x142c>
  40630a:	f1bb 0f00 	cmp.w	fp, #0
  40630e:	d125      	bne.n	40635c <_svfprintf_r+0x141c>
  406310:	9b07      	ldr	r3, [sp, #28]
  406312:	07db      	lsls	r3, r3, #31
  406314:	d422      	bmi.n	40635c <_svfprintf_r+0x141c>
  406316:	9a12      	ldr	r2, [sp, #72]	; 0x48
  406318:	920d      	str	r2, [sp, #52]	; 0x34
  40631a:	ea22 73e2 	bic.w	r3, r2, r2, asr #31
  40631e:	e6a7      	b.n	406070 <_svfprintf_r+0x1130>
  406320:	9b21      	ldr	r3, [sp, #132]	; 0x84
  406322:	e68a      	b.n	40603a <_svfprintf_r+0x10fa>
  406324:	9809      	ldr	r0, [sp, #36]	; 0x24
  406326:	4651      	mov	r1, sl
  406328:	2200      	movs	r2, #0
  40632a:	2300      	movs	r3, #0
  40632c:	f7fe f9f6 	bl	40471c <__aeabi_dcmpeq>
  406330:	2800      	cmp	r0, #0
  406332:	f47f af13 	bne.w	40615c <_svfprintf_r+0x121c>
  406336:	f1c9 0301 	rsb	r3, r9, #1
  40633a:	931d      	str	r3, [sp, #116]	; 0x74
  40633c:	4498      	add	r8, r3
  40633e:	e669      	b.n	406014 <_svfprintf_r+0x10d4>
  406340:	3330      	adds	r3, #48	; 0x30
  406342:	2230      	movs	r2, #48	; 0x30
  406344:	f88d 307f 	strb.w	r3, [sp, #127]	; 0x7f
  406348:	f88d 207e 	strb.w	r2, [sp, #126]	; 0x7e
  40634c:	ab20      	add	r3, sp, #128	; 0x80
  40634e:	e7af      	b.n	4062b0 <_svfprintf_r+0x1370>
  406350:	9b12      	ldr	r3, [sp, #72]	; 0x48
  406352:	3301      	adds	r3, #1
  406354:	930d      	str	r3, [sp, #52]	; 0x34
  406356:	ea23 73e3 	bic.w	r3, r3, r3, asr #31
  40635a:	e689      	b.n	406070 <_svfprintf_r+0x1130>
  40635c:	9b12      	ldr	r3, [sp, #72]	; 0x48
  40635e:	f10b 0801 	add.w	r8, fp, #1
  406362:	4443      	add	r3, r8
  406364:	930d      	str	r3, [sp, #52]	; 0x34
  406366:	ea23 73e3 	bic.w	r3, r3, r3, asr #31
  40636a:	e681      	b.n	406070 <_svfprintf_r+0x1130>
  40636c:	f1bb 0f00 	cmp.w	fp, #0
  406370:	d11b      	bne.n	4063aa <_svfprintf_r+0x146a>
  406372:	9b07      	ldr	r3, [sp, #28]
  406374:	07d8      	lsls	r0, r3, #31
  406376:	d418      	bmi.n	4063aa <_svfprintf_r+0x146a>
  406378:	2301      	movs	r3, #1
  40637a:	930d      	str	r3, [sp, #52]	; 0x34
  40637c:	e678      	b.n	406070 <_svfprintf_r+0x1130>
  40637e:	9d0e      	ldr	r5, [sp, #56]	; 0x38
  406380:	f8d5 a000 	ldr.w	sl, [r5]
  406384:	4628      	mov	r0, r5
  406386:	3004      	adds	r0, #4
  406388:	f1ba 0f00 	cmp.w	sl, #0
  40638c:	785d      	ldrb	r5, [r3, #1]
  40638e:	900e      	str	r0, [sp, #56]	; 0x38
  406390:	f6be ae29 	bge.w	404fe6 <_svfprintf_r+0xa6>
  406394:	f7fe be25 	b.w	404fe2 <_svfprintf_r+0xa2>
  406398:	9b07      	ldr	r3, [sp, #28]
  40639a:	f013 0301 	ands.w	r3, r3, #1
  40639e:	d18f      	bne.n	4062c0 <_svfprintf_r+0x1380>
  4063a0:	9312      	str	r3, [sp, #72]	; 0x48
  4063a2:	9b0d      	ldr	r3, [sp, #52]	; 0x34
  4063a4:	ea23 73e3 	bic.w	r3, r3, r3, asr #31
  4063a8:	e662      	b.n	406070 <_svfprintf_r+0x1130>
  4063aa:	f10b 0302 	add.w	r3, fp, #2
  4063ae:	930d      	str	r3, [sp, #52]	; 0x34
  4063b0:	ea23 73e3 	bic.w	r3, r3, r3, asr #31
  4063b4:	e65c      	b.n	406070 <_svfprintf_r+0x1130>
  4063b6:	9a08      	ldr	r2, [sp, #32]
  4063b8:	230c      	movs	r3, #12
  4063ba:	6013      	str	r3, [r2, #0]
  4063bc:	f04f 30ff 	mov.w	r0, #4294967295
  4063c0:	f7fe be8e 	b.w	4050e0 <_svfprintf_r+0x1a0>
  4063c4:	f10d 037e 	add.w	r3, sp, #126	; 0x7e
  4063c8:	e772      	b.n	4062b0 <_svfprintf_r+0x1370>
  4063ca:	bf00      	nop
  4063cc:	004099b8 	.word	0x004099b8
  4063d0:	66666667 	.word	0x66666667

004063d4 <register_fini>:
  4063d4:	4b02      	ldr	r3, [pc, #8]	; (4063e0 <register_fini+0xc>)
  4063d6:	b113      	cbz	r3, 4063de <register_fini+0xa>
  4063d8:	4802      	ldr	r0, [pc, #8]	; (4063e4 <register_fini+0x10>)
  4063da:	f000 b805 	b.w	4063e8 <atexit>
  4063de:	4770      	bx	lr
  4063e0:	00000000 	.word	0x00000000
  4063e4:	004073b5 	.word	0x004073b5

004063e8 <atexit>:
  4063e8:	4601      	mov	r1, r0
  4063ea:	2000      	movs	r0, #0
  4063ec:	4602      	mov	r2, r0
  4063ee:	4603      	mov	r3, r0
  4063f0:	f002 baa8 	b.w	408944 <__register_exitproc>

004063f4 <quorem>:
  4063f4:	6902      	ldr	r2, [r0, #16]
  4063f6:	690b      	ldr	r3, [r1, #16]
  4063f8:	4293      	cmp	r3, r2
  4063fa:	f300 808f 	bgt.w	40651c <quorem+0x128>
  4063fe:	e92d 4ff0 	stmdb	sp!, {r4, r5, r6, r7, r8, r9, sl, fp, lr}
  406402:	f103 38ff 	add.w	r8, r3, #4294967295
  406406:	f101 0714 	add.w	r7, r1, #20
  40640a:	f100 0b14 	add.w	fp, r0, #20
  40640e:	f857 2028 	ldr.w	r2, [r7, r8, lsl #2]
  406412:	f85b 3028 	ldr.w	r3, [fp, r8, lsl #2]
  406416:	ea4f 0488 	mov.w	r4, r8, lsl #2
  40641a:	b083      	sub	sp, #12
  40641c:	3201      	adds	r2, #1
  40641e:	fbb3 f9f2 	udiv	r9, r3, r2
  406422:	eb0b 0304 	add.w	r3, fp, r4
  406426:	9400      	str	r4, [sp, #0]
  406428:	eb07 0a04 	add.w	sl, r7, r4
  40642c:	9301      	str	r3, [sp, #4]
  40642e:	f1b9 0f00 	cmp.w	r9, #0
  406432:	d03b      	beq.n	4064ac <quorem+0xb8>
  406434:	2600      	movs	r6, #0
  406436:	4632      	mov	r2, r6
  406438:	46bc      	mov	ip, r7
  40643a:	46de      	mov	lr, fp
  40643c:	4634      	mov	r4, r6
  40643e:	f85c 6b04 	ldr.w	r6, [ip], #4
  406442:	f8de 5000 	ldr.w	r5, [lr]
  406446:	b2b3      	uxth	r3, r6
  406448:	0c36      	lsrs	r6, r6, #16
  40644a:	fb03 4409 	mla	r4, r3, r9, r4
  40644e:	fb06 f609 	mul.w	r6, r6, r9
  406452:	eb06 4614 	add.w	r6, r6, r4, lsr #16
  406456:	b2a3      	uxth	r3, r4
  406458:	1ad3      	subs	r3, r2, r3
  40645a:	b2b4      	uxth	r4, r6
  40645c:	fa13 f385 	uxtah	r3, r3, r5
  406460:	ebc4 4415 	rsb	r4, r4, r5, lsr #16
  406464:	eb04 4423 	add.w	r4, r4, r3, asr #16
  406468:	b29b      	uxth	r3, r3
  40646a:	ea43 4304 	orr.w	r3, r3, r4, lsl #16
  40646e:	45e2      	cmp	sl, ip
  406470:	ea4f 4224 	mov.w	r2, r4, asr #16
  406474:	f84e 3b04 	str.w	r3, [lr], #4
  406478:	ea4f 4416 	mov.w	r4, r6, lsr #16
  40647c:	d2df      	bcs.n	40643e <quorem+0x4a>
  40647e:	9b00      	ldr	r3, [sp, #0]
  406480:	f85b 3003 	ldr.w	r3, [fp, r3]
  406484:	b993      	cbnz	r3, 4064ac <quorem+0xb8>
  406486:	9c01      	ldr	r4, [sp, #4]
  406488:	1f23      	subs	r3, r4, #4
  40648a:	459b      	cmp	fp, r3
  40648c:	d20c      	bcs.n	4064a8 <quorem+0xb4>
  40648e:	f854 3c04 	ldr.w	r3, [r4, #-4]
  406492:	b94b      	cbnz	r3, 4064a8 <quorem+0xb4>
  406494:	f1a4 0308 	sub.w	r3, r4, #8
  406498:	e002      	b.n	4064a0 <quorem+0xac>
  40649a:	681a      	ldr	r2, [r3, #0]
  40649c:	3b04      	subs	r3, #4
  40649e:	b91a      	cbnz	r2, 4064a8 <quorem+0xb4>
  4064a0:	459b      	cmp	fp, r3
  4064a2:	f108 38ff 	add.w	r8, r8, #4294967295
  4064a6:	d3f8      	bcc.n	40649a <quorem+0xa6>
  4064a8:	f8c0 8010 	str.w	r8, [r0, #16]
  4064ac:	4604      	mov	r4, r0
  4064ae:	f001 fea9 	bl	408204 <__mcmp>
  4064b2:	2800      	cmp	r0, #0
  4064b4:	db2e      	blt.n	406514 <quorem+0x120>
  4064b6:	f109 0901 	add.w	r9, r9, #1
  4064ba:	465d      	mov	r5, fp
  4064bc:	2300      	movs	r3, #0
  4064be:	f857 1b04 	ldr.w	r1, [r7], #4
  4064c2:	6828      	ldr	r0, [r5, #0]
  4064c4:	b28a      	uxth	r2, r1
  4064c6:	1a9a      	subs	r2, r3, r2
  4064c8:	0c09      	lsrs	r1, r1, #16
  4064ca:	fa12 f280 	uxtah	r2, r2, r0
  4064ce:	ebc1 4310 	rsb	r3, r1, r0, lsr #16
  4064d2:	eb03 4322 	add.w	r3, r3, r2, asr #16
  4064d6:	b291      	uxth	r1, r2
  4064d8:	ea41 4103 	orr.w	r1, r1, r3, lsl #16
  4064dc:	45ba      	cmp	sl, r7
  4064de:	f845 1b04 	str.w	r1, [r5], #4
  4064e2:	ea4f 4323 	mov.w	r3, r3, asr #16
  4064e6:	d2ea      	bcs.n	4064be <quorem+0xca>
  4064e8:	f85b 2028 	ldr.w	r2, [fp, r8, lsl #2]
  4064ec:	eb0b 0388 	add.w	r3, fp, r8, lsl #2
  4064f0:	b982      	cbnz	r2, 406514 <quorem+0x120>
  4064f2:	1f1a      	subs	r2, r3, #4
  4064f4:	4593      	cmp	fp, r2
  4064f6:	d20b      	bcs.n	406510 <quorem+0x11c>
  4064f8:	f853 2c04 	ldr.w	r2, [r3, #-4]
  4064fc:	b942      	cbnz	r2, 406510 <quorem+0x11c>
  4064fe:	3b08      	subs	r3, #8
  406500:	e002      	b.n	406508 <quorem+0x114>
  406502:	681a      	ldr	r2, [r3, #0]
  406504:	3b04      	subs	r3, #4
  406506:	b91a      	cbnz	r2, 406510 <quorem+0x11c>
  406508:	459b      	cmp	fp, r3
  40650a:	f108 38ff 	add.w	r8, r8, #4294967295
  40650e:	d3f8      	bcc.n	406502 <quorem+0x10e>
  406510:	f8c4 8010 	str.w	r8, [r4, #16]
  406514:	4648      	mov	r0, r9
  406516:	b003      	add	sp, #12
  406518:	e8bd 8ff0 	ldmia.w	sp!, {r4, r5, r6, r7, r8, r9, sl, fp, pc}
  40651c:	2000      	movs	r0, #0
  40651e:	4770      	bx	lr

00406520 <_dtoa_r>:
  406520:	e92d 4ff0 	stmdb	sp!, {r4, r5, r6, r7, r8, r9, sl, fp, lr}
  406524:	6c01      	ldr	r1, [r0, #64]	; 0x40
  406526:	b097      	sub	sp, #92	; 0x5c
  406528:	4604      	mov	r4, r0
  40652a:	9d23      	ldr	r5, [sp, #140]	; 0x8c
  40652c:	e9cd 2302 	strd	r2, r3, [sp, #8]
  406530:	b141      	cbz	r1, 406544 <_dtoa_r+0x24>
  406532:	6c42      	ldr	r2, [r0, #68]	; 0x44
  406534:	604a      	str	r2, [r1, #4]
  406536:	2301      	movs	r3, #1
  406538:	4093      	lsls	r3, r2
  40653a:	608b      	str	r3, [r1, #8]
  40653c:	f001 fc7e 	bl	407e3c <_Bfree>
  406540:	2300      	movs	r3, #0
  406542:	6423      	str	r3, [r4, #64]	; 0x40
  406544:	e9dd 2302 	ldrd	r2, r3, [sp, #8]
  406548:	2b00      	cmp	r3, #0
  40654a:	4699      	mov	r9, r3
  40654c:	db36      	blt.n	4065bc <_dtoa_r+0x9c>
  40654e:	2300      	movs	r3, #0
  406550:	602b      	str	r3, [r5, #0]
  406552:	4ba5      	ldr	r3, [pc, #660]	; (4067e8 <_dtoa_r+0x2c8>)
  406554:	461a      	mov	r2, r3
  406556:	ea09 0303 	and.w	r3, r9, r3
  40655a:	4293      	cmp	r3, r2
  40655c:	d017      	beq.n	40658e <_dtoa_r+0x6e>
  40655e:	e9dd 6702 	ldrd	r6, r7, [sp, #8]
  406562:	2200      	movs	r2, #0
  406564:	4630      	mov	r0, r6
  406566:	4639      	mov	r1, r7
  406568:	2300      	movs	r3, #0
  40656a:	f7fe f8d7 	bl	40471c <__aeabi_dcmpeq>
  40656e:	4680      	mov	r8, r0
  406570:	2800      	cmp	r0, #0
  406572:	d02b      	beq.n	4065cc <_dtoa_r+0xac>
  406574:	9a22      	ldr	r2, [sp, #136]	; 0x88
  406576:	2301      	movs	r3, #1
  406578:	6013      	str	r3, [r2, #0]
  40657a:	9b24      	ldr	r3, [sp, #144]	; 0x90
  40657c:	2b00      	cmp	r3, #0
  40657e:	f000 80cb 	beq.w	406718 <_dtoa_r+0x1f8>
  406582:	489a      	ldr	r0, [pc, #616]	; (4067ec <_dtoa_r+0x2cc>)
  406584:	6018      	str	r0, [r3, #0]
  406586:	3801      	subs	r0, #1
  406588:	b017      	add	sp, #92	; 0x5c
  40658a:	e8bd 8ff0 	ldmia.w	sp!, {r4, r5, r6, r7, r8, r9, sl, fp, pc}
  40658e:	9a22      	ldr	r2, [sp, #136]	; 0x88
  406590:	f242 730f 	movw	r3, #9999	; 0x270f
  406594:	6013      	str	r3, [r2, #0]
  406596:	9b02      	ldr	r3, [sp, #8]
  406598:	2b00      	cmp	r3, #0
  40659a:	f000 80a6 	beq.w	4066ea <_dtoa_r+0x1ca>
  40659e:	4894      	ldr	r0, [pc, #592]	; (4067f0 <_dtoa_r+0x2d0>)
  4065a0:	9b24      	ldr	r3, [sp, #144]	; 0x90
  4065a2:	2b00      	cmp	r3, #0
  4065a4:	d0f0      	beq.n	406588 <_dtoa_r+0x68>
  4065a6:	78c3      	ldrb	r3, [r0, #3]
  4065a8:	2b00      	cmp	r3, #0
  4065aa:	f000 80b7 	beq.w	40671c <_dtoa_r+0x1fc>
  4065ae:	f100 0308 	add.w	r3, r0, #8
  4065b2:	9a24      	ldr	r2, [sp, #144]	; 0x90
  4065b4:	6013      	str	r3, [r2, #0]
  4065b6:	b017      	add	sp, #92	; 0x5c
  4065b8:	e8bd 8ff0 	ldmia.w	sp!, {r4, r5, r6, r7, r8, r9, sl, fp, pc}
  4065bc:	9a03      	ldr	r2, [sp, #12]
  4065be:	2301      	movs	r3, #1
  4065c0:	f022 4900 	bic.w	r9, r2, #2147483648	; 0x80000000
  4065c4:	602b      	str	r3, [r5, #0]
  4065c6:	f8cd 900c 	str.w	r9, [sp, #12]
  4065ca:	e7c2      	b.n	406552 <_dtoa_r+0x32>
  4065cc:	aa15      	add	r2, sp, #84	; 0x54
  4065ce:	ab14      	add	r3, sp, #80	; 0x50
  4065d0:	e88d 000c 	stmia.w	sp, {r2, r3}
  4065d4:	4620      	mov	r0, r4
  4065d6:	4632      	mov	r2, r6
  4065d8:	463b      	mov	r3, r7
  4065da:	f001 fea1 	bl	408320 <__d2b>
  4065de:	ea5f 5519 	movs.w	r5, r9, lsr #20
  4065e2:	4683      	mov	fp, r0
  4065e4:	f040 808a 	bne.w	4066fc <_dtoa_r+0x1dc>
  4065e8:	f8dd 8050 	ldr.w	r8, [sp, #80]	; 0x50
  4065ec:	9d15      	ldr	r5, [sp, #84]	; 0x54
  4065ee:	f46f 6382 	mvn.w	r3, #1040	; 0x410
  4065f2:	4445      	add	r5, r8
  4065f4:	429d      	cmp	r5, r3
  4065f6:	f2c0 8297 	blt.w	406b28 <_dtoa_r+0x608>
  4065fa:	4a7e      	ldr	r2, [pc, #504]	; (4067f4 <_dtoa_r+0x2d4>)
  4065fc:	1b52      	subs	r2, r2, r5
  4065fe:	fa09 f902 	lsl.w	r9, r9, r2
  406602:	9a02      	ldr	r2, [sp, #8]
  406604:	f205 4312 	addw	r3, r5, #1042	; 0x412
  406608:	fa22 f003 	lsr.w	r0, r2, r3
  40660c:	ea49 0000 	orr.w	r0, r9, r0
  406610:	f7fd fda6 	bl	404160 <__aeabi_ui2d>
  406614:	2301      	movs	r3, #1
  406616:	3d01      	subs	r5, #1
  406618:	f1a1 71f8 	sub.w	r1, r1, #32505856	; 0x1f00000
  40661c:	930d      	str	r3, [sp, #52]	; 0x34
  40661e:	2200      	movs	r2, #0
  406620:	4b75      	ldr	r3, [pc, #468]	; (4067f8 <_dtoa_r+0x2d8>)
  406622:	f7fd fc5f 	bl	403ee4 <__aeabi_dsub>
  406626:	a36a      	add	r3, pc, #424	; (adr r3, 4067d0 <_dtoa_r+0x2b0>)
  406628:	e9d3 2300 	ldrd	r2, r3, [r3]
  40662c:	f7fd fe0e 	bl	40424c <__aeabi_dmul>
  406630:	a369      	add	r3, pc, #420	; (adr r3, 4067d8 <_dtoa_r+0x2b8>)
  406632:	e9d3 2300 	ldrd	r2, r3, [r3]
  406636:	f7fd fc57 	bl	403ee8 <__adddf3>
  40663a:	4606      	mov	r6, r0
  40663c:	4628      	mov	r0, r5
  40663e:	460f      	mov	r7, r1
  406640:	f7fd fd9e 	bl	404180 <__aeabi_i2d>
  406644:	a366      	add	r3, pc, #408	; (adr r3, 4067e0 <_dtoa_r+0x2c0>)
  406646:	e9d3 2300 	ldrd	r2, r3, [r3]
  40664a:	f7fd fdff 	bl	40424c <__aeabi_dmul>
  40664e:	4602      	mov	r2, r0
  406650:	460b      	mov	r3, r1
  406652:	4630      	mov	r0, r6
  406654:	4639      	mov	r1, r7
  406656:	f7fd fc47 	bl	403ee8 <__adddf3>
  40665a:	4606      	mov	r6, r0
  40665c:	460f      	mov	r7, r1
  40665e:	f7fe f88f 	bl	404780 <__aeabi_d2iz>
  406662:	4639      	mov	r1, r7
  406664:	9004      	str	r0, [sp, #16]
  406666:	2200      	movs	r2, #0
  406668:	4630      	mov	r0, r6
  40666a:	2300      	movs	r3, #0
  40666c:	f7fe f860 	bl	404730 <__aeabi_dcmplt>
  406670:	2800      	cmp	r0, #0
  406672:	f040 81a6 	bne.w	4069c2 <_dtoa_r+0x4a2>
  406676:	9b04      	ldr	r3, [sp, #16]
  406678:	2b16      	cmp	r3, #22
  40667a:	f200 819f 	bhi.w	4069bc <_dtoa_r+0x49c>
  40667e:	9a04      	ldr	r2, [sp, #16]
  406680:	4b5e      	ldr	r3, [pc, #376]	; (4067fc <_dtoa_r+0x2dc>)
  406682:	eb03 03c2 	add.w	r3, r3, r2, lsl #3
  406686:	e9d3 0100 	ldrd	r0, r1, [r3]
  40668a:	e9dd 2302 	ldrd	r2, r3, [sp, #8]
  40668e:	f7fe f86d 	bl	40476c <__aeabi_dcmpgt>
  406692:	2800      	cmp	r0, #0
  406694:	f000 824e 	beq.w	406b34 <_dtoa_r+0x614>
  406698:	9b04      	ldr	r3, [sp, #16]
  40669a:	3b01      	subs	r3, #1
  40669c:	9304      	str	r3, [sp, #16]
  40669e:	2300      	movs	r3, #0
  4066a0:	930b      	str	r3, [sp, #44]	; 0x2c
  4066a2:	ebc5 0508 	rsb	r5, r5, r8
  4066a6:	f1b5 0a01 	subs.w	sl, r5, #1
  4066aa:	f100 81a1 	bmi.w	4069f0 <_dtoa_r+0x4d0>
  4066ae:	2300      	movs	r3, #0
  4066b0:	9305      	str	r3, [sp, #20]
  4066b2:	9b04      	ldr	r3, [sp, #16]
  4066b4:	2b00      	cmp	r3, #0
  4066b6:	f2c0 8192 	blt.w	4069de <_dtoa_r+0x4be>
  4066ba:	449a      	add	sl, r3
  4066bc:	930a      	str	r3, [sp, #40]	; 0x28
  4066be:	2300      	movs	r3, #0
  4066c0:	9308      	str	r3, [sp, #32]
  4066c2:	9b20      	ldr	r3, [sp, #128]	; 0x80
  4066c4:	2b09      	cmp	r3, #9
  4066c6:	d82b      	bhi.n	406720 <_dtoa_r+0x200>
  4066c8:	2b05      	cmp	r3, #5
  4066ca:	f340 8670 	ble.w	4073ae <_dtoa_r+0xe8e>
  4066ce:	3b04      	subs	r3, #4
  4066d0:	9320      	str	r3, [sp, #128]	; 0x80
  4066d2:	2500      	movs	r5, #0
  4066d4:	9b20      	ldr	r3, [sp, #128]	; 0x80
  4066d6:	3b02      	subs	r3, #2
  4066d8:	2b03      	cmp	r3, #3
  4066da:	f200 864e 	bhi.w	40737a <_dtoa_r+0xe5a>
  4066de:	e8df f013 	tbh	[pc, r3, lsl #1]
  4066e2:	03cc      	.short	0x03cc
  4066e4:	02b203be 	.word	0x02b203be
  4066e8:	0663      	.short	0x0663
  4066ea:	4b41      	ldr	r3, [pc, #260]	; (4067f0 <_dtoa_r+0x2d0>)
  4066ec:	4a44      	ldr	r2, [pc, #272]	; (406800 <_dtoa_r+0x2e0>)
  4066ee:	f3c9 0013 	ubfx	r0, r9, #0, #20
  4066f2:	2800      	cmp	r0, #0
  4066f4:	bf14      	ite	ne
  4066f6:	4618      	movne	r0, r3
  4066f8:	4610      	moveq	r0, r2
  4066fa:	e751      	b.n	4065a0 <_dtoa_r+0x80>
  4066fc:	f3c7 0313 	ubfx	r3, r7, #0, #20
  406700:	f043 517f 	orr.w	r1, r3, #1069547520	; 0x3fc00000
  406704:	f8cd 8034 	str.w	r8, [sp, #52]	; 0x34
  406708:	4630      	mov	r0, r6
  40670a:	f2a5 35ff 	subw	r5, r5, #1023	; 0x3ff
  40670e:	f441 1140 	orr.w	r1, r1, #3145728	; 0x300000
  406712:	f8dd 8050 	ldr.w	r8, [sp, #80]	; 0x50
  406716:	e782      	b.n	40661e <_dtoa_r+0xfe>
  406718:	483a      	ldr	r0, [pc, #232]	; (406804 <_dtoa_r+0x2e4>)
  40671a:	e735      	b.n	406588 <_dtoa_r+0x68>
  40671c:	1cc3      	adds	r3, r0, #3
  40671e:	e748      	b.n	4065b2 <_dtoa_r+0x92>
  406720:	2100      	movs	r1, #0
  406722:	6461      	str	r1, [r4, #68]	; 0x44
  406724:	4620      	mov	r0, r4
  406726:	9120      	str	r1, [sp, #128]	; 0x80
  406728:	f001 fb62 	bl	407df0 <_Balloc>
  40672c:	f04f 33ff 	mov.w	r3, #4294967295
  406730:	9306      	str	r3, [sp, #24]
  406732:	9a20      	ldr	r2, [sp, #128]	; 0x80
  406734:	930c      	str	r3, [sp, #48]	; 0x30
  406736:	2301      	movs	r3, #1
  406738:	9007      	str	r0, [sp, #28]
  40673a:	9221      	str	r2, [sp, #132]	; 0x84
  40673c:	6420      	str	r0, [r4, #64]	; 0x40
  40673e:	9309      	str	r3, [sp, #36]	; 0x24
  406740:	9b15      	ldr	r3, [sp, #84]	; 0x54
  406742:	2b00      	cmp	r3, #0
  406744:	f2c0 80d2 	blt.w	4068ec <_dtoa_r+0x3cc>
  406748:	9a04      	ldr	r2, [sp, #16]
  40674a:	2a0e      	cmp	r2, #14
  40674c:	f300 80ce 	bgt.w	4068ec <_dtoa_r+0x3cc>
  406750:	4b2a      	ldr	r3, [pc, #168]	; (4067fc <_dtoa_r+0x2dc>)
  406752:	eb03 03c2 	add.w	r3, r3, r2, lsl #3
  406756:	e9d3 8900 	ldrd	r8, r9, [r3]
  40675a:	9b21      	ldr	r3, [sp, #132]	; 0x84
  40675c:	2b00      	cmp	r3, #0
  40675e:	f2c0 838f 	blt.w	406e80 <_dtoa_r+0x960>
  406762:	e9dd 6702 	ldrd	r6, r7, [sp, #8]
  406766:	4642      	mov	r2, r8
  406768:	464b      	mov	r3, r9
  40676a:	4630      	mov	r0, r6
  40676c:	4639      	mov	r1, r7
  40676e:	f7fd fe97 	bl	4044a0 <__aeabi_ddiv>
  406772:	f7fe f805 	bl	404780 <__aeabi_d2iz>
  406776:	4682      	mov	sl, r0
  406778:	f7fd fd02 	bl	404180 <__aeabi_i2d>
  40677c:	4642      	mov	r2, r8
  40677e:	464b      	mov	r3, r9
  406780:	f7fd fd64 	bl	40424c <__aeabi_dmul>
  406784:	460b      	mov	r3, r1
  406786:	4602      	mov	r2, r0
  406788:	4639      	mov	r1, r7
  40678a:	4630      	mov	r0, r6
  40678c:	f7fd fbaa 	bl	403ee4 <__aeabi_dsub>
  406790:	9d07      	ldr	r5, [sp, #28]
  406792:	f10a 0330 	add.w	r3, sl, #48	; 0x30
  406796:	702b      	strb	r3, [r5, #0]
  406798:	9b06      	ldr	r3, [sp, #24]
  40679a:	2b01      	cmp	r3, #1
  40679c:	4606      	mov	r6, r0
  40679e:	460f      	mov	r7, r1
  4067a0:	f105 0501 	add.w	r5, r5, #1
  4067a4:	d062      	beq.n	40686c <_dtoa_r+0x34c>
  4067a6:	2200      	movs	r2, #0
  4067a8:	4b17      	ldr	r3, [pc, #92]	; (406808 <_dtoa_r+0x2e8>)
  4067aa:	f7fd fd4f 	bl	40424c <__aeabi_dmul>
  4067ae:	2200      	movs	r2, #0
  4067b0:	2300      	movs	r3, #0
  4067b2:	4606      	mov	r6, r0
  4067b4:	460f      	mov	r7, r1
  4067b6:	f7fd ffb1 	bl	40471c <__aeabi_dcmpeq>
  4067ba:	2800      	cmp	r0, #0
  4067bc:	f040 8083 	bne.w	4068c6 <_dtoa_r+0x3a6>
  4067c0:	f8cd b008 	str.w	fp, [sp, #8]
  4067c4:	9405      	str	r4, [sp, #20]
  4067c6:	f8dd b01c 	ldr.w	fp, [sp, #28]
  4067ca:	9c06      	ldr	r4, [sp, #24]
  4067cc:	e029      	b.n	406822 <_dtoa_r+0x302>
  4067ce:	bf00      	nop
  4067d0:	636f4361 	.word	0x636f4361
  4067d4:	3fd287a7 	.word	0x3fd287a7
  4067d8:	8b60c8b3 	.word	0x8b60c8b3
  4067dc:	3fc68a28 	.word	0x3fc68a28
  4067e0:	509f79fb 	.word	0x509f79fb
  4067e4:	3fd34413 	.word	0x3fd34413
  4067e8:	7ff00000 	.word	0x7ff00000
  4067ec:	004099c1 	.word	0x004099c1
  4067f0:	004099d0 	.word	0x004099d0
  4067f4:	fffffc0e 	.word	0xfffffc0e
  4067f8:	3ff80000 	.word	0x3ff80000
  4067fc:	004099e0 	.word	0x004099e0
  406800:	004099c4 	.word	0x004099c4
  406804:	004099c0 	.word	0x004099c0
  406808:	40240000 	.word	0x40240000
  40680c:	f7fd fd1e 	bl	40424c <__aeabi_dmul>
  406810:	2200      	movs	r2, #0
  406812:	2300      	movs	r3, #0
  406814:	4606      	mov	r6, r0
  406816:	460f      	mov	r7, r1
  406818:	f7fd ff80 	bl	40471c <__aeabi_dcmpeq>
  40681c:	2800      	cmp	r0, #0
  40681e:	f040 83de 	bne.w	406fde <_dtoa_r+0xabe>
  406822:	4642      	mov	r2, r8
  406824:	464b      	mov	r3, r9
  406826:	4630      	mov	r0, r6
  406828:	4639      	mov	r1, r7
  40682a:	f7fd fe39 	bl	4044a0 <__aeabi_ddiv>
  40682e:	f7fd ffa7 	bl	404780 <__aeabi_d2iz>
  406832:	4682      	mov	sl, r0
  406834:	f7fd fca4 	bl	404180 <__aeabi_i2d>
  406838:	4642      	mov	r2, r8
  40683a:	464b      	mov	r3, r9
  40683c:	f7fd fd06 	bl	40424c <__aeabi_dmul>
  406840:	4602      	mov	r2, r0
  406842:	460b      	mov	r3, r1
  406844:	4630      	mov	r0, r6
  406846:	4639      	mov	r1, r7
  406848:	f7fd fb4c 	bl	403ee4 <__aeabi_dsub>
  40684c:	f10a 0e30 	add.w	lr, sl, #48	; 0x30
  406850:	f805 eb01 	strb.w	lr, [r5], #1
  406854:	ebcb 0e05 	rsb	lr, fp, r5
  406858:	4574      	cmp	r4, lr
  40685a:	4606      	mov	r6, r0
  40685c:	460f      	mov	r7, r1
  40685e:	f04f 0200 	mov.w	r2, #0
  406862:	4bb5      	ldr	r3, [pc, #724]	; (406b38 <_dtoa_r+0x618>)
  406864:	d1d2      	bne.n	40680c <_dtoa_r+0x2ec>
  406866:	f8dd b008 	ldr.w	fp, [sp, #8]
  40686a:	9c05      	ldr	r4, [sp, #20]
  40686c:	4632      	mov	r2, r6
  40686e:	463b      	mov	r3, r7
  406870:	4630      	mov	r0, r6
  406872:	4639      	mov	r1, r7
  406874:	f7fd fb38 	bl	403ee8 <__adddf3>
  406878:	4606      	mov	r6, r0
  40687a:	460f      	mov	r7, r1
  40687c:	4640      	mov	r0, r8
  40687e:	4649      	mov	r1, r9
  406880:	4632      	mov	r2, r6
  406882:	463b      	mov	r3, r7
  406884:	f7fd ff54 	bl	404730 <__aeabi_dcmplt>
  406888:	b948      	cbnz	r0, 40689e <_dtoa_r+0x37e>
  40688a:	4640      	mov	r0, r8
  40688c:	4649      	mov	r1, r9
  40688e:	4632      	mov	r2, r6
  406890:	463b      	mov	r3, r7
  406892:	f7fd ff43 	bl	40471c <__aeabi_dcmpeq>
  406896:	b1b0      	cbz	r0, 4068c6 <_dtoa_r+0x3a6>
  406898:	f01a 0f01 	tst.w	sl, #1
  40689c:	d013      	beq.n	4068c6 <_dtoa_r+0x3a6>
  40689e:	f815 8c01 	ldrb.w	r8, [r5, #-1]
  4068a2:	9907      	ldr	r1, [sp, #28]
  4068a4:	1e6b      	subs	r3, r5, #1
  4068a6:	e004      	b.n	4068b2 <_dtoa_r+0x392>
  4068a8:	428b      	cmp	r3, r1
  4068aa:	f000 8440 	beq.w	40712e <_dtoa_r+0xc0e>
  4068ae:	f813 8d01 	ldrb.w	r8, [r3, #-1]!
  4068b2:	f1b8 0f39 	cmp.w	r8, #57	; 0x39
  4068b6:	f103 0501 	add.w	r5, r3, #1
  4068ba:	461a      	mov	r2, r3
  4068bc:	d0f4      	beq.n	4068a8 <_dtoa_r+0x388>
  4068be:	f108 0301 	add.w	r3, r8, #1
  4068c2:	b2db      	uxtb	r3, r3
  4068c4:	7013      	strb	r3, [r2, #0]
  4068c6:	4620      	mov	r0, r4
  4068c8:	4659      	mov	r1, fp
  4068ca:	f001 fab7 	bl	407e3c <_Bfree>
  4068ce:	2200      	movs	r2, #0
  4068d0:	9b04      	ldr	r3, [sp, #16]
  4068d2:	702a      	strb	r2, [r5, #0]
  4068d4:	9a22      	ldr	r2, [sp, #136]	; 0x88
  4068d6:	3301      	adds	r3, #1
  4068d8:	6013      	str	r3, [r2, #0]
  4068da:	9b24      	ldr	r3, [sp, #144]	; 0x90
  4068dc:	2b00      	cmp	r3, #0
  4068de:	f000 8345 	beq.w	406f6c <_dtoa_r+0xa4c>
  4068e2:	9807      	ldr	r0, [sp, #28]
  4068e4:	601d      	str	r5, [r3, #0]
  4068e6:	b017      	add	sp, #92	; 0x5c
  4068e8:	e8bd 8ff0 	ldmia.w	sp!, {r4, r5, r6, r7, r8, r9, sl, fp, pc}
  4068ec:	9a09      	ldr	r2, [sp, #36]	; 0x24
  4068ee:	2a00      	cmp	r2, #0
  4068f0:	f000 8084 	beq.w	4069fc <_dtoa_r+0x4dc>
  4068f4:	9a20      	ldr	r2, [sp, #128]	; 0x80
  4068f6:	2a01      	cmp	r2, #1
  4068f8:	f340 8304 	ble.w	406f04 <_dtoa_r+0x9e4>
  4068fc:	9b06      	ldr	r3, [sp, #24]
  4068fe:	1e5f      	subs	r7, r3, #1
  406900:	9b08      	ldr	r3, [sp, #32]
  406902:	42bb      	cmp	r3, r7
  406904:	f2c0 83a9 	blt.w	40705a <_dtoa_r+0xb3a>
  406908:	1bdf      	subs	r7, r3, r7
  40690a:	9b06      	ldr	r3, [sp, #24]
  40690c:	2b00      	cmp	r3, #0
  40690e:	f2c0 849c 	blt.w	40724a <_dtoa_r+0xd2a>
  406912:	9d05      	ldr	r5, [sp, #20]
  406914:	9b06      	ldr	r3, [sp, #24]
  406916:	9a05      	ldr	r2, [sp, #20]
  406918:	4620      	mov	r0, r4
  40691a:	441a      	add	r2, r3
  40691c:	2101      	movs	r1, #1
  40691e:	9205      	str	r2, [sp, #20]
  406920:	449a      	add	sl, r3
  406922:	f001 fb25 	bl	407f70 <__i2b>
  406926:	4606      	mov	r6, r0
  406928:	b165      	cbz	r5, 406944 <_dtoa_r+0x424>
  40692a:	f1ba 0f00 	cmp.w	sl, #0
  40692e:	dd09      	ble.n	406944 <_dtoa_r+0x424>
  406930:	45aa      	cmp	sl, r5
  406932:	9a05      	ldr	r2, [sp, #20]
  406934:	4653      	mov	r3, sl
  406936:	bfa8      	it	ge
  406938:	462b      	movge	r3, r5
  40693a:	1ad2      	subs	r2, r2, r3
  40693c:	9205      	str	r2, [sp, #20]
  40693e:	1aed      	subs	r5, r5, r3
  406940:	ebc3 0a0a 	rsb	sl, r3, sl
  406944:	9b08      	ldr	r3, [sp, #32]
  406946:	2b00      	cmp	r3, #0
  406948:	dd1a      	ble.n	406980 <_dtoa_r+0x460>
  40694a:	9b09      	ldr	r3, [sp, #36]	; 0x24
  40694c:	2b00      	cmp	r3, #0
  40694e:	f000 837d 	beq.w	40704c <_dtoa_r+0xb2c>
  406952:	2f00      	cmp	r7, #0
  406954:	dd10      	ble.n	406978 <_dtoa_r+0x458>
  406956:	4631      	mov	r1, r6
  406958:	463a      	mov	r2, r7
  40695a:	4620      	mov	r0, r4
  40695c:	f001 fbac 	bl	4080b8 <__pow5mult>
  406960:	4606      	mov	r6, r0
  406962:	465a      	mov	r2, fp
  406964:	4631      	mov	r1, r6
  406966:	4620      	mov	r0, r4
  406968:	f001 fb0c 	bl	407f84 <__multiply>
  40696c:	4659      	mov	r1, fp
  40696e:	4680      	mov	r8, r0
  406970:	4620      	mov	r0, r4
  406972:	f001 fa63 	bl	407e3c <_Bfree>
  406976:	46c3      	mov	fp, r8
  406978:	9b08      	ldr	r3, [sp, #32]
  40697a:	1bda      	subs	r2, r3, r7
  40697c:	f040 82a2 	bne.w	406ec4 <_dtoa_r+0x9a4>
  406980:	4620      	mov	r0, r4
  406982:	2101      	movs	r1, #1
  406984:	f001 faf4 	bl	407f70 <__i2b>
  406988:	9b0a      	ldr	r3, [sp, #40]	; 0x28
  40698a:	2b00      	cmp	r3, #0
  40698c:	4680      	mov	r8, r0
  40698e:	dd39      	ble.n	406a04 <_dtoa_r+0x4e4>
  406990:	4601      	mov	r1, r0
  406992:	461a      	mov	r2, r3
  406994:	4620      	mov	r0, r4
  406996:	f001 fb8f 	bl	4080b8 <__pow5mult>
  40699a:	9b20      	ldr	r3, [sp, #128]	; 0x80
  40699c:	2b01      	cmp	r3, #1
  40699e:	4680      	mov	r8, r0
  4069a0:	f340 8296 	ble.w	406ed0 <_dtoa_r+0x9b0>
  4069a4:	f04f 0900 	mov.w	r9, #0
  4069a8:	f8d8 3010 	ldr.w	r3, [r8, #16]
  4069ac:	eb08 0383 	add.w	r3, r8, r3, lsl #2
  4069b0:	6918      	ldr	r0, [r3, #16]
  4069b2:	f001 fa8f 	bl	407ed4 <__hi0bits>
  4069b6:	f1c0 0020 	rsb	r0, r0, #32
  4069ba:	e02d      	b.n	406a18 <_dtoa_r+0x4f8>
  4069bc:	2301      	movs	r3, #1
  4069be:	930b      	str	r3, [sp, #44]	; 0x2c
  4069c0:	e66f      	b.n	4066a2 <_dtoa_r+0x182>
  4069c2:	9804      	ldr	r0, [sp, #16]
  4069c4:	f7fd fbdc 	bl	404180 <__aeabi_i2d>
  4069c8:	4632      	mov	r2, r6
  4069ca:	463b      	mov	r3, r7
  4069cc:	f7fd fea6 	bl	40471c <__aeabi_dcmpeq>
  4069d0:	2800      	cmp	r0, #0
  4069d2:	f47f ae50 	bne.w	406676 <_dtoa_r+0x156>
  4069d6:	9b04      	ldr	r3, [sp, #16]
  4069d8:	3b01      	subs	r3, #1
  4069da:	9304      	str	r3, [sp, #16]
  4069dc:	e64b      	b.n	406676 <_dtoa_r+0x156>
  4069de:	9a05      	ldr	r2, [sp, #20]
  4069e0:	9b04      	ldr	r3, [sp, #16]
  4069e2:	1ad2      	subs	r2, r2, r3
  4069e4:	425b      	negs	r3, r3
  4069e6:	9308      	str	r3, [sp, #32]
  4069e8:	2300      	movs	r3, #0
  4069ea:	9205      	str	r2, [sp, #20]
  4069ec:	930a      	str	r3, [sp, #40]	; 0x28
  4069ee:	e668      	b.n	4066c2 <_dtoa_r+0x1a2>
  4069f0:	f1ca 0300 	rsb	r3, sl, #0
  4069f4:	9305      	str	r3, [sp, #20]
  4069f6:	f04f 0a00 	mov.w	sl, #0
  4069fa:	e65a      	b.n	4066b2 <_dtoa_r+0x192>
  4069fc:	9f08      	ldr	r7, [sp, #32]
  4069fe:	9d05      	ldr	r5, [sp, #20]
  406a00:	9e09      	ldr	r6, [sp, #36]	; 0x24
  406a02:	e791      	b.n	406928 <_dtoa_r+0x408>
  406a04:	9b20      	ldr	r3, [sp, #128]	; 0x80
  406a06:	2b01      	cmp	r3, #1
  406a08:	f340 82b3 	ble.w	406f72 <_dtoa_r+0xa52>
  406a0c:	f04f 0900 	mov.w	r9, #0
  406a10:	9b0a      	ldr	r3, [sp, #40]	; 0x28
  406a12:	2b00      	cmp	r3, #0
  406a14:	d1c8      	bne.n	4069a8 <_dtoa_r+0x488>
  406a16:	2001      	movs	r0, #1
  406a18:	4450      	add	r0, sl
  406a1a:	f010 001f 	ands.w	r0, r0, #31
  406a1e:	f000 8081 	beq.w	406b24 <_dtoa_r+0x604>
  406a22:	f1c0 0320 	rsb	r3, r0, #32
  406a26:	2b04      	cmp	r3, #4
  406a28:	f340 84b8 	ble.w	40739c <_dtoa_r+0xe7c>
  406a2c:	f1c0 001c 	rsb	r0, r0, #28
  406a30:	9b05      	ldr	r3, [sp, #20]
  406a32:	4403      	add	r3, r0
  406a34:	9305      	str	r3, [sp, #20]
  406a36:	4405      	add	r5, r0
  406a38:	4482      	add	sl, r0
  406a3a:	9b05      	ldr	r3, [sp, #20]
  406a3c:	2b00      	cmp	r3, #0
  406a3e:	dd05      	ble.n	406a4c <_dtoa_r+0x52c>
  406a40:	4659      	mov	r1, fp
  406a42:	461a      	mov	r2, r3
  406a44:	4620      	mov	r0, r4
  406a46:	f001 fb87 	bl	408158 <__lshift>
  406a4a:	4683      	mov	fp, r0
  406a4c:	f1ba 0f00 	cmp.w	sl, #0
  406a50:	dd05      	ble.n	406a5e <_dtoa_r+0x53e>
  406a52:	4641      	mov	r1, r8
  406a54:	4652      	mov	r2, sl
  406a56:	4620      	mov	r0, r4
  406a58:	f001 fb7e 	bl	408158 <__lshift>
  406a5c:	4680      	mov	r8, r0
  406a5e:	9b0b      	ldr	r3, [sp, #44]	; 0x2c
  406a60:	2b00      	cmp	r3, #0
  406a62:	f040 8268 	bne.w	406f36 <_dtoa_r+0xa16>
  406a66:	9b06      	ldr	r3, [sp, #24]
  406a68:	2b00      	cmp	r3, #0
  406a6a:	f340 8295 	ble.w	406f98 <_dtoa_r+0xa78>
  406a6e:	9b09      	ldr	r3, [sp, #36]	; 0x24
  406a70:	2b00      	cmp	r3, #0
  406a72:	d171      	bne.n	406b58 <_dtoa_r+0x638>
  406a74:	f8dd 901c 	ldr.w	r9, [sp, #28]
  406a78:	9f06      	ldr	r7, [sp, #24]
  406a7a:	464d      	mov	r5, r9
  406a7c:	e002      	b.n	406a84 <_dtoa_r+0x564>
  406a7e:	f001 f9e7 	bl	407e50 <__multadd>
  406a82:	4683      	mov	fp, r0
  406a84:	4641      	mov	r1, r8
  406a86:	4658      	mov	r0, fp
  406a88:	f7ff fcb4 	bl	4063f4 <quorem>
  406a8c:	f100 0c30 	add.w	ip, r0, #48	; 0x30
  406a90:	f805 cb01 	strb.w	ip, [r5], #1
  406a94:	ebc9 0305 	rsb	r3, r9, r5
  406a98:	42bb      	cmp	r3, r7
  406a9a:	4620      	mov	r0, r4
  406a9c:	4659      	mov	r1, fp
  406a9e:	f04f 020a 	mov.w	r2, #10
  406aa2:	f04f 0300 	mov.w	r3, #0
  406aa6:	dbea      	blt.n	406a7e <_dtoa_r+0x55e>
  406aa8:	9b07      	ldr	r3, [sp, #28]
  406aaa:	9a06      	ldr	r2, [sp, #24]
  406aac:	2a01      	cmp	r2, #1
  406aae:	bfac      	ite	ge
  406ab0:	189b      	addge	r3, r3, r2
  406ab2:	3301      	addlt	r3, #1
  406ab4:	461d      	mov	r5, r3
  406ab6:	f04f 0a00 	mov.w	sl, #0
  406aba:	4659      	mov	r1, fp
  406abc:	2201      	movs	r2, #1
  406abe:	4620      	mov	r0, r4
  406ac0:	f8cd c008 	str.w	ip, [sp, #8]
  406ac4:	f001 fb48 	bl	408158 <__lshift>
  406ac8:	4641      	mov	r1, r8
  406aca:	4683      	mov	fp, r0
  406acc:	f001 fb9a 	bl	408204 <__mcmp>
  406ad0:	2800      	cmp	r0, #0
  406ad2:	f8dd c008 	ldr.w	ip, [sp, #8]
  406ad6:	f340 82f6 	ble.w	4070c6 <_dtoa_r+0xba6>
  406ada:	f815 2c01 	ldrb.w	r2, [r5, #-1]
  406ade:	9907      	ldr	r1, [sp, #28]
  406ae0:	1e6b      	subs	r3, r5, #1
  406ae2:	e004      	b.n	406aee <_dtoa_r+0x5ce>
  406ae4:	428b      	cmp	r3, r1
  406ae6:	f000 8273 	beq.w	406fd0 <_dtoa_r+0xab0>
  406aea:	f813 2d01 	ldrb.w	r2, [r3, #-1]!
  406aee:	2a39      	cmp	r2, #57	; 0x39
  406af0:	f103 0501 	add.w	r5, r3, #1
  406af4:	d0f6      	beq.n	406ae4 <_dtoa_r+0x5c4>
  406af6:	3201      	adds	r2, #1
  406af8:	701a      	strb	r2, [r3, #0]
  406afa:	4641      	mov	r1, r8
  406afc:	4620      	mov	r0, r4
  406afe:	f001 f99d 	bl	407e3c <_Bfree>
  406b02:	2e00      	cmp	r6, #0
  406b04:	f43f aedf 	beq.w	4068c6 <_dtoa_r+0x3a6>
  406b08:	f1ba 0f00 	cmp.w	sl, #0
  406b0c:	d005      	beq.n	406b1a <_dtoa_r+0x5fa>
  406b0e:	45b2      	cmp	sl, r6
  406b10:	d003      	beq.n	406b1a <_dtoa_r+0x5fa>
  406b12:	4651      	mov	r1, sl
  406b14:	4620      	mov	r0, r4
  406b16:	f001 f991 	bl	407e3c <_Bfree>
  406b1a:	4631      	mov	r1, r6
  406b1c:	4620      	mov	r0, r4
  406b1e:	f001 f98d 	bl	407e3c <_Bfree>
  406b22:	e6d0      	b.n	4068c6 <_dtoa_r+0x3a6>
  406b24:	201c      	movs	r0, #28
  406b26:	e783      	b.n	406a30 <_dtoa_r+0x510>
  406b28:	4b04      	ldr	r3, [pc, #16]	; (406b3c <_dtoa_r+0x61c>)
  406b2a:	9a02      	ldr	r2, [sp, #8]
  406b2c:	1b5b      	subs	r3, r3, r5
  406b2e:	fa02 f003 	lsl.w	r0, r2, r3
  406b32:	e56d      	b.n	406610 <_dtoa_r+0xf0>
  406b34:	900b      	str	r0, [sp, #44]	; 0x2c
  406b36:	e5b4      	b.n	4066a2 <_dtoa_r+0x182>
  406b38:	40240000 	.word	0x40240000
  406b3c:	fffffbee 	.word	0xfffffbee
  406b40:	4631      	mov	r1, r6
  406b42:	2300      	movs	r3, #0
  406b44:	4620      	mov	r0, r4
  406b46:	220a      	movs	r2, #10
  406b48:	f001 f982 	bl	407e50 <__multadd>
  406b4c:	9b0c      	ldr	r3, [sp, #48]	; 0x30
  406b4e:	2b00      	cmp	r3, #0
  406b50:	4606      	mov	r6, r0
  406b52:	f340 840c 	ble.w	40736e <_dtoa_r+0xe4e>
  406b56:	9306      	str	r3, [sp, #24]
  406b58:	2d00      	cmp	r5, #0
  406b5a:	dd05      	ble.n	406b68 <_dtoa_r+0x648>
  406b5c:	4631      	mov	r1, r6
  406b5e:	462a      	mov	r2, r5
  406b60:	4620      	mov	r0, r4
  406b62:	f001 faf9 	bl	408158 <__lshift>
  406b66:	4606      	mov	r6, r0
  406b68:	f1b9 0f00 	cmp.w	r9, #0
  406b6c:	f040 82e9 	bne.w	407142 <_dtoa_r+0xc22>
  406b70:	46b1      	mov	r9, r6
  406b72:	9b06      	ldr	r3, [sp, #24]
  406b74:	9a07      	ldr	r2, [sp, #28]
  406b76:	3b01      	subs	r3, #1
  406b78:	18d3      	adds	r3, r2, r3
  406b7a:	9308      	str	r3, [sp, #32]
  406b7c:	9b02      	ldr	r3, [sp, #8]
  406b7e:	f003 0301 	and.w	r3, r3, #1
  406b82:	9309      	str	r3, [sp, #36]	; 0x24
  406b84:	4617      	mov	r7, r2
  406b86:	4641      	mov	r1, r8
  406b88:	4658      	mov	r0, fp
  406b8a:	f7ff fc33 	bl	4063f4 <quorem>
  406b8e:	4631      	mov	r1, r6
  406b90:	4605      	mov	r5, r0
  406b92:	4658      	mov	r0, fp
  406b94:	f001 fb36 	bl	408204 <__mcmp>
  406b98:	464a      	mov	r2, r9
  406b9a:	4682      	mov	sl, r0
  406b9c:	4641      	mov	r1, r8
  406b9e:	4620      	mov	r0, r4
  406ba0:	f001 fb54 	bl	40824c <__mdiff>
  406ba4:	68c2      	ldr	r2, [r0, #12]
  406ba6:	4603      	mov	r3, r0
  406ba8:	f105 0c30 	add.w	ip, r5, #48	; 0x30
  406bac:	2a00      	cmp	r2, #0
  406bae:	f040 81b8 	bne.w	406f22 <_dtoa_r+0xa02>
  406bb2:	4619      	mov	r1, r3
  406bb4:	4658      	mov	r0, fp
  406bb6:	f8cd c018 	str.w	ip, [sp, #24]
  406bba:	9305      	str	r3, [sp, #20]
  406bbc:	f001 fb22 	bl	408204 <__mcmp>
  406bc0:	9b05      	ldr	r3, [sp, #20]
  406bc2:	9002      	str	r0, [sp, #8]
  406bc4:	4619      	mov	r1, r3
  406bc6:	4620      	mov	r0, r4
  406bc8:	f001 f938 	bl	407e3c <_Bfree>
  406bcc:	9a02      	ldr	r2, [sp, #8]
  406bce:	f8dd c018 	ldr.w	ip, [sp, #24]
  406bd2:	b92a      	cbnz	r2, 406be0 <_dtoa_r+0x6c0>
  406bd4:	9b20      	ldr	r3, [sp, #128]	; 0x80
  406bd6:	b91b      	cbnz	r3, 406be0 <_dtoa_r+0x6c0>
  406bd8:	9b09      	ldr	r3, [sp, #36]	; 0x24
  406bda:	2b00      	cmp	r3, #0
  406bdc:	f000 83a7 	beq.w	40732e <_dtoa_r+0xe0e>
  406be0:	f1ba 0f00 	cmp.w	sl, #0
  406be4:	f2c0 8251 	blt.w	40708a <_dtoa_r+0xb6a>
  406be8:	d105      	bne.n	406bf6 <_dtoa_r+0x6d6>
  406bea:	9b20      	ldr	r3, [sp, #128]	; 0x80
  406bec:	b91b      	cbnz	r3, 406bf6 <_dtoa_r+0x6d6>
  406bee:	9b09      	ldr	r3, [sp, #36]	; 0x24
  406bf0:	2b00      	cmp	r3, #0
  406bf2:	f000 824a 	beq.w	40708a <_dtoa_r+0xb6a>
  406bf6:	2a00      	cmp	r2, #0
  406bf8:	f300 82b7 	bgt.w	40716a <_dtoa_r+0xc4a>
  406bfc:	9b08      	ldr	r3, [sp, #32]
  406bfe:	f887 c000 	strb.w	ip, [r7]
  406c02:	f107 0a01 	add.w	sl, r7, #1
  406c06:	429f      	cmp	r7, r3
  406c08:	4655      	mov	r5, sl
  406c0a:	f000 82ba 	beq.w	407182 <_dtoa_r+0xc62>
  406c0e:	4659      	mov	r1, fp
  406c10:	220a      	movs	r2, #10
  406c12:	2300      	movs	r3, #0
  406c14:	4620      	mov	r0, r4
  406c16:	f001 f91b 	bl	407e50 <__multadd>
  406c1a:	454e      	cmp	r6, r9
  406c1c:	4683      	mov	fp, r0
  406c1e:	4631      	mov	r1, r6
  406c20:	4620      	mov	r0, r4
  406c22:	f04f 020a 	mov.w	r2, #10
  406c26:	f04f 0300 	mov.w	r3, #0
  406c2a:	f000 8174 	beq.w	406f16 <_dtoa_r+0x9f6>
  406c2e:	f001 f90f 	bl	407e50 <__multadd>
  406c32:	4649      	mov	r1, r9
  406c34:	4606      	mov	r6, r0
  406c36:	220a      	movs	r2, #10
  406c38:	4620      	mov	r0, r4
  406c3a:	2300      	movs	r3, #0
  406c3c:	f001 f908 	bl	407e50 <__multadd>
  406c40:	4657      	mov	r7, sl
  406c42:	4681      	mov	r9, r0
  406c44:	e79f      	b.n	406b86 <_dtoa_r+0x666>
  406c46:	2301      	movs	r3, #1
  406c48:	9309      	str	r3, [sp, #36]	; 0x24
  406c4a:	9b21      	ldr	r3, [sp, #132]	; 0x84
  406c4c:	2b00      	cmp	r3, #0
  406c4e:	f340 8213 	ble.w	407078 <_dtoa_r+0xb58>
  406c52:	461f      	mov	r7, r3
  406c54:	461e      	mov	r6, r3
  406c56:	930c      	str	r3, [sp, #48]	; 0x30
  406c58:	9306      	str	r3, [sp, #24]
  406c5a:	2100      	movs	r1, #0
  406c5c:	2f17      	cmp	r7, #23
  406c5e:	6461      	str	r1, [r4, #68]	; 0x44
  406c60:	d90a      	bls.n	406c78 <_dtoa_r+0x758>
  406c62:	2201      	movs	r2, #1
  406c64:	2304      	movs	r3, #4
  406c66:	005b      	lsls	r3, r3, #1
  406c68:	f103 0014 	add.w	r0, r3, #20
  406c6c:	4287      	cmp	r7, r0
  406c6e:	4611      	mov	r1, r2
  406c70:	f102 0201 	add.w	r2, r2, #1
  406c74:	d2f7      	bcs.n	406c66 <_dtoa_r+0x746>
  406c76:	6461      	str	r1, [r4, #68]	; 0x44
  406c78:	4620      	mov	r0, r4
  406c7a:	f001 f8b9 	bl	407df0 <_Balloc>
  406c7e:	2e0e      	cmp	r6, #14
  406c80:	9007      	str	r0, [sp, #28]
  406c82:	6420      	str	r0, [r4, #64]	; 0x40
  406c84:	f63f ad5c 	bhi.w	406740 <_dtoa_r+0x220>
  406c88:	2d00      	cmp	r5, #0
  406c8a:	f43f ad59 	beq.w	406740 <_dtoa_r+0x220>
  406c8e:	e9dd 2302 	ldrd	r2, r3, [sp, #8]
  406c92:	9904      	ldr	r1, [sp, #16]
  406c94:	2900      	cmp	r1, #0
  406c96:	e9cd 230e 	strd	r2, r3, [sp, #56]	; 0x38
  406c9a:	f340 8221 	ble.w	4070e0 <_dtoa_r+0xbc0>
  406c9e:	4bb7      	ldr	r3, [pc, #732]	; (406f7c <_dtoa_r+0xa5c>)
  406ca0:	f001 020f 	and.w	r2, r1, #15
  406ca4:	110d      	asrs	r5, r1, #4
  406ca6:	eb03 03c2 	add.w	r3, r3, r2, lsl #3
  406caa:	06e9      	lsls	r1, r5, #27
  406cac:	e9d3 6700 	ldrd	r6, r7, [r3]
  406cb0:	f140 81db 	bpl.w	40706a <_dtoa_r+0xb4a>
  406cb4:	4bb2      	ldr	r3, [pc, #712]	; (406f80 <_dtoa_r+0xa60>)
  406cb6:	e9dd 010e 	ldrd	r0, r1, [sp, #56]	; 0x38
  406cba:	e9d3 2308 	ldrd	r2, r3, [r3, #32]
  406cbe:	f7fd fbef 	bl	4044a0 <__aeabi_ddiv>
  406cc2:	e9cd 0102 	strd	r0, r1, [sp, #8]
  406cc6:	f005 050f 	and.w	r5, r5, #15
  406cca:	f04f 0803 	mov.w	r8, #3
  406cce:	b18d      	cbz	r5, 406cf4 <_dtoa_r+0x7d4>
  406cd0:	f8df 92ac 	ldr.w	r9, [pc, #684]	; 406f80 <_dtoa_r+0xa60>
  406cd4:	4630      	mov	r0, r6
  406cd6:	4639      	mov	r1, r7
  406cd8:	07ea      	lsls	r2, r5, #31
  406cda:	d505      	bpl.n	406ce8 <_dtoa_r+0x7c8>
  406cdc:	e9d9 2300 	ldrd	r2, r3, [r9]
  406ce0:	f108 0801 	add.w	r8, r8, #1
  406ce4:	f7fd fab2 	bl	40424c <__aeabi_dmul>
  406ce8:	106d      	asrs	r5, r5, #1
  406cea:	f109 0908 	add.w	r9, r9, #8
  406cee:	d1f3      	bne.n	406cd8 <_dtoa_r+0x7b8>
  406cf0:	4606      	mov	r6, r0
  406cf2:	460f      	mov	r7, r1
  406cf4:	e9dd 0102 	ldrd	r0, r1, [sp, #8]
  406cf8:	4632      	mov	r2, r6
  406cfa:	463b      	mov	r3, r7
  406cfc:	f7fd fbd0 	bl	4044a0 <__aeabi_ddiv>
  406d00:	e9cd 0102 	strd	r0, r1, [sp, #8]
  406d04:	9b0b      	ldr	r3, [sp, #44]	; 0x2c
  406d06:	b143      	cbz	r3, 406d1a <_dtoa_r+0x7fa>
  406d08:	e9dd 0102 	ldrd	r0, r1, [sp, #8]
  406d0c:	2200      	movs	r2, #0
  406d0e:	4b9d      	ldr	r3, [pc, #628]	; (406f84 <_dtoa_r+0xa64>)
  406d10:	f7fd fd0e 	bl	404730 <__aeabi_dcmplt>
  406d14:	2800      	cmp	r0, #0
  406d16:	f040 82ac 	bne.w	407272 <_dtoa_r+0xd52>
  406d1a:	4640      	mov	r0, r8
  406d1c:	f7fd fa30 	bl	404180 <__aeabi_i2d>
  406d20:	e9dd 2302 	ldrd	r2, r3, [sp, #8]
  406d24:	f7fd fa92 	bl	40424c <__aeabi_dmul>
  406d28:	4b97      	ldr	r3, [pc, #604]	; (406f88 <_dtoa_r+0xa68>)
  406d2a:	2200      	movs	r2, #0
  406d2c:	f7fd f8dc 	bl	403ee8 <__adddf3>
  406d30:	9b06      	ldr	r3, [sp, #24]
  406d32:	4606      	mov	r6, r0
  406d34:	f1a1 7750 	sub.w	r7, r1, #54525952	; 0x3400000
  406d38:	2b00      	cmp	r3, #0
  406d3a:	f000 8162 	beq.w	407002 <_dtoa_r+0xae2>
  406d3e:	9b04      	ldr	r3, [sp, #16]
  406d40:	f8dd 9018 	ldr.w	r9, [sp, #24]
  406d44:	9312      	str	r3, [sp, #72]	; 0x48
  406d46:	9b09      	ldr	r3, [sp, #36]	; 0x24
  406d48:	2b00      	cmp	r3, #0
  406d4a:	f000 8221 	beq.w	407190 <_dtoa_r+0xc70>
  406d4e:	4b8b      	ldr	r3, [pc, #556]	; (406f7c <_dtoa_r+0xa5c>)
  406d50:	498e      	ldr	r1, [pc, #568]	; (406f8c <_dtoa_r+0xa6c>)
  406d52:	eb03 03c9 	add.w	r3, r3, r9, lsl #3
  406d56:	e953 2302 	ldrd	r2, r3, [r3, #-8]
  406d5a:	2000      	movs	r0, #0
  406d5c:	f7fd fba0 	bl	4044a0 <__aeabi_ddiv>
  406d60:	4632      	mov	r2, r6
  406d62:	463b      	mov	r3, r7
  406d64:	f7fd f8be 	bl	403ee4 <__aeabi_dsub>
  406d68:	e9dd 6702 	ldrd	r6, r7, [sp, #8]
  406d6c:	e9cd 0110 	strd	r0, r1, [sp, #64]	; 0x40
  406d70:	4639      	mov	r1, r7
  406d72:	4630      	mov	r0, r6
  406d74:	f7fd fd04 	bl	404780 <__aeabi_d2iz>
  406d78:	4605      	mov	r5, r0
  406d7a:	f7fd fa01 	bl	404180 <__aeabi_i2d>
  406d7e:	3530      	adds	r5, #48	; 0x30
  406d80:	4602      	mov	r2, r0
  406d82:	460b      	mov	r3, r1
  406d84:	4630      	mov	r0, r6
  406d86:	4639      	mov	r1, r7
  406d88:	f7fd f8ac 	bl	403ee4 <__aeabi_dsub>
  406d8c:	fa5f f885 	uxtb.w	r8, r5
  406d90:	9d07      	ldr	r5, [sp, #28]
  406d92:	e9dd 2310 	ldrd	r2, r3, [sp, #64]	; 0x40
  406d96:	f885 8000 	strb.w	r8, [r5]
  406d9a:	4606      	mov	r6, r0
  406d9c:	460f      	mov	r7, r1
  406d9e:	3501      	adds	r5, #1
  406da0:	f7fd fcc6 	bl	404730 <__aeabi_dcmplt>
  406da4:	2800      	cmp	r0, #0
  406da6:	f040 82b2 	bne.w	40730e <_dtoa_r+0xdee>
  406daa:	4632      	mov	r2, r6
  406dac:	463b      	mov	r3, r7
  406dae:	2000      	movs	r0, #0
  406db0:	4974      	ldr	r1, [pc, #464]	; (406f84 <_dtoa_r+0xa64>)
  406db2:	f7fd f897 	bl	403ee4 <__aeabi_dsub>
  406db6:	4602      	mov	r2, r0
  406db8:	460b      	mov	r3, r1
  406dba:	e9dd 0110 	ldrd	r0, r1, [sp, #64]	; 0x40
  406dbe:	f7fd fcd5 	bl	40476c <__aeabi_dcmpgt>
  406dc2:	2800      	cmp	r0, #0
  406dc4:	f040 82ac 	bne.w	407320 <_dtoa_r+0xe00>
  406dc8:	f1b9 0f01 	cmp.w	r9, #1
  406dcc:	f340 8138 	ble.w	407040 <_dtoa_r+0xb20>
  406dd0:	9b07      	ldr	r3, [sp, #28]
  406dd2:	f8cd a04c 	str.w	sl, [sp, #76]	; 0x4c
  406dd6:	f8cd b008 	str.w	fp, [sp, #8]
  406dda:	4499      	add	r9, r3
  406ddc:	e9dd ab10 	ldrd	sl, fp, [sp, #64]	; 0x40
  406de0:	46a0      	mov	r8, r4
  406de2:	e00d      	b.n	406e00 <_dtoa_r+0x8e0>
  406de4:	2000      	movs	r0, #0
  406de6:	4967      	ldr	r1, [pc, #412]	; (406f84 <_dtoa_r+0xa64>)
  406de8:	f7fd f87c 	bl	403ee4 <__aeabi_dsub>
  406dec:	4652      	mov	r2, sl
  406dee:	465b      	mov	r3, fp
  406df0:	f7fd fc9e 	bl	404730 <__aeabi_dcmplt>
  406df4:	2800      	cmp	r0, #0
  406df6:	f040 828e 	bne.w	407316 <_dtoa_r+0xdf6>
  406dfa:	454d      	cmp	r5, r9
  406dfc:	f000 811b 	beq.w	407036 <_dtoa_r+0xb16>
  406e00:	4650      	mov	r0, sl
  406e02:	4659      	mov	r1, fp
  406e04:	2200      	movs	r2, #0
  406e06:	4b62      	ldr	r3, [pc, #392]	; (406f90 <_dtoa_r+0xa70>)
  406e08:	f7fd fa20 	bl	40424c <__aeabi_dmul>
  406e0c:	2200      	movs	r2, #0
  406e0e:	4b60      	ldr	r3, [pc, #384]	; (406f90 <_dtoa_r+0xa70>)
  406e10:	4682      	mov	sl, r0
  406e12:	468b      	mov	fp, r1
  406e14:	4630      	mov	r0, r6
  406e16:	4639      	mov	r1, r7
  406e18:	f7fd fa18 	bl	40424c <__aeabi_dmul>
  406e1c:	460f      	mov	r7, r1
  406e1e:	4606      	mov	r6, r0
  406e20:	f7fd fcae 	bl	404780 <__aeabi_d2iz>
  406e24:	4604      	mov	r4, r0
  406e26:	f7fd f9ab 	bl	404180 <__aeabi_i2d>
  406e2a:	4602      	mov	r2, r0
  406e2c:	460b      	mov	r3, r1
  406e2e:	4630      	mov	r0, r6
  406e30:	4639      	mov	r1, r7
  406e32:	f7fd f857 	bl	403ee4 <__aeabi_dsub>
  406e36:	3430      	adds	r4, #48	; 0x30
  406e38:	b2e4      	uxtb	r4, r4
  406e3a:	4652      	mov	r2, sl
  406e3c:	465b      	mov	r3, fp
  406e3e:	f805 4b01 	strb.w	r4, [r5], #1
  406e42:	4606      	mov	r6, r0
  406e44:	460f      	mov	r7, r1
  406e46:	f7fd fc73 	bl	404730 <__aeabi_dcmplt>
  406e4a:	4632      	mov	r2, r6
  406e4c:	463b      	mov	r3, r7
  406e4e:	2800      	cmp	r0, #0
  406e50:	d0c8      	beq.n	406de4 <_dtoa_r+0x8c4>
  406e52:	9b12      	ldr	r3, [sp, #72]	; 0x48
  406e54:	f8dd b008 	ldr.w	fp, [sp, #8]
  406e58:	9304      	str	r3, [sp, #16]
  406e5a:	4644      	mov	r4, r8
  406e5c:	e533      	b.n	4068c6 <_dtoa_r+0x3a6>
  406e5e:	2300      	movs	r3, #0
  406e60:	9309      	str	r3, [sp, #36]	; 0x24
  406e62:	9b21      	ldr	r3, [sp, #132]	; 0x84
  406e64:	9a04      	ldr	r2, [sp, #16]
  406e66:	4413      	add	r3, r2
  406e68:	930c      	str	r3, [sp, #48]	; 0x30
  406e6a:	3301      	adds	r3, #1
  406e6c:	2b00      	cmp	r3, #0
  406e6e:	9306      	str	r3, [sp, #24]
  406e70:	f340 8109 	ble.w	407086 <_dtoa_r+0xb66>
  406e74:	9e06      	ldr	r6, [sp, #24]
  406e76:	4637      	mov	r7, r6
  406e78:	e6ef      	b.n	406c5a <_dtoa_r+0x73a>
  406e7a:	2300      	movs	r3, #0
  406e7c:	9309      	str	r3, [sp, #36]	; 0x24
  406e7e:	e6e4      	b.n	406c4a <_dtoa_r+0x72a>
  406e80:	9b06      	ldr	r3, [sp, #24]
  406e82:	2b00      	cmp	r3, #0
  406e84:	f73f ac6d 	bgt.w	406762 <_dtoa_r+0x242>
  406e88:	f040 8262 	bne.w	407350 <_dtoa_r+0xe30>
  406e8c:	4640      	mov	r0, r8
  406e8e:	2200      	movs	r2, #0
  406e90:	4b40      	ldr	r3, [pc, #256]	; (406f94 <_dtoa_r+0xa74>)
  406e92:	4649      	mov	r1, r9
  406e94:	f7fd f9da 	bl	40424c <__aeabi_dmul>
  406e98:	e9dd 2302 	ldrd	r2, r3, [sp, #8]
  406e9c:	f7fd fc5c 	bl	404758 <__aeabi_dcmpge>
  406ea0:	f8dd 8018 	ldr.w	r8, [sp, #24]
  406ea4:	4646      	mov	r6, r8
  406ea6:	2800      	cmp	r0, #0
  406ea8:	f000 808a 	beq.w	406fc0 <_dtoa_r+0xaa0>
  406eac:	9b21      	ldr	r3, [sp, #132]	; 0x84
  406eae:	9d07      	ldr	r5, [sp, #28]
  406eb0:	43db      	mvns	r3, r3
  406eb2:	9304      	str	r3, [sp, #16]
  406eb4:	4641      	mov	r1, r8
  406eb6:	4620      	mov	r0, r4
  406eb8:	f000 ffc0 	bl	407e3c <_Bfree>
  406ebc:	2e00      	cmp	r6, #0
  406ebe:	f47f ae2c 	bne.w	406b1a <_dtoa_r+0x5fa>
  406ec2:	e500      	b.n	4068c6 <_dtoa_r+0x3a6>
  406ec4:	4659      	mov	r1, fp
  406ec6:	4620      	mov	r0, r4
  406ec8:	f001 f8f6 	bl	4080b8 <__pow5mult>
  406ecc:	4683      	mov	fp, r0
  406ece:	e557      	b.n	406980 <_dtoa_r+0x460>
  406ed0:	9b02      	ldr	r3, [sp, #8]
  406ed2:	2b00      	cmp	r3, #0
  406ed4:	f47f ad66 	bne.w	4069a4 <_dtoa_r+0x484>
  406ed8:	9b03      	ldr	r3, [sp, #12]
  406eda:	f3c3 0313 	ubfx	r3, r3, #0, #20
  406ede:	2b00      	cmp	r3, #0
  406ee0:	f47f ad94 	bne.w	406a0c <_dtoa_r+0x4ec>
  406ee4:	9b03      	ldr	r3, [sp, #12]
  406ee6:	f023 4700 	bic.w	r7, r3, #2147483648	; 0x80000000
  406eea:	0d3f      	lsrs	r7, r7, #20
  406eec:	053f      	lsls	r7, r7, #20
  406eee:	2f00      	cmp	r7, #0
  406ef0:	f000 821a 	beq.w	407328 <_dtoa_r+0xe08>
  406ef4:	9b05      	ldr	r3, [sp, #20]
  406ef6:	3301      	adds	r3, #1
  406ef8:	9305      	str	r3, [sp, #20]
  406efa:	f10a 0a01 	add.w	sl, sl, #1
  406efe:	f04f 0901 	mov.w	r9, #1
  406f02:	e585      	b.n	406a10 <_dtoa_r+0x4f0>
  406f04:	9a0d      	ldr	r2, [sp, #52]	; 0x34
  406f06:	2a00      	cmp	r2, #0
  406f08:	f000 81a5 	beq.w	407256 <_dtoa_r+0xd36>
  406f0c:	f203 4333 	addw	r3, r3, #1075	; 0x433
  406f10:	9f08      	ldr	r7, [sp, #32]
  406f12:	9d05      	ldr	r5, [sp, #20]
  406f14:	e4ff      	b.n	406916 <_dtoa_r+0x3f6>
  406f16:	f000 ff9b 	bl	407e50 <__multadd>
  406f1a:	4657      	mov	r7, sl
  406f1c:	4606      	mov	r6, r0
  406f1e:	4681      	mov	r9, r0
  406f20:	e631      	b.n	406b86 <_dtoa_r+0x666>
  406f22:	4601      	mov	r1, r0
  406f24:	4620      	mov	r0, r4
  406f26:	f8cd c008 	str.w	ip, [sp, #8]
  406f2a:	f000 ff87 	bl	407e3c <_Bfree>
  406f2e:	2201      	movs	r2, #1
  406f30:	f8dd c008 	ldr.w	ip, [sp, #8]
  406f34:	e654      	b.n	406be0 <_dtoa_r+0x6c0>
  406f36:	4658      	mov	r0, fp
  406f38:	4641      	mov	r1, r8
  406f3a:	f001 f963 	bl	408204 <__mcmp>
  406f3e:	2800      	cmp	r0, #0
  406f40:	f6bf ad91 	bge.w	406a66 <_dtoa_r+0x546>
  406f44:	9f04      	ldr	r7, [sp, #16]
  406f46:	4659      	mov	r1, fp
  406f48:	2300      	movs	r3, #0
  406f4a:	4620      	mov	r0, r4
  406f4c:	220a      	movs	r2, #10
  406f4e:	3f01      	subs	r7, #1
  406f50:	9704      	str	r7, [sp, #16]
  406f52:	f000 ff7d 	bl	407e50 <__multadd>
  406f56:	9b09      	ldr	r3, [sp, #36]	; 0x24
  406f58:	4683      	mov	fp, r0
  406f5a:	2b00      	cmp	r3, #0
  406f5c:	f47f adf0 	bne.w	406b40 <_dtoa_r+0x620>
  406f60:	9b0c      	ldr	r3, [sp, #48]	; 0x30
  406f62:	2b00      	cmp	r3, #0
  406f64:	f340 81f8 	ble.w	407358 <_dtoa_r+0xe38>
  406f68:	9306      	str	r3, [sp, #24]
  406f6a:	e583      	b.n	406a74 <_dtoa_r+0x554>
  406f6c:	9807      	ldr	r0, [sp, #28]
  406f6e:	f7ff bb0b 	b.w	406588 <_dtoa_r+0x68>
  406f72:	9b02      	ldr	r3, [sp, #8]
  406f74:	2b00      	cmp	r3, #0
  406f76:	f47f ad49 	bne.w	406a0c <_dtoa_r+0x4ec>
  406f7a:	e7ad      	b.n	406ed8 <_dtoa_r+0x9b8>
  406f7c:	004099e0 	.word	0x004099e0
  406f80:	00409ab8 	.word	0x00409ab8
  406f84:	3ff00000 	.word	0x3ff00000
  406f88:	401c0000 	.word	0x401c0000
  406f8c:	3fe00000 	.word	0x3fe00000
  406f90:	40240000 	.word	0x40240000
  406f94:	40140000 	.word	0x40140000
  406f98:	9b20      	ldr	r3, [sp, #128]	; 0x80
  406f9a:	2b02      	cmp	r3, #2
  406f9c:	f77f ad67 	ble.w	406a6e <_dtoa_r+0x54e>
  406fa0:	9b06      	ldr	r3, [sp, #24]
  406fa2:	2b00      	cmp	r3, #0
  406fa4:	d182      	bne.n	406eac <_dtoa_r+0x98c>
  406fa6:	4641      	mov	r1, r8
  406fa8:	2205      	movs	r2, #5
  406faa:	4620      	mov	r0, r4
  406fac:	f000 ff50 	bl	407e50 <__multadd>
  406fb0:	4680      	mov	r8, r0
  406fb2:	4641      	mov	r1, r8
  406fb4:	4658      	mov	r0, fp
  406fb6:	f001 f925 	bl	408204 <__mcmp>
  406fba:	2800      	cmp	r0, #0
  406fbc:	f77f af76 	ble.w	406eac <_dtoa_r+0x98c>
  406fc0:	9a04      	ldr	r2, [sp, #16]
  406fc2:	9907      	ldr	r1, [sp, #28]
  406fc4:	2331      	movs	r3, #49	; 0x31
  406fc6:	3201      	adds	r2, #1
  406fc8:	9204      	str	r2, [sp, #16]
  406fca:	700b      	strb	r3, [r1, #0]
  406fcc:	1c4d      	adds	r5, r1, #1
  406fce:	e771      	b.n	406eb4 <_dtoa_r+0x994>
  406fd0:	9a04      	ldr	r2, [sp, #16]
  406fd2:	3201      	adds	r2, #1
  406fd4:	9204      	str	r2, [sp, #16]
  406fd6:	9a07      	ldr	r2, [sp, #28]
  406fd8:	2331      	movs	r3, #49	; 0x31
  406fda:	7013      	strb	r3, [r2, #0]
  406fdc:	e58d      	b.n	406afa <_dtoa_r+0x5da>
  406fde:	f8dd b008 	ldr.w	fp, [sp, #8]
  406fe2:	9c05      	ldr	r4, [sp, #20]
  406fe4:	e46f      	b.n	4068c6 <_dtoa_r+0x3a6>
  406fe6:	4640      	mov	r0, r8
  406fe8:	f7fd f8ca 	bl	404180 <__aeabi_i2d>
  406fec:	e9dd 2302 	ldrd	r2, r3, [sp, #8]
  406ff0:	f7fd f92c 	bl	40424c <__aeabi_dmul>
  406ff4:	2200      	movs	r2, #0
  406ff6:	4bbc      	ldr	r3, [pc, #752]	; (4072e8 <_dtoa_r+0xdc8>)
  406ff8:	f7fc ff76 	bl	403ee8 <__adddf3>
  406ffc:	4606      	mov	r6, r0
  406ffe:	f1a1 7750 	sub.w	r7, r1, #54525952	; 0x3400000
  407002:	e9dd 0102 	ldrd	r0, r1, [sp, #8]
  407006:	2200      	movs	r2, #0
  407008:	4bb8      	ldr	r3, [pc, #736]	; (4072ec <_dtoa_r+0xdcc>)
  40700a:	f7fc ff6b 	bl	403ee4 <__aeabi_dsub>
  40700e:	4632      	mov	r2, r6
  407010:	463b      	mov	r3, r7
  407012:	e9cd 0102 	strd	r0, r1, [sp, #8]
  407016:	f7fd fba9 	bl	40476c <__aeabi_dcmpgt>
  40701a:	4680      	mov	r8, r0
  40701c:	2800      	cmp	r0, #0
  40701e:	f040 80b3 	bne.w	407188 <_dtoa_r+0xc68>
  407022:	4632      	mov	r2, r6
  407024:	f107 4300 	add.w	r3, r7, #2147483648	; 0x80000000
  407028:	e9dd 0102 	ldrd	r0, r1, [sp, #8]
  40702c:	f7fd fb80 	bl	404730 <__aeabi_dcmplt>
  407030:	b130      	cbz	r0, 407040 <_dtoa_r+0xb20>
  407032:	4646      	mov	r6, r8
  407034:	e73a      	b.n	406eac <_dtoa_r+0x98c>
  407036:	f8dd a04c 	ldr.w	sl, [sp, #76]	; 0x4c
  40703a:	f8dd b008 	ldr.w	fp, [sp, #8]
  40703e:	4644      	mov	r4, r8
  407040:	e9dd 230e 	ldrd	r2, r3, [sp, #56]	; 0x38
  407044:	e9cd 2302 	strd	r2, r3, [sp, #8]
  407048:	f7ff bb7a 	b.w	406740 <_dtoa_r+0x220>
  40704c:	4659      	mov	r1, fp
  40704e:	9a08      	ldr	r2, [sp, #32]
  407050:	4620      	mov	r0, r4
  407052:	f001 f831 	bl	4080b8 <__pow5mult>
  407056:	4683      	mov	fp, r0
  407058:	e492      	b.n	406980 <_dtoa_r+0x460>
  40705a:	9b08      	ldr	r3, [sp, #32]
  40705c:	9a0a      	ldr	r2, [sp, #40]	; 0x28
  40705e:	9708      	str	r7, [sp, #32]
  407060:	1afb      	subs	r3, r7, r3
  407062:	441a      	add	r2, r3
  407064:	920a      	str	r2, [sp, #40]	; 0x28
  407066:	2700      	movs	r7, #0
  407068:	e44f      	b.n	40690a <_dtoa_r+0x3ea>
  40706a:	e9dd 230e 	ldrd	r2, r3, [sp, #56]	; 0x38
  40706e:	f04f 0802 	mov.w	r8, #2
  407072:	e9cd 2302 	strd	r2, r3, [sp, #8]
  407076:	e62a      	b.n	406cce <_dtoa_r+0x7ae>
  407078:	2601      	movs	r6, #1
  40707a:	9621      	str	r6, [sp, #132]	; 0x84
  40707c:	960c      	str	r6, [sp, #48]	; 0x30
  40707e:	9606      	str	r6, [sp, #24]
  407080:	2100      	movs	r1, #0
  407082:	6461      	str	r1, [r4, #68]	; 0x44
  407084:	e5f8      	b.n	406c78 <_dtoa_r+0x758>
  407086:	461e      	mov	r6, r3
  407088:	e7fa      	b.n	407080 <_dtoa_r+0xb60>
  40708a:	2a00      	cmp	r2, #0
  40708c:	dd15      	ble.n	4070ba <_dtoa_r+0xb9a>
  40708e:	4659      	mov	r1, fp
  407090:	2201      	movs	r2, #1
  407092:	4620      	mov	r0, r4
  407094:	f8cd c008 	str.w	ip, [sp, #8]
  407098:	f001 f85e 	bl	408158 <__lshift>
  40709c:	4641      	mov	r1, r8
  40709e:	4683      	mov	fp, r0
  4070a0:	f001 f8b0 	bl	408204 <__mcmp>
  4070a4:	2800      	cmp	r0, #0
  4070a6:	f8dd c008 	ldr.w	ip, [sp, #8]
  4070aa:	f340 814a 	ble.w	407342 <_dtoa_r+0xe22>
  4070ae:	f1bc 0f39 	cmp.w	ip, #57	; 0x39
  4070b2:	f000 8106 	beq.w	4072c2 <_dtoa_r+0xda2>
  4070b6:	f10c 0c01 	add.w	ip, ip, #1
  4070ba:	46b2      	mov	sl, r6
  4070bc:	f887 c000 	strb.w	ip, [r7]
  4070c0:	1c7d      	adds	r5, r7, #1
  4070c2:	464e      	mov	r6, r9
  4070c4:	e519      	b.n	406afa <_dtoa_r+0x5da>
  4070c6:	d104      	bne.n	4070d2 <_dtoa_r+0xbb2>
  4070c8:	f01c 0f01 	tst.w	ip, #1
  4070cc:	d001      	beq.n	4070d2 <_dtoa_r+0xbb2>
  4070ce:	e504      	b.n	406ada <_dtoa_r+0x5ba>
  4070d0:	4615      	mov	r5, r2
  4070d2:	f815 3c01 	ldrb.w	r3, [r5, #-1]
  4070d6:	2b30      	cmp	r3, #48	; 0x30
  4070d8:	f105 32ff 	add.w	r2, r5, #4294967295
  4070dc:	d0f8      	beq.n	4070d0 <_dtoa_r+0xbb0>
  4070de:	e50c      	b.n	406afa <_dtoa_r+0x5da>
  4070e0:	9b04      	ldr	r3, [sp, #16]
  4070e2:	425d      	negs	r5, r3
  4070e4:	2d00      	cmp	r5, #0
  4070e6:	f000 80bd 	beq.w	407264 <_dtoa_r+0xd44>
  4070ea:	4b81      	ldr	r3, [pc, #516]	; (4072f0 <_dtoa_r+0xdd0>)
  4070ec:	f005 020f 	and.w	r2, r5, #15
  4070f0:	eb03 03c2 	add.w	r3, r3, r2, lsl #3
  4070f4:	e9d3 2300 	ldrd	r2, r3, [r3]
  4070f8:	e9dd 010e 	ldrd	r0, r1, [sp, #56]	; 0x38
  4070fc:	f7fd f8a6 	bl	40424c <__aeabi_dmul>
  407100:	112d      	asrs	r5, r5, #4
  407102:	e9cd 0102 	strd	r0, r1, [sp, #8]
  407106:	f000 812c 	beq.w	407362 <_dtoa_r+0xe42>
  40710a:	4e7a      	ldr	r6, [pc, #488]	; (4072f4 <_dtoa_r+0xdd4>)
  40710c:	f04f 0802 	mov.w	r8, #2
  407110:	07eb      	lsls	r3, r5, #31
  407112:	d505      	bpl.n	407120 <_dtoa_r+0xc00>
  407114:	e9d6 2300 	ldrd	r2, r3, [r6]
  407118:	f108 0801 	add.w	r8, r8, #1
  40711c:	f7fd f896 	bl	40424c <__aeabi_dmul>
  407120:	106d      	asrs	r5, r5, #1
  407122:	f106 0608 	add.w	r6, r6, #8
  407126:	d1f3      	bne.n	407110 <_dtoa_r+0xbf0>
  407128:	e9cd 0102 	strd	r0, r1, [sp, #8]
  40712c:	e5ea      	b.n	406d04 <_dtoa_r+0x7e4>
  40712e:	9a04      	ldr	r2, [sp, #16]
  407130:	3201      	adds	r2, #1
  407132:	9204      	str	r2, [sp, #16]
  407134:	9a07      	ldr	r2, [sp, #28]
  407136:	2330      	movs	r3, #48	; 0x30
  407138:	7013      	strb	r3, [r2, #0]
  40713a:	2331      	movs	r3, #49	; 0x31
  40713c:	7013      	strb	r3, [r2, #0]
  40713e:	f7ff bbc2 	b.w	4068c6 <_dtoa_r+0x3a6>
  407142:	6871      	ldr	r1, [r6, #4]
  407144:	4620      	mov	r0, r4
  407146:	f000 fe53 	bl	407df0 <_Balloc>
  40714a:	6933      	ldr	r3, [r6, #16]
  40714c:	1c9a      	adds	r2, r3, #2
  40714e:	4605      	mov	r5, r0
  407150:	0092      	lsls	r2, r2, #2
  407152:	f106 010c 	add.w	r1, r6, #12
  407156:	300c      	adds	r0, #12
  407158:	f000 fd48 	bl	407bec <memcpy>
  40715c:	4620      	mov	r0, r4
  40715e:	4629      	mov	r1, r5
  407160:	2201      	movs	r2, #1
  407162:	f000 fff9 	bl	408158 <__lshift>
  407166:	4681      	mov	r9, r0
  407168:	e503      	b.n	406b72 <_dtoa_r+0x652>
  40716a:	f1bc 0f39 	cmp.w	ip, #57	; 0x39
  40716e:	f000 80a8 	beq.w	4072c2 <_dtoa_r+0xda2>
  407172:	f10c 0c01 	add.w	ip, ip, #1
  407176:	46b2      	mov	sl, r6
  407178:	f887 c000 	strb.w	ip, [r7]
  40717c:	1c7d      	adds	r5, r7, #1
  40717e:	464e      	mov	r6, r9
  407180:	e4bb      	b.n	406afa <_dtoa_r+0x5da>
  407182:	46b2      	mov	sl, r6
  407184:	464e      	mov	r6, r9
  407186:	e498      	b.n	406aba <_dtoa_r+0x59a>
  407188:	f04f 0800 	mov.w	r8, #0
  40718c:	4646      	mov	r6, r8
  40718e:	e717      	b.n	406fc0 <_dtoa_r+0xaa0>
  407190:	4957      	ldr	r1, [pc, #348]	; (4072f0 <_dtoa_r+0xdd0>)
  407192:	f109 33ff 	add.w	r3, r9, #4294967295
  407196:	eb01 01c3 	add.w	r1, r1, r3, lsl #3
  40719a:	4632      	mov	r2, r6
  40719c:	9313      	str	r3, [sp, #76]	; 0x4c
  40719e:	e9d1 0100 	ldrd	r0, r1, [r1]
  4071a2:	463b      	mov	r3, r7
  4071a4:	f7fd f852 	bl	40424c <__aeabi_dmul>
  4071a8:	e9dd 6702 	ldrd	r6, r7, [sp, #8]
  4071ac:	e9cd 0110 	strd	r0, r1, [sp, #64]	; 0x40
  4071b0:	4639      	mov	r1, r7
  4071b2:	4630      	mov	r0, r6
  4071b4:	f7fd fae4 	bl	404780 <__aeabi_d2iz>
  4071b8:	4605      	mov	r5, r0
  4071ba:	f7fc ffe1 	bl	404180 <__aeabi_i2d>
  4071be:	4602      	mov	r2, r0
  4071c0:	460b      	mov	r3, r1
  4071c2:	4630      	mov	r0, r6
  4071c4:	4639      	mov	r1, r7
  4071c6:	f7fc fe8d 	bl	403ee4 <__aeabi_dsub>
  4071ca:	9a07      	ldr	r2, [sp, #28]
  4071cc:	3530      	adds	r5, #48	; 0x30
  4071ce:	f1b9 0f01 	cmp.w	r9, #1
  4071d2:	7015      	strb	r5, [r2, #0]
  4071d4:	4606      	mov	r6, r0
  4071d6:	460f      	mov	r7, r1
  4071d8:	f102 0501 	add.w	r5, r2, #1
  4071dc:	d023      	beq.n	407226 <_dtoa_r+0xd06>
  4071de:	9b07      	ldr	r3, [sp, #28]
  4071e0:	f8cd a008 	str.w	sl, [sp, #8]
  4071e4:	444b      	add	r3, r9
  4071e6:	465e      	mov	r6, fp
  4071e8:	469a      	mov	sl, r3
  4071ea:	46ab      	mov	fp, r5
  4071ec:	2200      	movs	r2, #0
  4071ee:	4b42      	ldr	r3, [pc, #264]	; (4072f8 <_dtoa_r+0xdd8>)
  4071f0:	f7fd f82c 	bl	40424c <__aeabi_dmul>
  4071f4:	4689      	mov	r9, r1
  4071f6:	4680      	mov	r8, r0
  4071f8:	f7fd fac2 	bl	404780 <__aeabi_d2iz>
  4071fc:	4607      	mov	r7, r0
  4071fe:	f7fc ffbf 	bl	404180 <__aeabi_i2d>
  407202:	3730      	adds	r7, #48	; 0x30
  407204:	4602      	mov	r2, r0
  407206:	460b      	mov	r3, r1
  407208:	4640      	mov	r0, r8
  40720a:	4649      	mov	r1, r9
  40720c:	f7fc fe6a 	bl	403ee4 <__aeabi_dsub>
  407210:	f80b 7b01 	strb.w	r7, [fp], #1
  407214:	45d3      	cmp	fp, sl
  407216:	d1e9      	bne.n	4071ec <_dtoa_r+0xccc>
  407218:	9b13      	ldr	r3, [sp, #76]	; 0x4c
  40721a:	f8dd a008 	ldr.w	sl, [sp, #8]
  40721e:	46b3      	mov	fp, r6
  407220:	460f      	mov	r7, r1
  407222:	4606      	mov	r6, r0
  407224:	441d      	add	r5, r3
  407226:	2200      	movs	r2, #0
  407228:	4b34      	ldr	r3, [pc, #208]	; (4072fc <_dtoa_r+0xddc>)
  40722a:	e9dd 0110 	ldrd	r0, r1, [sp, #64]	; 0x40
  40722e:	f7fc fe5b 	bl	403ee8 <__adddf3>
  407232:	4632      	mov	r2, r6
  407234:	463b      	mov	r3, r7
  407236:	f7fd fa7b 	bl	404730 <__aeabi_dcmplt>
  40723a:	2800      	cmp	r0, #0
  40723c:	d047      	beq.n	4072ce <_dtoa_r+0xdae>
  40723e:	9b12      	ldr	r3, [sp, #72]	; 0x48
  407240:	9304      	str	r3, [sp, #16]
  407242:	f815 8c01 	ldrb.w	r8, [r5, #-1]
  407246:	f7ff bb2c 	b.w	4068a2 <_dtoa_r+0x382>
  40724a:	9b05      	ldr	r3, [sp, #20]
  40724c:	9a06      	ldr	r2, [sp, #24]
  40724e:	1a9d      	subs	r5, r3, r2
  407250:	2300      	movs	r3, #0
  407252:	f7ff bb60 	b.w	406916 <_dtoa_r+0x3f6>
  407256:	9b14      	ldr	r3, [sp, #80]	; 0x50
  407258:	9f08      	ldr	r7, [sp, #32]
  40725a:	9d05      	ldr	r5, [sp, #20]
  40725c:	f1c3 0336 	rsb	r3, r3, #54	; 0x36
  407260:	f7ff bb59 	b.w	406916 <_dtoa_r+0x3f6>
  407264:	e9dd 230e 	ldrd	r2, r3, [sp, #56]	; 0x38
  407268:	f04f 0802 	mov.w	r8, #2
  40726c:	e9cd 2302 	strd	r2, r3, [sp, #8]
  407270:	e548      	b.n	406d04 <_dtoa_r+0x7e4>
  407272:	9b06      	ldr	r3, [sp, #24]
  407274:	2b00      	cmp	r3, #0
  407276:	f43f aeb6 	beq.w	406fe6 <_dtoa_r+0xac6>
  40727a:	9d0c      	ldr	r5, [sp, #48]	; 0x30
  40727c:	2d00      	cmp	r5, #0
  40727e:	f77f aedf 	ble.w	407040 <_dtoa_r+0xb20>
  407282:	2200      	movs	r2, #0
  407284:	4b1c      	ldr	r3, [pc, #112]	; (4072f8 <_dtoa_r+0xdd8>)
  407286:	e9dd 0102 	ldrd	r0, r1, [sp, #8]
  40728a:	f7fc ffdf 	bl	40424c <__aeabi_dmul>
  40728e:	4606      	mov	r6, r0
  407290:	460f      	mov	r7, r1
  407292:	f108 0001 	add.w	r0, r8, #1
  407296:	e9cd 6702 	strd	r6, r7, [sp, #8]
  40729a:	f7fc ff71 	bl	404180 <__aeabi_i2d>
  40729e:	4602      	mov	r2, r0
  4072a0:	460b      	mov	r3, r1
  4072a2:	4630      	mov	r0, r6
  4072a4:	4639      	mov	r1, r7
  4072a6:	f7fc ffd1 	bl	40424c <__aeabi_dmul>
  4072aa:	4b0f      	ldr	r3, [pc, #60]	; (4072e8 <_dtoa_r+0xdc8>)
  4072ac:	2200      	movs	r2, #0
  4072ae:	f7fc fe1b 	bl	403ee8 <__adddf3>
  4072b2:	9b04      	ldr	r3, [sp, #16]
  4072b4:	3b01      	subs	r3, #1
  4072b6:	4606      	mov	r6, r0
  4072b8:	f1a1 7750 	sub.w	r7, r1, #54525952	; 0x3400000
  4072bc:	9312      	str	r3, [sp, #72]	; 0x48
  4072be:	46a9      	mov	r9, r5
  4072c0:	e541      	b.n	406d46 <_dtoa_r+0x826>
  4072c2:	2239      	movs	r2, #57	; 0x39
  4072c4:	46b2      	mov	sl, r6
  4072c6:	703a      	strb	r2, [r7, #0]
  4072c8:	464e      	mov	r6, r9
  4072ca:	1c7d      	adds	r5, r7, #1
  4072cc:	e407      	b.n	406ade <_dtoa_r+0x5be>
  4072ce:	e9dd 2310 	ldrd	r2, r3, [sp, #64]	; 0x40
  4072d2:	2000      	movs	r0, #0
  4072d4:	4909      	ldr	r1, [pc, #36]	; (4072fc <_dtoa_r+0xddc>)
  4072d6:	f7fc fe05 	bl	403ee4 <__aeabi_dsub>
  4072da:	4632      	mov	r2, r6
  4072dc:	463b      	mov	r3, r7
  4072de:	f7fd fa45 	bl	40476c <__aeabi_dcmpgt>
  4072e2:	b970      	cbnz	r0, 407302 <_dtoa_r+0xde2>
  4072e4:	e6ac      	b.n	407040 <_dtoa_r+0xb20>
  4072e6:	bf00      	nop
  4072e8:	401c0000 	.word	0x401c0000
  4072ec:	40140000 	.word	0x40140000
  4072f0:	004099e0 	.word	0x004099e0
  4072f4:	00409ab8 	.word	0x00409ab8
  4072f8:	40240000 	.word	0x40240000
  4072fc:	3fe00000 	.word	0x3fe00000
  407300:	4615      	mov	r5, r2
  407302:	f815 3c01 	ldrb.w	r3, [r5, #-1]
  407306:	2b30      	cmp	r3, #48	; 0x30
  407308:	f105 32ff 	add.w	r2, r5, #4294967295
  40730c:	d0f8      	beq.n	407300 <_dtoa_r+0xde0>
  40730e:	9b12      	ldr	r3, [sp, #72]	; 0x48
  407310:	9304      	str	r3, [sp, #16]
  407312:	f7ff bad8 	b.w	4068c6 <_dtoa_r+0x3a6>
  407316:	4643      	mov	r3, r8
  407318:	f8dd b008 	ldr.w	fp, [sp, #8]
  40731c:	46a0      	mov	r8, r4
  40731e:	461c      	mov	r4, r3
  407320:	9b12      	ldr	r3, [sp, #72]	; 0x48
  407322:	9304      	str	r3, [sp, #16]
  407324:	f7ff babd 	b.w	4068a2 <_dtoa_r+0x382>
  407328:	46b9      	mov	r9, r7
  40732a:	f7ff bb71 	b.w	406a10 <_dtoa_r+0x4f0>
  40732e:	f1bc 0f39 	cmp.w	ip, #57	; 0x39
  407332:	d0c6      	beq.n	4072c2 <_dtoa_r+0xda2>
  407334:	f1ba 0f00 	cmp.w	sl, #0
  407338:	f77f aebf 	ble.w	4070ba <_dtoa_r+0xb9a>
  40733c:	f105 0c31 	add.w	ip, r5, #49	; 0x31
  407340:	e6bb      	b.n	4070ba <_dtoa_r+0xb9a>
  407342:	f47f aeba 	bne.w	4070ba <_dtoa_r+0xb9a>
  407346:	f01c 0f01 	tst.w	ip, #1
  40734a:	f43f aeb6 	beq.w	4070ba <_dtoa_r+0xb9a>
  40734e:	e6ae      	b.n	4070ae <_dtoa_r+0xb8e>
  407350:	f04f 0800 	mov.w	r8, #0
  407354:	4646      	mov	r6, r8
  407356:	e5a9      	b.n	406eac <_dtoa_r+0x98c>
  407358:	9b20      	ldr	r3, [sp, #128]	; 0x80
  40735a:	2b02      	cmp	r3, #2
  40735c:	dc04      	bgt.n	407368 <_dtoa_r+0xe48>
  40735e:	9b0c      	ldr	r3, [sp, #48]	; 0x30
  407360:	e602      	b.n	406f68 <_dtoa_r+0xa48>
  407362:	f04f 0802 	mov.w	r8, #2
  407366:	e4cd      	b.n	406d04 <_dtoa_r+0x7e4>
  407368:	9b0c      	ldr	r3, [sp, #48]	; 0x30
  40736a:	9306      	str	r3, [sp, #24]
  40736c:	e618      	b.n	406fa0 <_dtoa_r+0xa80>
  40736e:	9b20      	ldr	r3, [sp, #128]	; 0x80
  407370:	2b02      	cmp	r3, #2
  407372:	dcf9      	bgt.n	407368 <_dtoa_r+0xe48>
  407374:	9b0c      	ldr	r3, [sp, #48]	; 0x30
  407376:	f7ff bbee 	b.w	406b56 <_dtoa_r+0x636>
  40737a:	2500      	movs	r5, #0
  40737c:	6465      	str	r5, [r4, #68]	; 0x44
  40737e:	4629      	mov	r1, r5
  407380:	4620      	mov	r0, r4
  407382:	f000 fd35 	bl	407df0 <_Balloc>
  407386:	f04f 33ff 	mov.w	r3, #4294967295
  40738a:	9306      	str	r3, [sp, #24]
  40738c:	930c      	str	r3, [sp, #48]	; 0x30
  40738e:	2301      	movs	r3, #1
  407390:	9007      	str	r0, [sp, #28]
  407392:	9521      	str	r5, [sp, #132]	; 0x84
  407394:	6420      	str	r0, [r4, #64]	; 0x40
  407396:	9309      	str	r3, [sp, #36]	; 0x24
  407398:	f7ff b9d2 	b.w	406740 <_dtoa_r+0x220>
  40739c:	f43f ab4d 	beq.w	406a3a <_dtoa_r+0x51a>
  4073a0:	f1c0 003c 	rsb	r0, r0, #60	; 0x3c
  4073a4:	f7ff bb44 	b.w	406a30 <_dtoa_r+0x510>
  4073a8:	2301      	movs	r3, #1
  4073aa:	9309      	str	r3, [sp, #36]	; 0x24
  4073ac:	e559      	b.n	406e62 <_dtoa_r+0x942>
  4073ae:	2501      	movs	r5, #1
  4073b0:	f7ff b990 	b.w	4066d4 <_dtoa_r+0x1b4>

004073b4 <__libc_fini_array>:
  4073b4:	b538      	push	{r3, r4, r5, lr}
  4073b6:	4b08      	ldr	r3, [pc, #32]	; (4073d8 <__libc_fini_array+0x24>)
  4073b8:	4d08      	ldr	r5, [pc, #32]	; (4073dc <__libc_fini_array+0x28>)
  4073ba:	1aed      	subs	r5, r5, r3
  4073bc:	10ac      	asrs	r4, r5, #2
  4073be:	bf18      	it	ne
  4073c0:	18ed      	addne	r5, r5, r3
  4073c2:	d005      	beq.n	4073d0 <__libc_fini_array+0x1c>
  4073c4:	3c01      	subs	r4, #1
  4073c6:	f855 3d04 	ldr.w	r3, [r5, #-4]!
  4073ca:	4798      	blx	r3
  4073cc:	2c00      	cmp	r4, #0
  4073ce:	d1f9      	bne.n	4073c4 <__libc_fini_array+0x10>
  4073d0:	e8bd 4038 	ldmia.w	sp!, {r3, r4, r5, lr}
  4073d4:	f002 bb8e 	b.w	409af4 <_fini>
  4073d8:	00409b00 	.word	0x00409b00
  4073dc:	00409b04 	.word	0x00409b04

004073e0 <_malloc_trim_r>:
  4073e0:	b5f8      	push	{r3, r4, r5, r6, r7, lr}
  4073e2:	4f23      	ldr	r7, [pc, #140]	; (407470 <_malloc_trim_r+0x90>)
  4073e4:	460c      	mov	r4, r1
  4073e6:	4606      	mov	r6, r0
  4073e8:	f000 fcfe 	bl	407de8 <__malloc_lock>
  4073ec:	68bb      	ldr	r3, [r7, #8]
  4073ee:	685d      	ldr	r5, [r3, #4]
  4073f0:	f025 0503 	bic.w	r5, r5, #3
  4073f4:	1b29      	subs	r1, r5, r4
  4073f6:	f601 71ef 	addw	r1, r1, #4079	; 0xfef
  4073fa:	f421 617f 	bic.w	r1, r1, #4080	; 0xff0
  4073fe:	f021 010f 	bic.w	r1, r1, #15
  407402:	f5a1 5480 	sub.w	r4, r1, #4096	; 0x1000
  407406:	f5b4 5f80 	cmp.w	r4, #4096	; 0x1000
  40740a:	db07      	blt.n	40741c <_malloc_trim_r+0x3c>
  40740c:	4630      	mov	r0, r6
  40740e:	2100      	movs	r1, #0
  407410:	f001 fa04 	bl	40881c <_sbrk_r>
  407414:	68bb      	ldr	r3, [r7, #8]
  407416:	442b      	add	r3, r5
  407418:	4298      	cmp	r0, r3
  40741a:	d004      	beq.n	407426 <_malloc_trim_r+0x46>
  40741c:	4630      	mov	r0, r6
  40741e:	f000 fce5 	bl	407dec <__malloc_unlock>
  407422:	2000      	movs	r0, #0
  407424:	bdf8      	pop	{r3, r4, r5, r6, r7, pc}
  407426:	4630      	mov	r0, r6
  407428:	4261      	negs	r1, r4
  40742a:	f001 f9f7 	bl	40881c <_sbrk_r>
  40742e:	3001      	adds	r0, #1
  407430:	d00d      	beq.n	40744e <_malloc_trim_r+0x6e>
  407432:	4b10      	ldr	r3, [pc, #64]	; (407474 <_malloc_trim_r+0x94>)
  407434:	68ba      	ldr	r2, [r7, #8]
  407436:	6819      	ldr	r1, [r3, #0]
  407438:	1b2d      	subs	r5, r5, r4
  40743a:	f045 0501 	orr.w	r5, r5, #1
  40743e:	4630      	mov	r0, r6
  407440:	1b09      	subs	r1, r1, r4
  407442:	6055      	str	r5, [r2, #4]
  407444:	6019      	str	r1, [r3, #0]
  407446:	f000 fcd1 	bl	407dec <__malloc_unlock>
  40744a:	2001      	movs	r0, #1
  40744c:	bdf8      	pop	{r3, r4, r5, r6, r7, pc}
  40744e:	4630      	mov	r0, r6
  407450:	2100      	movs	r1, #0
  407452:	f001 f9e3 	bl	40881c <_sbrk_r>
  407456:	68ba      	ldr	r2, [r7, #8]
  407458:	1a83      	subs	r3, r0, r2
  40745a:	2b0f      	cmp	r3, #15
  40745c:	ddde      	ble.n	40741c <_malloc_trim_r+0x3c>
  40745e:	4c06      	ldr	r4, [pc, #24]	; (407478 <_malloc_trim_r+0x98>)
  407460:	4904      	ldr	r1, [pc, #16]	; (407474 <_malloc_trim_r+0x94>)
  407462:	6824      	ldr	r4, [r4, #0]
  407464:	f043 0301 	orr.w	r3, r3, #1
  407468:	1b00      	subs	r0, r0, r4
  40746a:	6053      	str	r3, [r2, #4]
  40746c:	6008      	str	r0, [r1, #0]
  40746e:	e7d5      	b.n	40741c <_malloc_trim_r+0x3c>
  407470:	20000474 	.word	0x20000474
  407474:	20000cf8 	.word	0x20000cf8
  407478:	20000880 	.word	0x20000880

0040747c <_free_r>:
  40747c:	2900      	cmp	r1, #0
  40747e:	d04e      	beq.n	40751e <_free_r+0xa2>
  407480:	e92d 41f0 	stmdb	sp!, {r4, r5, r6, r7, r8, lr}
  407484:	460c      	mov	r4, r1
  407486:	4680      	mov	r8, r0
  407488:	f000 fcae 	bl	407de8 <__malloc_lock>
  40748c:	f854 7c04 	ldr.w	r7, [r4, #-4]
  407490:	4962      	ldr	r1, [pc, #392]	; (40761c <_free_r+0x1a0>)
  407492:	f027 0201 	bic.w	r2, r7, #1
  407496:	f1a4 0508 	sub.w	r5, r4, #8
  40749a:	18ab      	adds	r3, r5, r2
  40749c:	688e      	ldr	r6, [r1, #8]
  40749e:	6858      	ldr	r0, [r3, #4]
  4074a0:	429e      	cmp	r6, r3
  4074a2:	f020 0003 	bic.w	r0, r0, #3
  4074a6:	d05a      	beq.n	40755e <_free_r+0xe2>
  4074a8:	07fe      	lsls	r6, r7, #31
  4074aa:	6058      	str	r0, [r3, #4]
  4074ac:	d40b      	bmi.n	4074c6 <_free_r+0x4a>
  4074ae:	f854 7c08 	ldr.w	r7, [r4, #-8]
  4074b2:	1bed      	subs	r5, r5, r7
  4074b4:	f101 0e08 	add.w	lr, r1, #8
  4074b8:	68ac      	ldr	r4, [r5, #8]
  4074ba:	4574      	cmp	r4, lr
  4074bc:	443a      	add	r2, r7
  4074be:	d067      	beq.n	407590 <_free_r+0x114>
  4074c0:	68ef      	ldr	r7, [r5, #12]
  4074c2:	60e7      	str	r7, [r4, #12]
  4074c4:	60bc      	str	r4, [r7, #8]
  4074c6:	181c      	adds	r4, r3, r0
  4074c8:	6864      	ldr	r4, [r4, #4]
  4074ca:	07e4      	lsls	r4, r4, #31
  4074cc:	d40c      	bmi.n	4074e8 <_free_r+0x6c>
  4074ce:	4f54      	ldr	r7, [pc, #336]	; (407620 <_free_r+0x1a4>)
  4074d0:	689c      	ldr	r4, [r3, #8]
  4074d2:	42bc      	cmp	r4, r7
  4074d4:	4402      	add	r2, r0
  4074d6:	d07c      	beq.n	4075d2 <_free_r+0x156>
  4074d8:	68d8      	ldr	r0, [r3, #12]
  4074da:	60e0      	str	r0, [r4, #12]
  4074dc:	f042 0301 	orr.w	r3, r2, #1
  4074e0:	6084      	str	r4, [r0, #8]
  4074e2:	606b      	str	r3, [r5, #4]
  4074e4:	50aa      	str	r2, [r5, r2]
  4074e6:	e003      	b.n	4074f0 <_free_r+0x74>
  4074e8:	f042 0301 	orr.w	r3, r2, #1
  4074ec:	606b      	str	r3, [r5, #4]
  4074ee:	50aa      	str	r2, [r5, r2]
  4074f0:	f5b2 7f00 	cmp.w	r2, #512	; 0x200
  4074f4:	d214      	bcs.n	407520 <_free_r+0xa4>
  4074f6:	08d2      	lsrs	r2, r2, #3
  4074f8:	eb01 03c2 	add.w	r3, r1, r2, lsl #3
  4074fc:	6848      	ldr	r0, [r1, #4]
  4074fe:	689f      	ldr	r7, [r3, #8]
  407500:	60af      	str	r7, [r5, #8]
  407502:	1092      	asrs	r2, r2, #2
  407504:	2401      	movs	r4, #1
  407506:	fa04 f202 	lsl.w	r2, r4, r2
  40750a:	4310      	orrs	r0, r2
  40750c:	60eb      	str	r3, [r5, #12]
  40750e:	6048      	str	r0, [r1, #4]
  407510:	609d      	str	r5, [r3, #8]
  407512:	60fd      	str	r5, [r7, #12]
  407514:	4640      	mov	r0, r8
  407516:	e8bd 41f0 	ldmia.w	sp!, {r4, r5, r6, r7, r8, lr}
  40751a:	f000 bc67 	b.w	407dec <__malloc_unlock>
  40751e:	4770      	bx	lr
  407520:	0a53      	lsrs	r3, r2, #9
  407522:	2b04      	cmp	r3, #4
  407524:	d847      	bhi.n	4075b6 <_free_r+0x13a>
  407526:	0993      	lsrs	r3, r2, #6
  407528:	f103 0438 	add.w	r4, r3, #56	; 0x38
  40752c:	0060      	lsls	r0, r4, #1
  40752e:	eb01 0080 	add.w	r0, r1, r0, lsl #2
  407532:	493a      	ldr	r1, [pc, #232]	; (40761c <_free_r+0x1a0>)
  407534:	6883      	ldr	r3, [r0, #8]
  407536:	4283      	cmp	r3, r0
  407538:	d043      	beq.n	4075c2 <_free_r+0x146>
  40753a:	6859      	ldr	r1, [r3, #4]
  40753c:	f021 0103 	bic.w	r1, r1, #3
  407540:	4291      	cmp	r1, r2
  407542:	d902      	bls.n	40754a <_free_r+0xce>
  407544:	689b      	ldr	r3, [r3, #8]
  407546:	4298      	cmp	r0, r3
  407548:	d1f7      	bne.n	40753a <_free_r+0xbe>
  40754a:	68da      	ldr	r2, [r3, #12]
  40754c:	60ea      	str	r2, [r5, #12]
  40754e:	60ab      	str	r3, [r5, #8]
  407550:	4640      	mov	r0, r8
  407552:	6095      	str	r5, [r2, #8]
  407554:	60dd      	str	r5, [r3, #12]
  407556:	e8bd 41f0 	ldmia.w	sp!, {r4, r5, r6, r7, r8, lr}
  40755a:	f000 bc47 	b.w	407dec <__malloc_unlock>
  40755e:	07ff      	lsls	r7, r7, #31
  407560:	4402      	add	r2, r0
  407562:	d407      	bmi.n	407574 <_free_r+0xf8>
  407564:	f854 3c08 	ldr.w	r3, [r4, #-8]
  407568:	1aed      	subs	r5, r5, r3
  40756a:	441a      	add	r2, r3
  40756c:	68a8      	ldr	r0, [r5, #8]
  40756e:	68eb      	ldr	r3, [r5, #12]
  407570:	60c3      	str	r3, [r0, #12]
  407572:	6098      	str	r0, [r3, #8]
  407574:	4b2b      	ldr	r3, [pc, #172]	; (407624 <_free_r+0x1a8>)
  407576:	681b      	ldr	r3, [r3, #0]
  407578:	f042 0001 	orr.w	r0, r2, #1
  40757c:	429a      	cmp	r2, r3
  40757e:	6068      	str	r0, [r5, #4]
  407580:	608d      	str	r5, [r1, #8]
  407582:	d3c7      	bcc.n	407514 <_free_r+0x98>
  407584:	4b28      	ldr	r3, [pc, #160]	; (407628 <_free_r+0x1ac>)
  407586:	4640      	mov	r0, r8
  407588:	6819      	ldr	r1, [r3, #0]
  40758a:	f7ff ff29 	bl	4073e0 <_malloc_trim_r>
  40758e:	e7c1      	b.n	407514 <_free_r+0x98>
  407590:	1819      	adds	r1, r3, r0
  407592:	6849      	ldr	r1, [r1, #4]
  407594:	07c9      	lsls	r1, r1, #31
  407596:	d409      	bmi.n	4075ac <_free_r+0x130>
  407598:	68d9      	ldr	r1, [r3, #12]
  40759a:	689b      	ldr	r3, [r3, #8]
  40759c:	4402      	add	r2, r0
  40759e:	f042 0001 	orr.w	r0, r2, #1
  4075a2:	60d9      	str	r1, [r3, #12]
  4075a4:	608b      	str	r3, [r1, #8]
  4075a6:	6068      	str	r0, [r5, #4]
  4075a8:	50aa      	str	r2, [r5, r2]
  4075aa:	e7b3      	b.n	407514 <_free_r+0x98>
  4075ac:	f042 0301 	orr.w	r3, r2, #1
  4075b0:	606b      	str	r3, [r5, #4]
  4075b2:	50aa      	str	r2, [r5, r2]
  4075b4:	e7ae      	b.n	407514 <_free_r+0x98>
  4075b6:	2b14      	cmp	r3, #20
  4075b8:	d814      	bhi.n	4075e4 <_free_r+0x168>
  4075ba:	f103 045b 	add.w	r4, r3, #91	; 0x5b
  4075be:	0060      	lsls	r0, r4, #1
  4075c0:	e7b5      	b.n	40752e <_free_r+0xb2>
  4075c2:	684a      	ldr	r2, [r1, #4]
  4075c4:	10a4      	asrs	r4, r4, #2
  4075c6:	2001      	movs	r0, #1
  4075c8:	40a0      	lsls	r0, r4
  4075ca:	4302      	orrs	r2, r0
  4075cc:	604a      	str	r2, [r1, #4]
  4075ce:	461a      	mov	r2, r3
  4075d0:	e7bc      	b.n	40754c <_free_r+0xd0>
  4075d2:	f042 0301 	orr.w	r3, r2, #1
  4075d6:	614d      	str	r5, [r1, #20]
  4075d8:	610d      	str	r5, [r1, #16]
  4075da:	60ec      	str	r4, [r5, #12]
  4075dc:	60ac      	str	r4, [r5, #8]
  4075de:	606b      	str	r3, [r5, #4]
  4075e0:	50aa      	str	r2, [r5, r2]
  4075e2:	e797      	b.n	407514 <_free_r+0x98>
  4075e4:	2b54      	cmp	r3, #84	; 0x54
  4075e6:	d804      	bhi.n	4075f2 <_free_r+0x176>
  4075e8:	0b13      	lsrs	r3, r2, #12
  4075ea:	f103 046e 	add.w	r4, r3, #110	; 0x6e
  4075ee:	0060      	lsls	r0, r4, #1
  4075f0:	e79d      	b.n	40752e <_free_r+0xb2>
  4075f2:	f5b3 7faa 	cmp.w	r3, #340	; 0x154
  4075f6:	d804      	bhi.n	407602 <_free_r+0x186>
  4075f8:	0bd3      	lsrs	r3, r2, #15
  4075fa:	f103 0477 	add.w	r4, r3, #119	; 0x77
  4075fe:	0060      	lsls	r0, r4, #1
  407600:	e795      	b.n	40752e <_free_r+0xb2>
  407602:	f240 5054 	movw	r0, #1364	; 0x554
  407606:	4283      	cmp	r3, r0
  407608:	d804      	bhi.n	407614 <_free_r+0x198>
  40760a:	0c93      	lsrs	r3, r2, #18
  40760c:	f103 047c 	add.w	r4, r3, #124	; 0x7c
  407610:	0060      	lsls	r0, r4, #1
  407612:	e78c      	b.n	40752e <_free_r+0xb2>
  407614:	20fc      	movs	r0, #252	; 0xfc
  407616:	247e      	movs	r4, #126	; 0x7e
  407618:	e789      	b.n	40752e <_free_r+0xb2>
  40761a:	bf00      	nop
  40761c:	20000474 	.word	0x20000474
  407620:	2000047c 	.word	0x2000047c
  407624:	2000087c 	.word	0x2000087c
  407628:	20000cf4 	.word	0x20000cf4

0040762c <_localeconv_r>:
  40762c:	4800      	ldr	r0, [pc, #0]	; (407630 <_localeconv_r+0x4>)
  40762e:	4770      	bx	lr
  407630:	2000043c 	.word	0x2000043c

00407634 <_malloc_r>:
  407634:	e92d 4ff0 	stmdb	sp!, {r4, r5, r6, r7, r8, r9, sl, fp, lr}
  407638:	f101 050b 	add.w	r5, r1, #11
  40763c:	2d16      	cmp	r5, #22
  40763e:	b083      	sub	sp, #12
  407640:	4606      	mov	r6, r0
  407642:	d927      	bls.n	407694 <_malloc_r+0x60>
  407644:	f035 0507 	bics.w	r5, r5, #7
  407648:	f100 80b6 	bmi.w	4077b8 <_malloc_r+0x184>
  40764c:	42a9      	cmp	r1, r5
  40764e:	f200 80b3 	bhi.w	4077b8 <_malloc_r+0x184>
  407652:	f000 fbc9 	bl	407de8 <__malloc_lock>
  407656:	f5b5 7ffc 	cmp.w	r5, #504	; 0x1f8
  40765a:	d222      	bcs.n	4076a2 <_malloc_r+0x6e>
  40765c:	4fc2      	ldr	r7, [pc, #776]	; (407968 <_malloc_r+0x334>)
  40765e:	08e8      	lsrs	r0, r5, #3
  407660:	eb07 03c0 	add.w	r3, r7, r0, lsl #3
  407664:	68dc      	ldr	r4, [r3, #12]
  407666:	429c      	cmp	r4, r3
  407668:	f000 81c8 	beq.w	4079fc <_malloc_r+0x3c8>
  40766c:	6863      	ldr	r3, [r4, #4]
  40766e:	68e1      	ldr	r1, [r4, #12]
  407670:	68a5      	ldr	r5, [r4, #8]
  407672:	f023 0303 	bic.w	r3, r3, #3
  407676:	4423      	add	r3, r4
  407678:	4630      	mov	r0, r6
  40767a:	685a      	ldr	r2, [r3, #4]
  40767c:	60e9      	str	r1, [r5, #12]
  40767e:	f042 0201 	orr.w	r2, r2, #1
  407682:	608d      	str	r5, [r1, #8]
  407684:	605a      	str	r2, [r3, #4]
  407686:	f000 fbb1 	bl	407dec <__malloc_unlock>
  40768a:	3408      	adds	r4, #8
  40768c:	4620      	mov	r0, r4
  40768e:	b003      	add	sp, #12
  407690:	e8bd 8ff0 	ldmia.w	sp!, {r4, r5, r6, r7, r8, r9, sl, fp, pc}
  407694:	2910      	cmp	r1, #16
  407696:	f200 808f 	bhi.w	4077b8 <_malloc_r+0x184>
  40769a:	f000 fba5 	bl	407de8 <__malloc_lock>
  40769e:	2510      	movs	r5, #16
  4076a0:	e7dc      	b.n	40765c <_malloc_r+0x28>
  4076a2:	0a68      	lsrs	r0, r5, #9
  4076a4:	f000 808f 	beq.w	4077c6 <_malloc_r+0x192>
  4076a8:	2804      	cmp	r0, #4
  4076aa:	f200 8154 	bhi.w	407956 <_malloc_r+0x322>
  4076ae:	09a8      	lsrs	r0, r5, #6
  4076b0:	3038      	adds	r0, #56	; 0x38
  4076b2:	0041      	lsls	r1, r0, #1
  4076b4:	4fac      	ldr	r7, [pc, #688]	; (407968 <_malloc_r+0x334>)
  4076b6:	eb07 0181 	add.w	r1, r7, r1, lsl #2
  4076ba:	68cc      	ldr	r4, [r1, #12]
  4076bc:	42a1      	cmp	r1, r4
  4076be:	d106      	bne.n	4076ce <_malloc_r+0x9a>
  4076c0:	e00c      	b.n	4076dc <_malloc_r+0xa8>
  4076c2:	2a00      	cmp	r2, #0
  4076c4:	f280 8082 	bge.w	4077cc <_malloc_r+0x198>
  4076c8:	68e4      	ldr	r4, [r4, #12]
  4076ca:	42a1      	cmp	r1, r4
  4076cc:	d006      	beq.n	4076dc <_malloc_r+0xa8>
  4076ce:	6863      	ldr	r3, [r4, #4]
  4076d0:	f023 0303 	bic.w	r3, r3, #3
  4076d4:	1b5a      	subs	r2, r3, r5
  4076d6:	2a0f      	cmp	r2, #15
  4076d8:	ddf3      	ble.n	4076c2 <_malloc_r+0x8e>
  4076da:	3801      	subs	r0, #1
  4076dc:	3001      	adds	r0, #1
  4076de:	49a2      	ldr	r1, [pc, #648]	; (407968 <_malloc_r+0x334>)
  4076e0:	693c      	ldr	r4, [r7, #16]
  4076e2:	f101 0e08 	add.w	lr, r1, #8
  4076e6:	4574      	cmp	r4, lr
  4076e8:	f000 817d 	beq.w	4079e6 <_malloc_r+0x3b2>
  4076ec:	6863      	ldr	r3, [r4, #4]
  4076ee:	f023 0303 	bic.w	r3, r3, #3
  4076f2:	1b5a      	subs	r2, r3, r5
  4076f4:	2a0f      	cmp	r2, #15
  4076f6:	f300 8163 	bgt.w	4079c0 <_malloc_r+0x38c>
  4076fa:	2a00      	cmp	r2, #0
  4076fc:	f8c1 e014 	str.w	lr, [r1, #20]
  407700:	f8c1 e010 	str.w	lr, [r1, #16]
  407704:	da73      	bge.n	4077ee <_malloc_r+0x1ba>
  407706:	f5b3 7f00 	cmp.w	r3, #512	; 0x200
  40770a:	f080 8139 	bcs.w	407980 <_malloc_r+0x34c>
  40770e:	08db      	lsrs	r3, r3, #3
  407710:	eb01 08c3 	add.w	r8, r1, r3, lsl #3
  407714:	ea4f 0ca3 	mov.w	ip, r3, asr #2
  407718:	684a      	ldr	r2, [r1, #4]
  40771a:	f8d8 9008 	ldr.w	r9, [r8, #8]
  40771e:	f8c4 9008 	str.w	r9, [r4, #8]
  407722:	2301      	movs	r3, #1
  407724:	fa03 f30c 	lsl.w	r3, r3, ip
  407728:	4313      	orrs	r3, r2
  40772a:	f8c4 800c 	str.w	r8, [r4, #12]
  40772e:	604b      	str	r3, [r1, #4]
  407730:	f8c8 4008 	str.w	r4, [r8, #8]
  407734:	f8c9 400c 	str.w	r4, [r9, #12]
  407738:	1082      	asrs	r2, r0, #2
  40773a:	2401      	movs	r4, #1
  40773c:	4094      	lsls	r4, r2
  40773e:	429c      	cmp	r4, r3
  407740:	d862      	bhi.n	407808 <_malloc_r+0x1d4>
  407742:	4223      	tst	r3, r4
  407744:	d106      	bne.n	407754 <_malloc_r+0x120>
  407746:	f020 0003 	bic.w	r0, r0, #3
  40774a:	0064      	lsls	r4, r4, #1
  40774c:	4223      	tst	r3, r4
  40774e:	f100 0004 	add.w	r0, r0, #4
  407752:	d0fa      	beq.n	40774a <_malloc_r+0x116>
  407754:	eb07 08c0 	add.w	r8, r7, r0, lsl #3
  407758:	46c4      	mov	ip, r8
  40775a:	4681      	mov	r9, r0
  40775c:	f8dc 300c 	ldr.w	r3, [ip, #12]
  407760:	459c      	cmp	ip, r3
  407762:	d107      	bne.n	407774 <_malloc_r+0x140>
  407764:	e141      	b.n	4079ea <_malloc_r+0x3b6>
  407766:	2900      	cmp	r1, #0
  407768:	f280 8151 	bge.w	407a0e <_malloc_r+0x3da>
  40776c:	68db      	ldr	r3, [r3, #12]
  40776e:	459c      	cmp	ip, r3
  407770:	f000 813b 	beq.w	4079ea <_malloc_r+0x3b6>
  407774:	685a      	ldr	r2, [r3, #4]
  407776:	f022 0203 	bic.w	r2, r2, #3
  40777a:	1b51      	subs	r1, r2, r5
  40777c:	290f      	cmp	r1, #15
  40777e:	ddf2      	ble.n	407766 <_malloc_r+0x132>
  407780:	461c      	mov	r4, r3
  407782:	f8d3 c00c 	ldr.w	ip, [r3, #12]
  407786:	f854 8f08 	ldr.w	r8, [r4, #8]!
  40778a:	195a      	adds	r2, r3, r5
  40778c:	f045 0901 	orr.w	r9, r5, #1
  407790:	f041 0501 	orr.w	r5, r1, #1
  407794:	f8c3 9004 	str.w	r9, [r3, #4]
  407798:	4630      	mov	r0, r6
  40779a:	f8c8 c00c 	str.w	ip, [r8, #12]
  40779e:	f8cc 8008 	str.w	r8, [ip, #8]
  4077a2:	617a      	str	r2, [r7, #20]
  4077a4:	613a      	str	r2, [r7, #16]
  4077a6:	f8c2 e00c 	str.w	lr, [r2, #12]
  4077aa:	f8c2 e008 	str.w	lr, [r2, #8]
  4077ae:	6055      	str	r5, [r2, #4]
  4077b0:	5051      	str	r1, [r2, r1]
  4077b2:	f000 fb1b 	bl	407dec <__malloc_unlock>
  4077b6:	e769      	b.n	40768c <_malloc_r+0x58>
  4077b8:	2400      	movs	r4, #0
  4077ba:	230c      	movs	r3, #12
  4077bc:	4620      	mov	r0, r4
  4077be:	6033      	str	r3, [r6, #0]
  4077c0:	b003      	add	sp, #12
  4077c2:	e8bd 8ff0 	ldmia.w	sp!, {r4, r5, r6, r7, r8, r9, sl, fp, pc}
  4077c6:	217e      	movs	r1, #126	; 0x7e
  4077c8:	203f      	movs	r0, #63	; 0x3f
  4077ca:	e773      	b.n	4076b4 <_malloc_r+0x80>
  4077cc:	4423      	add	r3, r4
  4077ce:	68e1      	ldr	r1, [r4, #12]
  4077d0:	685a      	ldr	r2, [r3, #4]
  4077d2:	68a5      	ldr	r5, [r4, #8]
  4077d4:	f042 0201 	orr.w	r2, r2, #1
  4077d8:	60e9      	str	r1, [r5, #12]
  4077da:	4630      	mov	r0, r6
  4077dc:	608d      	str	r5, [r1, #8]
  4077de:	605a      	str	r2, [r3, #4]
  4077e0:	f000 fb04 	bl	407dec <__malloc_unlock>
  4077e4:	3408      	adds	r4, #8
  4077e6:	4620      	mov	r0, r4
  4077e8:	b003      	add	sp, #12
  4077ea:	e8bd 8ff0 	ldmia.w	sp!, {r4, r5, r6, r7, r8, r9, sl, fp, pc}
  4077ee:	4423      	add	r3, r4
  4077f0:	4630      	mov	r0, r6
  4077f2:	685a      	ldr	r2, [r3, #4]
  4077f4:	f042 0201 	orr.w	r2, r2, #1
  4077f8:	605a      	str	r2, [r3, #4]
  4077fa:	f000 faf7 	bl	407dec <__malloc_unlock>
  4077fe:	3408      	adds	r4, #8
  407800:	4620      	mov	r0, r4
  407802:	b003      	add	sp, #12
  407804:	e8bd 8ff0 	ldmia.w	sp!, {r4, r5, r6, r7, r8, r9, sl, fp, pc}
  407808:	68bc      	ldr	r4, [r7, #8]
  40780a:	6863      	ldr	r3, [r4, #4]
  40780c:	f023 0803 	bic.w	r8, r3, #3
  407810:	4545      	cmp	r5, r8
  407812:	d804      	bhi.n	40781e <_malloc_r+0x1ea>
  407814:	ebc5 0308 	rsb	r3, r5, r8
  407818:	2b0f      	cmp	r3, #15
  40781a:	f300 808c 	bgt.w	407936 <_malloc_r+0x302>
  40781e:	4b53      	ldr	r3, [pc, #332]	; (40796c <_malloc_r+0x338>)
  407820:	f8df a158 	ldr.w	sl, [pc, #344]	; 40797c <_malloc_r+0x348>
  407824:	681a      	ldr	r2, [r3, #0]
  407826:	f8da 3000 	ldr.w	r3, [sl]
  40782a:	3301      	adds	r3, #1
  40782c:	442a      	add	r2, r5
  40782e:	eb04 0b08 	add.w	fp, r4, r8
  407832:	f000 8150 	beq.w	407ad6 <_malloc_r+0x4a2>
  407836:	f502 5280 	add.w	r2, r2, #4096	; 0x1000
  40783a:	320f      	adds	r2, #15
  40783c:	f422 627f 	bic.w	r2, r2, #4080	; 0xff0
  407840:	f022 020f 	bic.w	r2, r2, #15
  407844:	4611      	mov	r1, r2
  407846:	4630      	mov	r0, r6
  407848:	9201      	str	r2, [sp, #4]
  40784a:	f000 ffe7 	bl	40881c <_sbrk_r>
  40784e:	f1b0 3fff 	cmp.w	r0, #4294967295
  407852:	4681      	mov	r9, r0
  407854:	9a01      	ldr	r2, [sp, #4]
  407856:	f000 8147 	beq.w	407ae8 <_malloc_r+0x4b4>
  40785a:	4583      	cmp	fp, r0
  40785c:	f200 80ee 	bhi.w	407a3c <_malloc_r+0x408>
  407860:	4b43      	ldr	r3, [pc, #268]	; (407970 <_malloc_r+0x33c>)
  407862:	6819      	ldr	r1, [r3, #0]
  407864:	45cb      	cmp	fp, r9
  407866:	4411      	add	r1, r2
  407868:	6019      	str	r1, [r3, #0]
  40786a:	f000 8142 	beq.w	407af2 <_malloc_r+0x4be>
  40786e:	f8da 0000 	ldr.w	r0, [sl]
  407872:	f8df e108 	ldr.w	lr, [pc, #264]	; 40797c <_malloc_r+0x348>
  407876:	3001      	adds	r0, #1
  407878:	bf1b      	ittet	ne
  40787a:	ebcb 0b09 	rsbne	fp, fp, r9
  40787e:	4459      	addne	r1, fp
  407880:	f8ce 9000 	streq.w	r9, [lr]
  407884:	6019      	strne	r1, [r3, #0]
  407886:	f019 0107 	ands.w	r1, r9, #7
  40788a:	f000 8107 	beq.w	407a9c <_malloc_r+0x468>
  40788e:	f1c1 0008 	rsb	r0, r1, #8
  407892:	f5c1 5180 	rsb	r1, r1, #4096	; 0x1000
  407896:	4481      	add	r9, r0
  407898:	3108      	adds	r1, #8
  40789a:	444a      	add	r2, r9
  40789c:	f3c2 020b 	ubfx	r2, r2, #0, #12
  4078a0:	ebc2 0a01 	rsb	sl, r2, r1
  4078a4:	4651      	mov	r1, sl
  4078a6:	4630      	mov	r0, r6
  4078a8:	9301      	str	r3, [sp, #4]
  4078aa:	f000 ffb7 	bl	40881c <_sbrk_r>
  4078ae:	1c43      	adds	r3, r0, #1
  4078b0:	9b01      	ldr	r3, [sp, #4]
  4078b2:	f000 812c 	beq.w	407b0e <_malloc_r+0x4da>
  4078b6:	ebc9 0200 	rsb	r2, r9, r0
  4078ba:	4452      	add	r2, sl
  4078bc:	f042 0201 	orr.w	r2, r2, #1
  4078c0:	6819      	ldr	r1, [r3, #0]
  4078c2:	f8c7 9008 	str.w	r9, [r7, #8]
  4078c6:	4451      	add	r1, sl
  4078c8:	42bc      	cmp	r4, r7
  4078ca:	f8c9 2004 	str.w	r2, [r9, #4]
  4078ce:	6019      	str	r1, [r3, #0]
  4078d0:	f8df a09c 	ldr.w	sl, [pc, #156]	; 407970 <_malloc_r+0x33c>
  4078d4:	d016      	beq.n	407904 <_malloc_r+0x2d0>
  4078d6:	f1b8 0f0f 	cmp.w	r8, #15
  4078da:	f240 80ee 	bls.w	407aba <_malloc_r+0x486>
  4078de:	6862      	ldr	r2, [r4, #4]
  4078e0:	f1a8 030c 	sub.w	r3, r8, #12
  4078e4:	f023 0307 	bic.w	r3, r3, #7
  4078e8:	18e0      	adds	r0, r4, r3
  4078ea:	f002 0201 	and.w	r2, r2, #1
  4078ee:	f04f 0e05 	mov.w	lr, #5
  4078f2:	431a      	orrs	r2, r3
  4078f4:	2b0f      	cmp	r3, #15
  4078f6:	6062      	str	r2, [r4, #4]
  4078f8:	f8c0 e004 	str.w	lr, [r0, #4]
  4078fc:	f8c0 e008 	str.w	lr, [r0, #8]
  407900:	f200 8109 	bhi.w	407b16 <_malloc_r+0x4e2>
  407904:	4b1b      	ldr	r3, [pc, #108]	; (407974 <_malloc_r+0x340>)
  407906:	68bc      	ldr	r4, [r7, #8]
  407908:	681a      	ldr	r2, [r3, #0]
  40790a:	4291      	cmp	r1, r2
  40790c:	bf88      	it	hi
  40790e:	6019      	strhi	r1, [r3, #0]
  407910:	4b19      	ldr	r3, [pc, #100]	; (407978 <_malloc_r+0x344>)
  407912:	681a      	ldr	r2, [r3, #0]
  407914:	4291      	cmp	r1, r2
  407916:	6862      	ldr	r2, [r4, #4]
  407918:	bf88      	it	hi
  40791a:	6019      	strhi	r1, [r3, #0]
  40791c:	f022 0203 	bic.w	r2, r2, #3
  407920:	4295      	cmp	r5, r2
  407922:	eba2 0305 	sub.w	r3, r2, r5
  407926:	d801      	bhi.n	40792c <_malloc_r+0x2f8>
  407928:	2b0f      	cmp	r3, #15
  40792a:	dc04      	bgt.n	407936 <_malloc_r+0x302>
  40792c:	4630      	mov	r0, r6
  40792e:	f000 fa5d 	bl	407dec <__malloc_unlock>
  407932:	2400      	movs	r4, #0
  407934:	e6aa      	b.n	40768c <_malloc_r+0x58>
  407936:	1962      	adds	r2, r4, r5
  407938:	f043 0301 	orr.w	r3, r3, #1
  40793c:	f045 0501 	orr.w	r5, r5, #1
  407940:	6065      	str	r5, [r4, #4]
  407942:	4630      	mov	r0, r6
  407944:	60ba      	str	r2, [r7, #8]
  407946:	6053      	str	r3, [r2, #4]
  407948:	f000 fa50 	bl	407dec <__malloc_unlock>
  40794c:	3408      	adds	r4, #8
  40794e:	4620      	mov	r0, r4
  407950:	b003      	add	sp, #12
  407952:	e8bd 8ff0 	ldmia.w	sp!, {r4, r5, r6, r7, r8, r9, sl, fp, pc}
  407956:	2814      	cmp	r0, #20
  407958:	d968      	bls.n	407a2c <_malloc_r+0x3f8>
  40795a:	2854      	cmp	r0, #84	; 0x54
  40795c:	f200 8097 	bhi.w	407a8e <_malloc_r+0x45a>
  407960:	0b28      	lsrs	r0, r5, #12
  407962:	306e      	adds	r0, #110	; 0x6e
  407964:	0041      	lsls	r1, r0, #1
  407966:	e6a5      	b.n	4076b4 <_malloc_r+0x80>
  407968:	20000474 	.word	0x20000474
  40796c:	20000cf4 	.word	0x20000cf4
  407970:	20000cf8 	.word	0x20000cf8
  407974:	20000cf0 	.word	0x20000cf0
  407978:	20000cec 	.word	0x20000cec
  40797c:	20000880 	.word	0x20000880
  407980:	0a5a      	lsrs	r2, r3, #9
  407982:	2a04      	cmp	r2, #4
  407984:	d955      	bls.n	407a32 <_malloc_r+0x3fe>
  407986:	2a14      	cmp	r2, #20
  407988:	f200 80a7 	bhi.w	407ada <_malloc_r+0x4a6>
  40798c:	325b      	adds	r2, #91	; 0x5b
  40798e:	ea4f 0c42 	mov.w	ip, r2, lsl #1
  407992:	eb07 0c8c 	add.w	ip, r7, ip, lsl #2
  407996:	f8df 81bc 	ldr.w	r8, [pc, #444]	; 407b54 <_malloc_r+0x520>
  40799a:	f8dc 1008 	ldr.w	r1, [ip, #8]
  40799e:	4561      	cmp	r1, ip
  4079a0:	d07f      	beq.n	407aa2 <_malloc_r+0x46e>
  4079a2:	684a      	ldr	r2, [r1, #4]
  4079a4:	f022 0203 	bic.w	r2, r2, #3
  4079a8:	4293      	cmp	r3, r2
  4079aa:	d202      	bcs.n	4079b2 <_malloc_r+0x37e>
  4079ac:	6889      	ldr	r1, [r1, #8]
  4079ae:	458c      	cmp	ip, r1
  4079b0:	d1f7      	bne.n	4079a2 <_malloc_r+0x36e>
  4079b2:	68ca      	ldr	r2, [r1, #12]
  4079b4:	687b      	ldr	r3, [r7, #4]
  4079b6:	60e2      	str	r2, [r4, #12]
  4079b8:	60a1      	str	r1, [r4, #8]
  4079ba:	6094      	str	r4, [r2, #8]
  4079bc:	60cc      	str	r4, [r1, #12]
  4079be:	e6bb      	b.n	407738 <_malloc_r+0x104>
  4079c0:	1963      	adds	r3, r4, r5
  4079c2:	f042 0701 	orr.w	r7, r2, #1
  4079c6:	f045 0501 	orr.w	r5, r5, #1
  4079ca:	6065      	str	r5, [r4, #4]
  4079cc:	4630      	mov	r0, r6
  4079ce:	614b      	str	r3, [r1, #20]
  4079d0:	610b      	str	r3, [r1, #16]
  4079d2:	f8c3 e00c 	str.w	lr, [r3, #12]
  4079d6:	f8c3 e008 	str.w	lr, [r3, #8]
  4079da:	605f      	str	r7, [r3, #4]
  4079dc:	509a      	str	r2, [r3, r2]
  4079de:	3408      	adds	r4, #8
  4079e0:	f000 fa04 	bl	407dec <__malloc_unlock>
  4079e4:	e652      	b.n	40768c <_malloc_r+0x58>
  4079e6:	684b      	ldr	r3, [r1, #4]
  4079e8:	e6a6      	b.n	407738 <_malloc_r+0x104>
  4079ea:	f109 0901 	add.w	r9, r9, #1
  4079ee:	f019 0f03 	tst.w	r9, #3
  4079f2:	f10c 0c08 	add.w	ip, ip, #8
  4079f6:	f47f aeb1 	bne.w	40775c <_malloc_r+0x128>
  4079fa:	e02c      	b.n	407a56 <_malloc_r+0x422>
  4079fc:	f104 0308 	add.w	r3, r4, #8
  407a00:	6964      	ldr	r4, [r4, #20]
  407a02:	42a3      	cmp	r3, r4
  407a04:	bf08      	it	eq
  407a06:	3002      	addeq	r0, #2
  407a08:	f43f ae69 	beq.w	4076de <_malloc_r+0xaa>
  407a0c:	e62e      	b.n	40766c <_malloc_r+0x38>
  407a0e:	441a      	add	r2, r3
  407a10:	461c      	mov	r4, r3
  407a12:	6851      	ldr	r1, [r2, #4]
  407a14:	68db      	ldr	r3, [r3, #12]
  407a16:	f854 5f08 	ldr.w	r5, [r4, #8]!
  407a1a:	f041 0101 	orr.w	r1, r1, #1
  407a1e:	6051      	str	r1, [r2, #4]
  407a20:	4630      	mov	r0, r6
  407a22:	60eb      	str	r3, [r5, #12]
  407a24:	609d      	str	r5, [r3, #8]
  407a26:	f000 f9e1 	bl	407dec <__malloc_unlock>
  407a2a:	e62f      	b.n	40768c <_malloc_r+0x58>
  407a2c:	305b      	adds	r0, #91	; 0x5b
  407a2e:	0041      	lsls	r1, r0, #1
  407a30:	e640      	b.n	4076b4 <_malloc_r+0x80>
  407a32:	099a      	lsrs	r2, r3, #6
  407a34:	3238      	adds	r2, #56	; 0x38
  407a36:	ea4f 0c42 	mov.w	ip, r2, lsl #1
  407a3a:	e7aa      	b.n	407992 <_malloc_r+0x35e>
  407a3c:	42bc      	cmp	r4, r7
  407a3e:	4b45      	ldr	r3, [pc, #276]	; (407b54 <_malloc_r+0x520>)
  407a40:	f43f af0e 	beq.w	407860 <_malloc_r+0x22c>
  407a44:	689c      	ldr	r4, [r3, #8]
  407a46:	6862      	ldr	r2, [r4, #4]
  407a48:	f022 0203 	bic.w	r2, r2, #3
  407a4c:	e768      	b.n	407920 <_malloc_r+0x2ec>
  407a4e:	f8d8 8000 	ldr.w	r8, [r8]
  407a52:	4598      	cmp	r8, r3
  407a54:	d17c      	bne.n	407b50 <_malloc_r+0x51c>
  407a56:	f010 0f03 	tst.w	r0, #3
  407a5a:	f1a8 0308 	sub.w	r3, r8, #8
  407a5e:	f100 30ff 	add.w	r0, r0, #4294967295
  407a62:	d1f4      	bne.n	407a4e <_malloc_r+0x41a>
  407a64:	687b      	ldr	r3, [r7, #4]
  407a66:	ea23 0304 	bic.w	r3, r3, r4
  407a6a:	607b      	str	r3, [r7, #4]
  407a6c:	0064      	lsls	r4, r4, #1
  407a6e:	429c      	cmp	r4, r3
  407a70:	f63f aeca 	bhi.w	407808 <_malloc_r+0x1d4>
  407a74:	2c00      	cmp	r4, #0
  407a76:	f43f aec7 	beq.w	407808 <_malloc_r+0x1d4>
  407a7a:	4223      	tst	r3, r4
  407a7c:	4648      	mov	r0, r9
  407a7e:	f47f ae69 	bne.w	407754 <_malloc_r+0x120>
  407a82:	0064      	lsls	r4, r4, #1
  407a84:	4223      	tst	r3, r4
  407a86:	f100 0004 	add.w	r0, r0, #4
  407a8a:	d0fa      	beq.n	407a82 <_malloc_r+0x44e>
  407a8c:	e662      	b.n	407754 <_malloc_r+0x120>
  407a8e:	f5b0 7faa 	cmp.w	r0, #340	; 0x154
  407a92:	d818      	bhi.n	407ac6 <_malloc_r+0x492>
  407a94:	0be8      	lsrs	r0, r5, #15
  407a96:	3077      	adds	r0, #119	; 0x77
  407a98:	0041      	lsls	r1, r0, #1
  407a9a:	e60b      	b.n	4076b4 <_malloc_r+0x80>
  407a9c:	f44f 5180 	mov.w	r1, #4096	; 0x1000
  407aa0:	e6fb      	b.n	40789a <_malloc_r+0x266>
  407aa2:	f8d8 3004 	ldr.w	r3, [r8, #4]
  407aa6:	1092      	asrs	r2, r2, #2
  407aa8:	f04f 0c01 	mov.w	ip, #1
  407aac:	fa0c f202 	lsl.w	r2, ip, r2
  407ab0:	4313      	orrs	r3, r2
  407ab2:	f8c8 3004 	str.w	r3, [r8, #4]
  407ab6:	460a      	mov	r2, r1
  407ab8:	e77d      	b.n	4079b6 <_malloc_r+0x382>
  407aba:	2301      	movs	r3, #1
  407abc:	f8c9 3004 	str.w	r3, [r9, #4]
  407ac0:	464c      	mov	r4, r9
  407ac2:	2200      	movs	r2, #0
  407ac4:	e72c      	b.n	407920 <_malloc_r+0x2ec>
  407ac6:	f240 5354 	movw	r3, #1364	; 0x554
  407aca:	4298      	cmp	r0, r3
  407acc:	d81c      	bhi.n	407b08 <_malloc_r+0x4d4>
  407ace:	0ca8      	lsrs	r0, r5, #18
  407ad0:	307c      	adds	r0, #124	; 0x7c
  407ad2:	0041      	lsls	r1, r0, #1
  407ad4:	e5ee      	b.n	4076b4 <_malloc_r+0x80>
  407ad6:	3210      	adds	r2, #16
  407ad8:	e6b4      	b.n	407844 <_malloc_r+0x210>
  407ada:	2a54      	cmp	r2, #84	; 0x54
  407adc:	d823      	bhi.n	407b26 <_malloc_r+0x4f2>
  407ade:	0b1a      	lsrs	r2, r3, #12
  407ae0:	326e      	adds	r2, #110	; 0x6e
  407ae2:	ea4f 0c42 	mov.w	ip, r2, lsl #1
  407ae6:	e754      	b.n	407992 <_malloc_r+0x35e>
  407ae8:	68bc      	ldr	r4, [r7, #8]
  407aea:	6862      	ldr	r2, [r4, #4]
  407aec:	f022 0203 	bic.w	r2, r2, #3
  407af0:	e716      	b.n	407920 <_malloc_r+0x2ec>
  407af2:	f3cb 000b 	ubfx	r0, fp, #0, #12
  407af6:	2800      	cmp	r0, #0
  407af8:	f47f aeb9 	bne.w	40786e <_malloc_r+0x23a>
  407afc:	4442      	add	r2, r8
  407afe:	68bb      	ldr	r3, [r7, #8]
  407b00:	f042 0201 	orr.w	r2, r2, #1
  407b04:	605a      	str	r2, [r3, #4]
  407b06:	e6fd      	b.n	407904 <_malloc_r+0x2d0>
  407b08:	21fc      	movs	r1, #252	; 0xfc
  407b0a:	207e      	movs	r0, #126	; 0x7e
  407b0c:	e5d2      	b.n	4076b4 <_malloc_r+0x80>
  407b0e:	2201      	movs	r2, #1
  407b10:	f04f 0a00 	mov.w	sl, #0
  407b14:	e6d4      	b.n	4078c0 <_malloc_r+0x28c>
  407b16:	f104 0108 	add.w	r1, r4, #8
  407b1a:	4630      	mov	r0, r6
  407b1c:	f7ff fcae 	bl	40747c <_free_r>
  407b20:	f8da 1000 	ldr.w	r1, [sl]
  407b24:	e6ee      	b.n	407904 <_malloc_r+0x2d0>
  407b26:	f5b2 7faa 	cmp.w	r2, #340	; 0x154
  407b2a:	d804      	bhi.n	407b36 <_malloc_r+0x502>
  407b2c:	0bda      	lsrs	r2, r3, #15
  407b2e:	3277      	adds	r2, #119	; 0x77
  407b30:	ea4f 0c42 	mov.w	ip, r2, lsl #1
  407b34:	e72d      	b.n	407992 <_malloc_r+0x35e>
  407b36:	f240 5154 	movw	r1, #1364	; 0x554
  407b3a:	428a      	cmp	r2, r1
  407b3c:	d804      	bhi.n	407b48 <_malloc_r+0x514>
  407b3e:	0c9a      	lsrs	r2, r3, #18
  407b40:	327c      	adds	r2, #124	; 0x7c
  407b42:	ea4f 0c42 	mov.w	ip, r2, lsl #1
  407b46:	e724      	b.n	407992 <_malloc_r+0x35e>
  407b48:	f04f 0cfc 	mov.w	ip, #252	; 0xfc
  407b4c:	227e      	movs	r2, #126	; 0x7e
  407b4e:	e720      	b.n	407992 <_malloc_r+0x35e>
  407b50:	687b      	ldr	r3, [r7, #4]
  407b52:	e78b      	b.n	407a6c <_malloc_r+0x438>
  407b54:	20000474 	.word	0x20000474

00407b58 <memchr>:
  407b58:	0783      	lsls	r3, r0, #30
  407b5a:	b470      	push	{r4, r5, r6}
  407b5c:	b2c9      	uxtb	r1, r1
  407b5e:	d040      	beq.n	407be2 <memchr+0x8a>
  407b60:	1e54      	subs	r4, r2, #1
  407b62:	2a00      	cmp	r2, #0
  407b64:	d03f      	beq.n	407be6 <memchr+0x8e>
  407b66:	7803      	ldrb	r3, [r0, #0]
  407b68:	428b      	cmp	r3, r1
  407b6a:	bf18      	it	ne
  407b6c:	1c43      	addne	r3, r0, #1
  407b6e:	d106      	bne.n	407b7e <memchr+0x26>
  407b70:	e01d      	b.n	407bae <memchr+0x56>
  407b72:	b1f4      	cbz	r4, 407bb2 <memchr+0x5a>
  407b74:	7802      	ldrb	r2, [r0, #0]
  407b76:	428a      	cmp	r2, r1
  407b78:	f104 34ff 	add.w	r4, r4, #4294967295
  407b7c:	d017      	beq.n	407bae <memchr+0x56>
  407b7e:	f013 0f03 	tst.w	r3, #3
  407b82:	4618      	mov	r0, r3
  407b84:	f103 0301 	add.w	r3, r3, #1
  407b88:	d1f3      	bne.n	407b72 <memchr+0x1a>
  407b8a:	2c03      	cmp	r4, #3
  407b8c:	d814      	bhi.n	407bb8 <memchr+0x60>
  407b8e:	b184      	cbz	r4, 407bb2 <memchr+0x5a>
  407b90:	7803      	ldrb	r3, [r0, #0]
  407b92:	428b      	cmp	r3, r1
  407b94:	d00b      	beq.n	407bae <memchr+0x56>
  407b96:	1905      	adds	r5, r0, r4
  407b98:	1c43      	adds	r3, r0, #1
  407b9a:	e002      	b.n	407ba2 <memchr+0x4a>
  407b9c:	7802      	ldrb	r2, [r0, #0]
  407b9e:	428a      	cmp	r2, r1
  407ba0:	d005      	beq.n	407bae <memchr+0x56>
  407ba2:	42ab      	cmp	r3, r5
  407ba4:	4618      	mov	r0, r3
  407ba6:	f103 0301 	add.w	r3, r3, #1
  407baa:	d1f7      	bne.n	407b9c <memchr+0x44>
  407bac:	2000      	movs	r0, #0
  407bae:	bc70      	pop	{r4, r5, r6}
  407bb0:	4770      	bx	lr
  407bb2:	4620      	mov	r0, r4
  407bb4:	bc70      	pop	{r4, r5, r6}
  407bb6:	4770      	bx	lr
  407bb8:	ea41 2601 	orr.w	r6, r1, r1, lsl #8
  407bbc:	4602      	mov	r2, r0
  407bbe:	ea46 4606 	orr.w	r6, r6, r6, lsl #16
  407bc2:	4610      	mov	r0, r2
  407bc4:	3204      	adds	r2, #4
  407bc6:	6803      	ldr	r3, [r0, #0]
  407bc8:	4073      	eors	r3, r6
  407bca:	f1a3 3501 	sub.w	r5, r3, #16843009	; 0x1010101
  407bce:	ea25 0303 	bic.w	r3, r5, r3
  407bd2:	f013 3f80 	tst.w	r3, #2155905152	; 0x80808080
  407bd6:	d1da      	bne.n	407b8e <memchr+0x36>
  407bd8:	3c04      	subs	r4, #4
  407bda:	2c03      	cmp	r4, #3
  407bdc:	4610      	mov	r0, r2
  407bde:	d8f0      	bhi.n	407bc2 <memchr+0x6a>
  407be0:	e7d5      	b.n	407b8e <memchr+0x36>
  407be2:	4614      	mov	r4, r2
  407be4:	e7d1      	b.n	407b8a <memchr+0x32>
  407be6:	4610      	mov	r0, r2
  407be8:	e7e1      	b.n	407bae <memchr+0x56>
  407bea:	bf00      	nop

00407bec <memcpy>:
  407bec:	4684      	mov	ip, r0
  407bee:	ea41 0300 	orr.w	r3, r1, r0
  407bf2:	f013 0303 	ands.w	r3, r3, #3
  407bf6:	d16d      	bne.n	407cd4 <memcpy+0xe8>
  407bf8:	3a40      	subs	r2, #64	; 0x40
  407bfa:	d341      	bcc.n	407c80 <memcpy+0x94>
  407bfc:	f851 3b04 	ldr.w	r3, [r1], #4
  407c00:	f840 3b04 	str.w	r3, [r0], #4
  407c04:	f851 3b04 	ldr.w	r3, [r1], #4
  407c08:	f840 3b04 	str.w	r3, [r0], #4
  407c0c:	f851 3b04 	ldr.w	r3, [r1], #4
  407c10:	f840 3b04 	str.w	r3, [r0], #4
  407c14:	f851 3b04 	ldr.w	r3, [r1], #4
  407c18:	f840 3b04 	str.w	r3, [r0], #4
  407c1c:	f851 3b04 	ldr.w	r3, [r1], #4
  407c20:	f840 3b04 	str.w	r3, [r0], #4
  407c24:	f851 3b04 	ldr.w	r3, [r1], #4
  407c28:	f840 3b04 	str.w	r3, [r0], #4
  407c2c:	f851 3b04 	ldr.w	r3, [r1], #4
  407c30:	f840 3b04 	str.w	r3, [r0], #4
  407c34:	f851 3b04 	ldr.w	r3, [r1], #4
  407c38:	f840 3b04 	str.w	r3, [r0], #4
  407c3c:	f851 3b04 	ldr.w	r3, [r1], #4
  407c40:	f840 3b04 	str.w	r3, [r0], #4
  407c44:	f851 3b04 	ldr.w	r3, [r1], #4
  407c48:	f840 3b04 	str.w	r3, [r0], #4
  407c4c:	f851 3b04 	ldr.w	r3, [r1], #4
  407c50:	f840 3b04 	str.w	r3, [r0], #4
  407c54:	f851 3b04 	ldr.w	r3, [r1], #4
  407c58:	f840 3b04 	str.w	r3, [r0], #4
  407c5c:	f851 3b04 	ldr.w	r3, [r1], #4
  407c60:	f840 3b04 	str.w	r3, [r0], #4
  407c64:	f851 3b04 	ldr.w	r3, [r1], #4
  407c68:	f840 3b04 	str.w	r3, [r0], #4
  407c6c:	f851 3b04 	ldr.w	r3, [r1], #4
  407c70:	f840 3b04 	str.w	r3, [r0], #4
  407c74:	f851 3b04 	ldr.w	r3, [r1], #4
  407c78:	f840 3b04 	str.w	r3, [r0], #4
  407c7c:	3a40      	subs	r2, #64	; 0x40
  407c7e:	d2bd      	bcs.n	407bfc <memcpy+0x10>
  407c80:	3230      	adds	r2, #48	; 0x30
  407c82:	d311      	bcc.n	407ca8 <memcpy+0xbc>
  407c84:	f851 3b04 	ldr.w	r3, [r1], #4
  407c88:	f840 3b04 	str.w	r3, [r0], #4
  407c8c:	f851 3b04 	ldr.w	r3, [r1], #4
  407c90:	f840 3b04 	str.w	r3, [r0], #4
  407c94:	f851 3b04 	ldr.w	r3, [r1], #4
  407c98:	f840 3b04 	str.w	r3, [r0], #4
  407c9c:	f851 3b04 	ldr.w	r3, [r1], #4
  407ca0:	f840 3b04 	str.w	r3, [r0], #4
  407ca4:	3a10      	subs	r2, #16
  407ca6:	d2ed      	bcs.n	407c84 <memcpy+0x98>
  407ca8:	320c      	adds	r2, #12
  407caa:	d305      	bcc.n	407cb8 <memcpy+0xcc>
  407cac:	f851 3b04 	ldr.w	r3, [r1], #4
  407cb0:	f840 3b04 	str.w	r3, [r0], #4
  407cb4:	3a04      	subs	r2, #4
  407cb6:	d2f9      	bcs.n	407cac <memcpy+0xc0>
  407cb8:	3204      	adds	r2, #4
  407cba:	d008      	beq.n	407cce <memcpy+0xe2>
  407cbc:	07d2      	lsls	r2, r2, #31
  407cbe:	bf1c      	itt	ne
  407cc0:	f811 3b01 	ldrbne.w	r3, [r1], #1
  407cc4:	f800 3b01 	strbne.w	r3, [r0], #1
  407cc8:	d301      	bcc.n	407cce <memcpy+0xe2>
  407cca:	880b      	ldrh	r3, [r1, #0]
  407ccc:	8003      	strh	r3, [r0, #0]
  407cce:	4660      	mov	r0, ip
  407cd0:	4770      	bx	lr
  407cd2:	bf00      	nop
  407cd4:	2a08      	cmp	r2, #8
  407cd6:	d313      	bcc.n	407d00 <memcpy+0x114>
  407cd8:	078b      	lsls	r3, r1, #30
  407cda:	d08d      	beq.n	407bf8 <memcpy+0xc>
  407cdc:	f010 0303 	ands.w	r3, r0, #3
  407ce0:	d08a      	beq.n	407bf8 <memcpy+0xc>
  407ce2:	f1c3 0304 	rsb	r3, r3, #4
  407ce6:	1ad2      	subs	r2, r2, r3
  407ce8:	07db      	lsls	r3, r3, #31
  407cea:	bf1c      	itt	ne
  407cec:	f811 3b01 	ldrbne.w	r3, [r1], #1
  407cf0:	f800 3b01 	strbne.w	r3, [r0], #1
  407cf4:	d380      	bcc.n	407bf8 <memcpy+0xc>
  407cf6:	f831 3b02 	ldrh.w	r3, [r1], #2
  407cfa:	f820 3b02 	strh.w	r3, [r0], #2
  407cfe:	e77b      	b.n	407bf8 <memcpy+0xc>
  407d00:	3a04      	subs	r2, #4
  407d02:	d3d9      	bcc.n	407cb8 <memcpy+0xcc>
  407d04:	3a01      	subs	r2, #1
  407d06:	f811 3b01 	ldrb.w	r3, [r1], #1
  407d0a:	f800 3b01 	strb.w	r3, [r0], #1
  407d0e:	d2f9      	bcs.n	407d04 <memcpy+0x118>
  407d10:	780b      	ldrb	r3, [r1, #0]
  407d12:	7003      	strb	r3, [r0, #0]
  407d14:	784b      	ldrb	r3, [r1, #1]
  407d16:	7043      	strb	r3, [r0, #1]
  407d18:	788b      	ldrb	r3, [r1, #2]
  407d1a:	7083      	strb	r3, [r0, #2]
  407d1c:	4660      	mov	r0, ip
  407d1e:	4770      	bx	lr

00407d20 <memmove>:
  407d20:	4288      	cmp	r0, r1
  407d22:	b5f0      	push	{r4, r5, r6, r7, lr}
  407d24:	d90d      	bls.n	407d42 <memmove+0x22>
  407d26:	188b      	adds	r3, r1, r2
  407d28:	4298      	cmp	r0, r3
  407d2a:	d20a      	bcs.n	407d42 <memmove+0x22>
  407d2c:	1881      	adds	r1, r0, r2
  407d2e:	2a00      	cmp	r2, #0
  407d30:	d054      	beq.n	407ddc <memmove+0xbc>
  407d32:	1a9a      	subs	r2, r3, r2
  407d34:	f813 4d01 	ldrb.w	r4, [r3, #-1]!
  407d38:	f801 4d01 	strb.w	r4, [r1, #-1]!
  407d3c:	4293      	cmp	r3, r2
  407d3e:	d1f9      	bne.n	407d34 <memmove+0x14>
  407d40:	bdf0      	pop	{r4, r5, r6, r7, pc}
  407d42:	2a0f      	cmp	r2, #15
  407d44:	d948      	bls.n	407dd8 <memmove+0xb8>
  407d46:	ea40 0301 	orr.w	r3, r0, r1
  407d4a:	079b      	lsls	r3, r3, #30
  407d4c:	d147      	bne.n	407dde <memmove+0xbe>
  407d4e:	f100 0410 	add.w	r4, r0, #16
  407d52:	f101 0310 	add.w	r3, r1, #16
  407d56:	4615      	mov	r5, r2
  407d58:	f853 6c10 	ldr.w	r6, [r3, #-16]
  407d5c:	f844 6c10 	str.w	r6, [r4, #-16]
  407d60:	f853 6c0c 	ldr.w	r6, [r3, #-12]
  407d64:	f844 6c0c 	str.w	r6, [r4, #-12]
  407d68:	f853 6c08 	ldr.w	r6, [r3, #-8]
  407d6c:	f844 6c08 	str.w	r6, [r4, #-8]
  407d70:	3d10      	subs	r5, #16
  407d72:	f853 6c04 	ldr.w	r6, [r3, #-4]
  407d76:	f844 6c04 	str.w	r6, [r4, #-4]
  407d7a:	2d0f      	cmp	r5, #15
  407d7c:	f103 0310 	add.w	r3, r3, #16
  407d80:	f104 0410 	add.w	r4, r4, #16
  407d84:	d8e8      	bhi.n	407d58 <memmove+0x38>
  407d86:	f1a2 0310 	sub.w	r3, r2, #16
  407d8a:	f023 030f 	bic.w	r3, r3, #15
  407d8e:	f002 0e0f 	and.w	lr, r2, #15
  407d92:	3310      	adds	r3, #16
  407d94:	f1be 0f03 	cmp.w	lr, #3
  407d98:	4419      	add	r1, r3
  407d9a:	4403      	add	r3, r0
  407d9c:	d921      	bls.n	407de2 <memmove+0xc2>
  407d9e:	1f1e      	subs	r6, r3, #4
  407da0:	460d      	mov	r5, r1
  407da2:	4674      	mov	r4, lr
  407da4:	3c04      	subs	r4, #4
  407da6:	f855 7b04 	ldr.w	r7, [r5], #4
  407daa:	f846 7f04 	str.w	r7, [r6, #4]!
  407dae:	2c03      	cmp	r4, #3
  407db0:	d8f8      	bhi.n	407da4 <memmove+0x84>
  407db2:	f1ae 0404 	sub.w	r4, lr, #4
  407db6:	f024 0403 	bic.w	r4, r4, #3
  407dba:	3404      	adds	r4, #4
  407dbc:	4423      	add	r3, r4
  407dbe:	4421      	add	r1, r4
  407dc0:	f002 0203 	and.w	r2, r2, #3
  407dc4:	b152      	cbz	r2, 407ddc <memmove+0xbc>
  407dc6:	3b01      	subs	r3, #1
  407dc8:	440a      	add	r2, r1
  407dca:	f811 4b01 	ldrb.w	r4, [r1], #1
  407dce:	f803 4f01 	strb.w	r4, [r3, #1]!
  407dd2:	4291      	cmp	r1, r2
  407dd4:	d1f9      	bne.n	407dca <memmove+0xaa>
  407dd6:	bdf0      	pop	{r4, r5, r6, r7, pc}
  407dd8:	4603      	mov	r3, r0
  407dda:	e7f3      	b.n	407dc4 <memmove+0xa4>
  407ddc:	bdf0      	pop	{r4, r5, r6, r7, pc}
  407dde:	4603      	mov	r3, r0
  407de0:	e7f1      	b.n	407dc6 <memmove+0xa6>
  407de2:	4672      	mov	r2, lr
  407de4:	e7ee      	b.n	407dc4 <memmove+0xa4>
  407de6:	bf00      	nop

00407de8 <__malloc_lock>:
  407de8:	4770      	bx	lr
  407dea:	bf00      	nop

00407dec <__malloc_unlock>:
  407dec:	4770      	bx	lr
  407dee:	bf00      	nop

00407df0 <_Balloc>:
  407df0:	6cc3      	ldr	r3, [r0, #76]	; 0x4c
  407df2:	b570      	push	{r4, r5, r6, lr}
  407df4:	4605      	mov	r5, r0
  407df6:	460c      	mov	r4, r1
  407df8:	b14b      	cbz	r3, 407e0e <_Balloc+0x1e>
  407dfa:	f853 0024 	ldr.w	r0, [r3, r4, lsl #2]
  407dfe:	b180      	cbz	r0, 407e22 <_Balloc+0x32>
  407e00:	6802      	ldr	r2, [r0, #0]
  407e02:	f843 2024 	str.w	r2, [r3, r4, lsl #2]
  407e06:	2300      	movs	r3, #0
  407e08:	6103      	str	r3, [r0, #16]
  407e0a:	60c3      	str	r3, [r0, #12]
  407e0c:	bd70      	pop	{r4, r5, r6, pc}
  407e0e:	2104      	movs	r1, #4
  407e10:	2221      	movs	r2, #33	; 0x21
  407e12:	f000 fde9 	bl	4089e8 <_calloc_r>
  407e16:	64e8      	str	r0, [r5, #76]	; 0x4c
  407e18:	4603      	mov	r3, r0
  407e1a:	2800      	cmp	r0, #0
  407e1c:	d1ed      	bne.n	407dfa <_Balloc+0xa>
  407e1e:	2000      	movs	r0, #0
  407e20:	bd70      	pop	{r4, r5, r6, pc}
  407e22:	2101      	movs	r1, #1
  407e24:	fa01 f604 	lsl.w	r6, r1, r4
  407e28:	1d72      	adds	r2, r6, #5
  407e2a:	4628      	mov	r0, r5
  407e2c:	0092      	lsls	r2, r2, #2
  407e2e:	f000 fddb 	bl	4089e8 <_calloc_r>
  407e32:	2800      	cmp	r0, #0
  407e34:	d0f3      	beq.n	407e1e <_Balloc+0x2e>
  407e36:	6044      	str	r4, [r0, #4]
  407e38:	6086      	str	r6, [r0, #8]
  407e3a:	e7e4      	b.n	407e06 <_Balloc+0x16>

00407e3c <_Bfree>:
  407e3c:	b131      	cbz	r1, 407e4c <_Bfree+0x10>
  407e3e:	6cc3      	ldr	r3, [r0, #76]	; 0x4c
  407e40:	684a      	ldr	r2, [r1, #4]
  407e42:	f853 0022 	ldr.w	r0, [r3, r2, lsl #2]
  407e46:	6008      	str	r0, [r1, #0]
  407e48:	f843 1022 	str.w	r1, [r3, r2, lsl #2]
  407e4c:	4770      	bx	lr
  407e4e:	bf00      	nop

00407e50 <__multadd>:
  407e50:	b5f0      	push	{r4, r5, r6, r7, lr}
  407e52:	690c      	ldr	r4, [r1, #16]
  407e54:	b083      	sub	sp, #12
  407e56:	460d      	mov	r5, r1
  407e58:	4606      	mov	r6, r0
  407e5a:	f101 0e14 	add.w	lr, r1, #20
  407e5e:	2700      	movs	r7, #0
  407e60:	f8de 1000 	ldr.w	r1, [lr]
  407e64:	b288      	uxth	r0, r1
  407e66:	0c09      	lsrs	r1, r1, #16
  407e68:	fb02 3300 	mla	r3, r2, r0, r3
  407e6c:	fb02 f101 	mul.w	r1, r2, r1
  407e70:	eb01 4113 	add.w	r1, r1, r3, lsr #16
  407e74:	3701      	adds	r7, #1
  407e76:	b29b      	uxth	r3, r3
  407e78:	eb03 4301 	add.w	r3, r3, r1, lsl #16
  407e7c:	42bc      	cmp	r4, r7
  407e7e:	f84e 3b04 	str.w	r3, [lr], #4
  407e82:	ea4f 4311 	mov.w	r3, r1, lsr #16
  407e86:	dceb      	bgt.n	407e60 <__multadd+0x10>
  407e88:	b13b      	cbz	r3, 407e9a <__multadd+0x4a>
  407e8a:	68aa      	ldr	r2, [r5, #8]
  407e8c:	4294      	cmp	r4, r2
  407e8e:	da07      	bge.n	407ea0 <__multadd+0x50>
  407e90:	eb05 0284 	add.w	r2, r5, r4, lsl #2
  407e94:	3401      	adds	r4, #1
  407e96:	6153      	str	r3, [r2, #20]
  407e98:	612c      	str	r4, [r5, #16]
  407e9a:	4628      	mov	r0, r5
  407e9c:	b003      	add	sp, #12
  407e9e:	bdf0      	pop	{r4, r5, r6, r7, pc}
  407ea0:	6869      	ldr	r1, [r5, #4]
  407ea2:	9301      	str	r3, [sp, #4]
  407ea4:	3101      	adds	r1, #1
  407ea6:	4630      	mov	r0, r6
  407ea8:	f7ff ffa2 	bl	407df0 <_Balloc>
  407eac:	692a      	ldr	r2, [r5, #16]
  407eae:	3202      	adds	r2, #2
  407eb0:	f105 010c 	add.w	r1, r5, #12
  407eb4:	4607      	mov	r7, r0
  407eb6:	0092      	lsls	r2, r2, #2
  407eb8:	300c      	adds	r0, #12
  407eba:	f7ff fe97 	bl	407bec <memcpy>
  407ebe:	6cf2      	ldr	r2, [r6, #76]	; 0x4c
  407ec0:	6869      	ldr	r1, [r5, #4]
  407ec2:	9b01      	ldr	r3, [sp, #4]
  407ec4:	f852 0021 	ldr.w	r0, [r2, r1, lsl #2]
  407ec8:	6028      	str	r0, [r5, #0]
  407eca:	f842 5021 	str.w	r5, [r2, r1, lsl #2]
  407ece:	463d      	mov	r5, r7
  407ed0:	e7de      	b.n	407e90 <__multadd+0x40>
  407ed2:	bf00      	nop

00407ed4 <__hi0bits>:
  407ed4:	0c03      	lsrs	r3, r0, #16
  407ed6:	041b      	lsls	r3, r3, #16
  407ed8:	b9b3      	cbnz	r3, 407f08 <__hi0bits+0x34>
  407eda:	0400      	lsls	r0, r0, #16
  407edc:	2310      	movs	r3, #16
  407ede:	f010 4f7f 	tst.w	r0, #4278190080	; 0xff000000
  407ee2:	bf04      	itt	eq
  407ee4:	0200      	lsleq	r0, r0, #8
  407ee6:	3308      	addeq	r3, #8
  407ee8:	f010 4f70 	tst.w	r0, #4026531840	; 0xf0000000
  407eec:	bf04      	itt	eq
  407eee:	0100      	lsleq	r0, r0, #4
  407ef0:	3304      	addeq	r3, #4
  407ef2:	f010 4f40 	tst.w	r0, #3221225472	; 0xc0000000
  407ef6:	bf04      	itt	eq
  407ef8:	0080      	lsleq	r0, r0, #2
  407efa:	3302      	addeq	r3, #2
  407efc:	2800      	cmp	r0, #0
  407efe:	db07      	blt.n	407f10 <__hi0bits+0x3c>
  407f00:	0042      	lsls	r2, r0, #1
  407f02:	d403      	bmi.n	407f0c <__hi0bits+0x38>
  407f04:	2020      	movs	r0, #32
  407f06:	4770      	bx	lr
  407f08:	2300      	movs	r3, #0
  407f0a:	e7e8      	b.n	407ede <__hi0bits+0xa>
  407f0c:	1c58      	adds	r0, r3, #1
  407f0e:	4770      	bx	lr
  407f10:	4618      	mov	r0, r3
  407f12:	4770      	bx	lr

00407f14 <__lo0bits>:
  407f14:	6803      	ldr	r3, [r0, #0]
  407f16:	f013 0207 	ands.w	r2, r3, #7
  407f1a:	d007      	beq.n	407f2c <__lo0bits+0x18>
  407f1c:	07d9      	lsls	r1, r3, #31
  407f1e:	d420      	bmi.n	407f62 <__lo0bits+0x4e>
  407f20:	079a      	lsls	r2, r3, #30
  407f22:	d420      	bmi.n	407f66 <__lo0bits+0x52>
  407f24:	089b      	lsrs	r3, r3, #2
  407f26:	6003      	str	r3, [r0, #0]
  407f28:	2002      	movs	r0, #2
  407f2a:	4770      	bx	lr
  407f2c:	b299      	uxth	r1, r3
  407f2e:	b909      	cbnz	r1, 407f34 <__lo0bits+0x20>
  407f30:	0c1b      	lsrs	r3, r3, #16
  407f32:	2210      	movs	r2, #16
  407f34:	f013 0fff 	tst.w	r3, #255	; 0xff
  407f38:	bf04      	itt	eq
  407f3a:	0a1b      	lsreq	r3, r3, #8
  407f3c:	3208      	addeq	r2, #8
  407f3e:	0719      	lsls	r1, r3, #28
  407f40:	bf04      	itt	eq
  407f42:	091b      	lsreq	r3, r3, #4
  407f44:	3204      	addeq	r2, #4
  407f46:	0799      	lsls	r1, r3, #30
  407f48:	bf04      	itt	eq
  407f4a:	089b      	lsreq	r3, r3, #2
  407f4c:	3202      	addeq	r2, #2
  407f4e:	07d9      	lsls	r1, r3, #31
  407f50:	d404      	bmi.n	407f5c <__lo0bits+0x48>
  407f52:	085b      	lsrs	r3, r3, #1
  407f54:	d101      	bne.n	407f5a <__lo0bits+0x46>
  407f56:	2020      	movs	r0, #32
  407f58:	4770      	bx	lr
  407f5a:	3201      	adds	r2, #1
  407f5c:	6003      	str	r3, [r0, #0]
  407f5e:	4610      	mov	r0, r2
  407f60:	4770      	bx	lr
  407f62:	2000      	movs	r0, #0
  407f64:	4770      	bx	lr
  407f66:	085b      	lsrs	r3, r3, #1
  407f68:	6003      	str	r3, [r0, #0]
  407f6a:	2001      	movs	r0, #1
  407f6c:	4770      	bx	lr
  407f6e:	bf00      	nop

00407f70 <__i2b>:
  407f70:	b510      	push	{r4, lr}
  407f72:	460c      	mov	r4, r1
  407f74:	2101      	movs	r1, #1
  407f76:	f7ff ff3b 	bl	407df0 <_Balloc>
  407f7a:	2201      	movs	r2, #1
  407f7c:	6144      	str	r4, [r0, #20]
  407f7e:	6102      	str	r2, [r0, #16]
  407f80:	bd10      	pop	{r4, pc}
  407f82:	bf00      	nop

00407f84 <__multiply>:
  407f84:	e92d 4ff0 	stmdb	sp!, {r4, r5, r6, r7, r8, r9, sl, fp, lr}
  407f88:	690f      	ldr	r7, [r1, #16]
  407f8a:	6916      	ldr	r6, [r2, #16]
  407f8c:	42b7      	cmp	r7, r6
  407f8e:	b083      	sub	sp, #12
  407f90:	460d      	mov	r5, r1
  407f92:	4614      	mov	r4, r2
  407f94:	f2c0 808d 	blt.w	4080b2 <__multiply+0x12e>
  407f98:	4633      	mov	r3, r6
  407f9a:	463e      	mov	r6, r7
  407f9c:	461f      	mov	r7, r3
  407f9e:	68ab      	ldr	r3, [r5, #8]
  407fa0:	6869      	ldr	r1, [r5, #4]
  407fa2:	eb06 0807 	add.w	r8, r6, r7
  407fa6:	4598      	cmp	r8, r3
  407fa8:	bfc8      	it	gt
  407faa:	3101      	addgt	r1, #1
  407fac:	f7ff ff20 	bl	407df0 <_Balloc>
  407fb0:	f100 0c14 	add.w	ip, r0, #20
  407fb4:	eb0c 0988 	add.w	r9, ip, r8, lsl #2
  407fb8:	45cc      	cmp	ip, r9
  407fba:	9000      	str	r0, [sp, #0]
  407fbc:	d205      	bcs.n	407fca <__multiply+0x46>
  407fbe:	4663      	mov	r3, ip
  407fc0:	2100      	movs	r1, #0
  407fc2:	f843 1b04 	str.w	r1, [r3], #4
  407fc6:	4599      	cmp	r9, r3
  407fc8:	d8fb      	bhi.n	407fc2 <__multiply+0x3e>
  407fca:	f104 0214 	add.w	r2, r4, #20
  407fce:	eb02 0a87 	add.w	sl, r2, r7, lsl #2
  407fd2:	f105 0314 	add.w	r3, r5, #20
  407fd6:	4552      	cmp	r2, sl
  407fd8:	eb03 0e86 	add.w	lr, r3, r6, lsl #2
  407fdc:	d254      	bcs.n	408088 <__multiply+0x104>
  407fde:	f8cd 9004 	str.w	r9, [sp, #4]
  407fe2:	4699      	mov	r9, r3
  407fe4:	f852 3b04 	ldr.w	r3, [r2], #4
  407fe8:	fa1f fb83 	uxth.w	fp, r3
  407fec:	f1bb 0f00 	cmp.w	fp, #0
  407ff0:	d020      	beq.n	408034 <__multiply+0xb0>
  407ff2:	2000      	movs	r0, #0
  407ff4:	464f      	mov	r7, r9
  407ff6:	4666      	mov	r6, ip
  407ff8:	4605      	mov	r5, r0
  407ffa:	e000      	b.n	407ffe <__multiply+0x7a>
  407ffc:	461e      	mov	r6, r3
  407ffe:	f857 4b04 	ldr.w	r4, [r7], #4
  408002:	6830      	ldr	r0, [r6, #0]
  408004:	b2a1      	uxth	r1, r4
  408006:	b283      	uxth	r3, r0
  408008:	fb0b 3101 	mla	r1, fp, r1, r3
  40800c:	0c24      	lsrs	r4, r4, #16
  40800e:	0c00      	lsrs	r0, r0, #16
  408010:	194b      	adds	r3, r1, r5
  408012:	fb0b 0004 	mla	r0, fp, r4, r0
  408016:	eb00 4013 	add.w	r0, r0, r3, lsr #16
  40801a:	b299      	uxth	r1, r3
  40801c:	4633      	mov	r3, r6
  40801e:	ea41 4100 	orr.w	r1, r1, r0, lsl #16
  408022:	45be      	cmp	lr, r7
  408024:	ea4f 4510 	mov.w	r5, r0, lsr #16
  408028:	f843 1b04 	str.w	r1, [r3], #4
  40802c:	d8e6      	bhi.n	407ffc <__multiply+0x78>
  40802e:	6075      	str	r5, [r6, #4]
  408030:	f852 3c04 	ldr.w	r3, [r2, #-4]
  408034:	ea5f 4b13 	movs.w	fp, r3, lsr #16
  408038:	d020      	beq.n	40807c <__multiply+0xf8>
  40803a:	f8dc 3000 	ldr.w	r3, [ip]
  40803e:	4667      	mov	r7, ip
  408040:	4618      	mov	r0, r3
  408042:	464d      	mov	r5, r9
  408044:	2100      	movs	r1, #0
  408046:	e000      	b.n	40804a <__multiply+0xc6>
  408048:	4637      	mov	r7, r6
  40804a:	882c      	ldrh	r4, [r5, #0]
  40804c:	0c00      	lsrs	r0, r0, #16
  40804e:	fb0b 0004 	mla	r0, fp, r4, r0
  408052:	4401      	add	r1, r0
  408054:	b29c      	uxth	r4, r3
  408056:	463e      	mov	r6, r7
  408058:	ea44 4301 	orr.w	r3, r4, r1, lsl #16
  40805c:	f846 3b04 	str.w	r3, [r6], #4
  408060:	6878      	ldr	r0, [r7, #4]
  408062:	f855 4b04 	ldr.w	r4, [r5], #4
  408066:	b283      	uxth	r3, r0
  408068:	0c24      	lsrs	r4, r4, #16
  40806a:	fb0b 3404 	mla	r4, fp, r4, r3
  40806e:	eb04 4311 	add.w	r3, r4, r1, lsr #16
  408072:	45ae      	cmp	lr, r5
  408074:	ea4f 4113 	mov.w	r1, r3, lsr #16
  408078:	d8e6      	bhi.n	408048 <__multiply+0xc4>
  40807a:	607b      	str	r3, [r7, #4]
  40807c:	4592      	cmp	sl, r2
  40807e:	f10c 0c04 	add.w	ip, ip, #4
  408082:	d8af      	bhi.n	407fe4 <__multiply+0x60>
  408084:	f8dd 9004 	ldr.w	r9, [sp, #4]
  408088:	f1b8 0f00 	cmp.w	r8, #0
  40808c:	dd0b      	ble.n	4080a6 <__multiply+0x122>
  40808e:	f859 3c04 	ldr.w	r3, [r9, #-4]
  408092:	f1a9 0904 	sub.w	r9, r9, #4
  408096:	b11b      	cbz	r3, 4080a0 <__multiply+0x11c>
  408098:	e005      	b.n	4080a6 <__multiply+0x122>
  40809a:	f859 3d04 	ldr.w	r3, [r9, #-4]!
  40809e:	b913      	cbnz	r3, 4080a6 <__multiply+0x122>
  4080a0:	f1b8 0801 	subs.w	r8, r8, #1
  4080a4:	d1f9      	bne.n	40809a <__multiply+0x116>
  4080a6:	9800      	ldr	r0, [sp, #0]
  4080a8:	f8c0 8010 	str.w	r8, [r0, #16]
  4080ac:	b003      	add	sp, #12
  4080ae:	e8bd 8ff0 	ldmia.w	sp!, {r4, r5, r6, r7, r8, r9, sl, fp, pc}
  4080b2:	4615      	mov	r5, r2
  4080b4:	460c      	mov	r4, r1
  4080b6:	e772      	b.n	407f9e <__multiply+0x1a>

004080b8 <__pow5mult>:
  4080b8:	f012 0303 	ands.w	r3, r2, #3
  4080bc:	e92d 41f0 	stmdb	sp!, {r4, r5, r6, r7, r8, lr}
  4080c0:	4614      	mov	r4, r2
  4080c2:	4607      	mov	r7, r0
  4080c4:	460e      	mov	r6, r1
  4080c6:	d12d      	bne.n	408124 <__pow5mult+0x6c>
  4080c8:	10a4      	asrs	r4, r4, #2
  4080ca:	d01c      	beq.n	408106 <__pow5mult+0x4e>
  4080cc:	6cbd      	ldr	r5, [r7, #72]	; 0x48
  4080ce:	b395      	cbz	r5, 408136 <__pow5mult+0x7e>
  4080d0:	07e3      	lsls	r3, r4, #31
  4080d2:	f04f 0800 	mov.w	r8, #0
  4080d6:	d406      	bmi.n	4080e6 <__pow5mult+0x2e>
  4080d8:	1064      	asrs	r4, r4, #1
  4080da:	d014      	beq.n	408106 <__pow5mult+0x4e>
  4080dc:	6828      	ldr	r0, [r5, #0]
  4080de:	b1a8      	cbz	r0, 40810c <__pow5mult+0x54>
  4080e0:	4605      	mov	r5, r0
  4080e2:	07e3      	lsls	r3, r4, #31
  4080e4:	d5f8      	bpl.n	4080d8 <__pow5mult+0x20>
  4080e6:	4638      	mov	r0, r7
  4080e8:	4631      	mov	r1, r6
  4080ea:	462a      	mov	r2, r5
  4080ec:	f7ff ff4a 	bl	407f84 <__multiply>
  4080f0:	b1b6      	cbz	r6, 408120 <__pow5mult+0x68>
  4080f2:	6872      	ldr	r2, [r6, #4]
  4080f4:	6cfb      	ldr	r3, [r7, #76]	; 0x4c
  4080f6:	1064      	asrs	r4, r4, #1
  4080f8:	f853 1022 	ldr.w	r1, [r3, r2, lsl #2]
  4080fc:	6031      	str	r1, [r6, #0]
  4080fe:	f843 6022 	str.w	r6, [r3, r2, lsl #2]
  408102:	4606      	mov	r6, r0
  408104:	d1ea      	bne.n	4080dc <__pow5mult+0x24>
  408106:	4630      	mov	r0, r6
  408108:	e8bd 81f0 	ldmia.w	sp!, {r4, r5, r6, r7, r8, pc}
  40810c:	4629      	mov	r1, r5
  40810e:	462a      	mov	r2, r5
  408110:	4638      	mov	r0, r7
  408112:	f7ff ff37 	bl	407f84 <__multiply>
  408116:	6028      	str	r0, [r5, #0]
  408118:	f8c0 8000 	str.w	r8, [r0]
  40811c:	4605      	mov	r5, r0
  40811e:	e7e0      	b.n	4080e2 <__pow5mult+0x2a>
  408120:	4606      	mov	r6, r0
  408122:	e7d9      	b.n	4080d8 <__pow5mult+0x20>
  408124:	1e5a      	subs	r2, r3, #1
  408126:	4d0b      	ldr	r5, [pc, #44]	; (408154 <__pow5mult+0x9c>)
  408128:	2300      	movs	r3, #0
  40812a:	f855 2022 	ldr.w	r2, [r5, r2, lsl #2]
  40812e:	f7ff fe8f 	bl	407e50 <__multadd>
  408132:	4606      	mov	r6, r0
  408134:	e7c8      	b.n	4080c8 <__pow5mult+0x10>
  408136:	2101      	movs	r1, #1
  408138:	4638      	mov	r0, r7
  40813a:	f7ff fe59 	bl	407df0 <_Balloc>
  40813e:	f240 2171 	movw	r1, #625	; 0x271
  408142:	2201      	movs	r2, #1
  408144:	2300      	movs	r3, #0
  408146:	6141      	str	r1, [r0, #20]
  408148:	6102      	str	r2, [r0, #16]
  40814a:	4605      	mov	r5, r0
  40814c:	64b8      	str	r0, [r7, #72]	; 0x48
  40814e:	6003      	str	r3, [r0, #0]
  408150:	e7be      	b.n	4080d0 <__pow5mult+0x18>
  408152:	bf00      	nop
  408154:	00409aa8 	.word	0x00409aa8

00408158 <__lshift>:
  408158:	e92d 47f0 	stmdb	sp!, {r4, r5, r6, r7, r8, r9, sl, lr}
  40815c:	690f      	ldr	r7, [r1, #16]
  40815e:	688b      	ldr	r3, [r1, #8]
  408160:	ea4f 1962 	mov.w	r9, r2, asr #5
  408164:	444f      	add	r7, r9
  408166:	1c7d      	adds	r5, r7, #1
  408168:	429d      	cmp	r5, r3
  40816a:	460e      	mov	r6, r1
  40816c:	4614      	mov	r4, r2
  40816e:	6849      	ldr	r1, [r1, #4]
  408170:	4680      	mov	r8, r0
  408172:	dd04      	ble.n	40817e <__lshift+0x26>
  408174:	005b      	lsls	r3, r3, #1
  408176:	429d      	cmp	r5, r3
  408178:	f101 0101 	add.w	r1, r1, #1
  40817c:	dcfa      	bgt.n	408174 <__lshift+0x1c>
  40817e:	4640      	mov	r0, r8
  408180:	f7ff fe36 	bl	407df0 <_Balloc>
  408184:	f1b9 0f00 	cmp.w	r9, #0
  408188:	f100 0114 	add.w	r1, r0, #20
  40818c:	dd09      	ble.n	4081a2 <__lshift+0x4a>
  40818e:	2300      	movs	r3, #0
  408190:	469e      	mov	lr, r3
  408192:	460a      	mov	r2, r1
  408194:	3301      	adds	r3, #1
  408196:	454b      	cmp	r3, r9
  408198:	f842 eb04 	str.w	lr, [r2], #4
  40819c:	d1fa      	bne.n	408194 <__lshift+0x3c>
  40819e:	eb01 0183 	add.w	r1, r1, r3, lsl #2
  4081a2:	6932      	ldr	r2, [r6, #16]
  4081a4:	f106 0314 	add.w	r3, r6, #20
  4081a8:	f014 0c1f 	ands.w	ip, r4, #31
  4081ac:	eb03 0e82 	add.w	lr, r3, r2, lsl #2
  4081b0:	d01f      	beq.n	4081f2 <__lshift+0x9a>
  4081b2:	f1cc 0920 	rsb	r9, ip, #32
  4081b6:	2200      	movs	r2, #0
  4081b8:	681c      	ldr	r4, [r3, #0]
  4081ba:	fa04 f40c 	lsl.w	r4, r4, ip
  4081be:	4314      	orrs	r4, r2
  4081c0:	468a      	mov	sl, r1
  4081c2:	f841 4b04 	str.w	r4, [r1], #4
  4081c6:	f853 4b04 	ldr.w	r4, [r3], #4
  4081ca:	459e      	cmp	lr, r3
  4081cc:	fa24 f209 	lsr.w	r2, r4, r9
  4081d0:	d8f2      	bhi.n	4081b8 <__lshift+0x60>
  4081d2:	f8ca 2004 	str.w	r2, [sl, #4]
  4081d6:	b102      	cbz	r2, 4081da <__lshift+0x82>
  4081d8:	1cbd      	adds	r5, r7, #2
  4081da:	f8d8 304c 	ldr.w	r3, [r8, #76]	; 0x4c
  4081de:	6872      	ldr	r2, [r6, #4]
  4081e0:	3d01      	subs	r5, #1
  4081e2:	f853 1022 	ldr.w	r1, [r3, r2, lsl #2]
  4081e6:	6105      	str	r5, [r0, #16]
  4081e8:	6031      	str	r1, [r6, #0]
  4081ea:	f843 6022 	str.w	r6, [r3, r2, lsl #2]
  4081ee:	e8bd 87f0 	ldmia.w	sp!, {r4, r5, r6, r7, r8, r9, sl, pc}
  4081f2:	3904      	subs	r1, #4
  4081f4:	f853 2b04 	ldr.w	r2, [r3], #4
  4081f8:	f841 2f04 	str.w	r2, [r1, #4]!
  4081fc:	459e      	cmp	lr, r3
  4081fe:	d8f9      	bhi.n	4081f4 <__lshift+0x9c>
  408200:	e7eb      	b.n	4081da <__lshift+0x82>
  408202:	bf00      	nop

00408204 <__mcmp>:
  408204:	6902      	ldr	r2, [r0, #16]
  408206:	690b      	ldr	r3, [r1, #16]
  408208:	1ad2      	subs	r2, r2, r3
  40820a:	d113      	bne.n	408234 <__mcmp+0x30>
  40820c:	009b      	lsls	r3, r3, #2
  40820e:	3014      	adds	r0, #20
  408210:	3114      	adds	r1, #20
  408212:	4419      	add	r1, r3
  408214:	b410      	push	{r4}
  408216:	4403      	add	r3, r0
  408218:	e001      	b.n	40821e <__mcmp+0x1a>
  40821a:	4298      	cmp	r0, r3
  40821c:	d20c      	bcs.n	408238 <__mcmp+0x34>
  40821e:	f853 4d04 	ldr.w	r4, [r3, #-4]!
  408222:	f851 2d04 	ldr.w	r2, [r1, #-4]!
  408226:	4294      	cmp	r4, r2
  408228:	d0f7      	beq.n	40821a <__mcmp+0x16>
  40822a:	d309      	bcc.n	408240 <__mcmp+0x3c>
  40822c:	2001      	movs	r0, #1
  40822e:	f85d 4b04 	ldr.w	r4, [sp], #4
  408232:	4770      	bx	lr
  408234:	4610      	mov	r0, r2
  408236:	4770      	bx	lr
  408238:	2000      	movs	r0, #0
  40823a:	f85d 4b04 	ldr.w	r4, [sp], #4
  40823e:	4770      	bx	lr
  408240:	f04f 30ff 	mov.w	r0, #4294967295
  408244:	f85d 4b04 	ldr.w	r4, [sp], #4
  408248:	4770      	bx	lr
  40824a:	bf00      	nop

0040824c <__mdiff>:
  40824c:	e92d 41f0 	stmdb	sp!, {r4, r5, r6, r7, r8, lr}
  408250:	460e      	mov	r6, r1
  408252:	4605      	mov	r5, r0
  408254:	4611      	mov	r1, r2
  408256:	4630      	mov	r0, r6
  408258:	4614      	mov	r4, r2
  40825a:	f7ff ffd3 	bl	408204 <__mcmp>
  40825e:	1e07      	subs	r7, r0, #0
  408260:	d054      	beq.n	40830c <__mdiff+0xc0>
  408262:	db4d      	blt.n	408300 <__mdiff+0xb4>
  408264:	f04f 0800 	mov.w	r8, #0
  408268:	6871      	ldr	r1, [r6, #4]
  40826a:	4628      	mov	r0, r5
  40826c:	f7ff fdc0 	bl	407df0 <_Balloc>
  408270:	6937      	ldr	r7, [r6, #16]
  408272:	6923      	ldr	r3, [r4, #16]
  408274:	f8c0 800c 	str.w	r8, [r0, #12]
  408278:	3614      	adds	r6, #20
  40827a:	f104 0214 	add.w	r2, r4, #20
  40827e:	eb02 0c83 	add.w	ip, r2, r3, lsl #2
  408282:	f100 0514 	add.w	r5, r0, #20
  408286:	eb06 0e87 	add.w	lr, r6, r7, lsl #2
  40828a:	2300      	movs	r3, #0
  40828c:	f856 8b04 	ldr.w	r8, [r6], #4
  408290:	f852 4b04 	ldr.w	r4, [r2], #4
  408294:	fa13 f388 	uxtah	r3, r3, r8
  408298:	b2a1      	uxth	r1, r4
  40829a:	0c24      	lsrs	r4, r4, #16
  40829c:	1a59      	subs	r1, r3, r1
  40829e:	ebc4 4318 	rsb	r3, r4, r8, lsr #16
  4082a2:	eb03 4321 	add.w	r3, r3, r1, asr #16
  4082a6:	b289      	uxth	r1, r1
  4082a8:	ea41 4103 	orr.w	r1, r1, r3, lsl #16
  4082ac:	4594      	cmp	ip, r2
  4082ae:	f845 1b04 	str.w	r1, [r5], #4
  4082b2:	ea4f 4323 	mov.w	r3, r3, asr #16
  4082b6:	4634      	mov	r4, r6
  4082b8:	d8e8      	bhi.n	40828c <__mdiff+0x40>
  4082ba:	45b6      	cmp	lr, r6
  4082bc:	46ac      	mov	ip, r5
  4082be:	d915      	bls.n	4082ec <__mdiff+0xa0>
  4082c0:	f854 2b04 	ldr.w	r2, [r4], #4
  4082c4:	fa13 f182 	uxtah	r1, r3, r2
  4082c8:	0c13      	lsrs	r3, r2, #16
  4082ca:	eb03 4321 	add.w	r3, r3, r1, asr #16
  4082ce:	b289      	uxth	r1, r1
  4082d0:	ea41 4103 	orr.w	r1, r1, r3, lsl #16
  4082d4:	45a6      	cmp	lr, r4
  4082d6:	f845 1b04 	str.w	r1, [r5], #4
  4082da:	ea4f 4323 	mov.w	r3, r3, asr #16
  4082de:	d8ef      	bhi.n	4082c0 <__mdiff+0x74>
  4082e0:	43f6      	mvns	r6, r6
  4082e2:	4476      	add	r6, lr
  4082e4:	f026 0503 	bic.w	r5, r6, #3
  4082e8:	3504      	adds	r5, #4
  4082ea:	4465      	add	r5, ip
  4082ec:	3d04      	subs	r5, #4
  4082ee:	b921      	cbnz	r1, 4082fa <__mdiff+0xae>
  4082f0:	f855 3d04 	ldr.w	r3, [r5, #-4]!
  4082f4:	3f01      	subs	r7, #1
  4082f6:	2b00      	cmp	r3, #0
  4082f8:	d0fa      	beq.n	4082f0 <__mdiff+0xa4>
  4082fa:	6107      	str	r7, [r0, #16]
  4082fc:	e8bd 81f0 	ldmia.w	sp!, {r4, r5, r6, r7, r8, pc}
  408300:	4633      	mov	r3, r6
  408302:	f04f 0801 	mov.w	r8, #1
  408306:	4626      	mov	r6, r4
  408308:	461c      	mov	r4, r3
  40830a:	e7ad      	b.n	408268 <__mdiff+0x1c>
  40830c:	4628      	mov	r0, r5
  40830e:	4639      	mov	r1, r7
  408310:	f7ff fd6e 	bl	407df0 <_Balloc>
  408314:	2301      	movs	r3, #1
  408316:	6147      	str	r7, [r0, #20]
  408318:	6103      	str	r3, [r0, #16]
  40831a:	e8bd 81f0 	ldmia.w	sp!, {r4, r5, r6, r7, r8, pc}
  40831e:	bf00      	nop

00408320 <__d2b>:
  408320:	e92d 41f0 	stmdb	sp!, {r4, r5, r6, r7, r8, lr}
  408324:	b082      	sub	sp, #8
  408326:	2101      	movs	r1, #1
  408328:	461c      	mov	r4, r3
  40832a:	f3c3 570a 	ubfx	r7, r3, #20, #11
  40832e:	4615      	mov	r5, r2
  408330:	9e08      	ldr	r6, [sp, #32]
  408332:	f7ff fd5d 	bl	407df0 <_Balloc>
  408336:	f3c4 0413 	ubfx	r4, r4, #0, #20
  40833a:	4680      	mov	r8, r0
  40833c:	b10f      	cbz	r7, 408342 <__d2b+0x22>
  40833e:	f444 1480 	orr.w	r4, r4, #1048576	; 0x100000
  408342:	9401      	str	r4, [sp, #4]
  408344:	b31d      	cbz	r5, 40838e <__d2b+0x6e>
  408346:	a802      	add	r0, sp, #8
  408348:	f840 5d08 	str.w	r5, [r0, #-8]!
  40834c:	f7ff fde2 	bl	407f14 <__lo0bits>
  408350:	2800      	cmp	r0, #0
  408352:	d134      	bne.n	4083be <__d2b+0x9e>
  408354:	e89d 000c 	ldmia.w	sp, {r2, r3}
  408358:	f8c8 2014 	str.w	r2, [r8, #20]
  40835c:	2b00      	cmp	r3, #0
  40835e:	bf14      	ite	ne
  408360:	2402      	movne	r4, #2
  408362:	2401      	moveq	r4, #1
  408364:	f8c8 3018 	str.w	r3, [r8, #24]
  408368:	f8c8 4010 	str.w	r4, [r8, #16]
  40836c:	b9df      	cbnz	r7, 4083a6 <__d2b+0x86>
  40836e:	eb08 0384 	add.w	r3, r8, r4, lsl #2
  408372:	f2a0 4032 	subw	r0, r0, #1074	; 0x432
  408376:	6030      	str	r0, [r6, #0]
  408378:	6918      	ldr	r0, [r3, #16]
  40837a:	f7ff fdab 	bl	407ed4 <__hi0bits>
  40837e:	9b09      	ldr	r3, [sp, #36]	; 0x24
  408380:	ebc0 1044 	rsb	r0, r0, r4, lsl #5
  408384:	6018      	str	r0, [r3, #0]
  408386:	4640      	mov	r0, r8
  408388:	b002      	add	sp, #8
  40838a:	e8bd 81f0 	ldmia.w	sp!, {r4, r5, r6, r7, r8, pc}
  40838e:	a801      	add	r0, sp, #4
  408390:	f7ff fdc0 	bl	407f14 <__lo0bits>
  408394:	2401      	movs	r4, #1
  408396:	9b01      	ldr	r3, [sp, #4]
  408398:	f8c8 3014 	str.w	r3, [r8, #20]
  40839c:	3020      	adds	r0, #32
  40839e:	f8c8 4010 	str.w	r4, [r8, #16]
  4083a2:	2f00      	cmp	r7, #0
  4083a4:	d0e3      	beq.n	40836e <__d2b+0x4e>
  4083a6:	9b09      	ldr	r3, [sp, #36]	; 0x24
  4083a8:	f2a7 4733 	subw	r7, r7, #1075	; 0x433
  4083ac:	4407      	add	r7, r0
  4083ae:	f1c0 0035 	rsb	r0, r0, #53	; 0x35
  4083b2:	6037      	str	r7, [r6, #0]
  4083b4:	6018      	str	r0, [r3, #0]
  4083b6:	4640      	mov	r0, r8
  4083b8:	b002      	add	sp, #8
  4083ba:	e8bd 81f0 	ldmia.w	sp!, {r4, r5, r6, r7, r8, pc}
  4083be:	e89d 000c 	ldmia.w	sp, {r2, r3}
  4083c2:	f1c0 0120 	rsb	r1, r0, #32
  4083c6:	fa03 f101 	lsl.w	r1, r3, r1
  4083ca:	430a      	orrs	r2, r1
  4083cc:	40c3      	lsrs	r3, r0
  4083ce:	9301      	str	r3, [sp, #4]
  4083d0:	f8c8 2014 	str.w	r2, [r8, #20]
  4083d4:	e7c2      	b.n	40835c <__d2b+0x3c>
  4083d6:	bf00      	nop

004083d8 <_realloc_r>:
  4083d8:	e92d 4ff0 	stmdb	sp!, {r4, r5, r6, r7, r8, r9, sl, fp, lr}
  4083dc:	4617      	mov	r7, r2
  4083de:	b083      	sub	sp, #12
  4083e0:	460e      	mov	r6, r1
  4083e2:	2900      	cmp	r1, #0
  4083e4:	f000 80e7 	beq.w	4085b6 <_realloc_r+0x1de>
  4083e8:	4681      	mov	r9, r0
  4083ea:	f107 050b 	add.w	r5, r7, #11
  4083ee:	f7ff fcfb 	bl	407de8 <__malloc_lock>
  4083f2:	f856 3c04 	ldr.w	r3, [r6, #-4]
  4083f6:	2d16      	cmp	r5, #22
  4083f8:	f023 0403 	bic.w	r4, r3, #3
  4083fc:	f1a6 0808 	sub.w	r8, r6, #8
  408400:	d84c      	bhi.n	40849c <_realloc_r+0xc4>
  408402:	2210      	movs	r2, #16
  408404:	4615      	mov	r5, r2
  408406:	42af      	cmp	r7, r5
  408408:	d84d      	bhi.n	4084a6 <_realloc_r+0xce>
  40840a:	4294      	cmp	r4, r2
  40840c:	f280 8084 	bge.w	408518 <_realloc_r+0x140>
  408410:	f8df b3ac 	ldr.w	fp, [pc, #940]	; 4087c0 <_realloc_r+0x3e8>
  408414:	f8db 0008 	ldr.w	r0, [fp, #8]
  408418:	eb08 0104 	add.w	r1, r8, r4
  40841c:	4288      	cmp	r0, r1
  40841e:	f000 80d6 	beq.w	4085ce <_realloc_r+0x1f6>
  408422:	6848      	ldr	r0, [r1, #4]
  408424:	f020 0e01 	bic.w	lr, r0, #1
  408428:	448e      	add	lr, r1
  40842a:	f8de e004 	ldr.w	lr, [lr, #4]
  40842e:	f01e 0f01 	tst.w	lr, #1
  408432:	d13f      	bne.n	4084b4 <_realloc_r+0xdc>
  408434:	f020 0003 	bic.w	r0, r0, #3
  408438:	4420      	add	r0, r4
  40843a:	4290      	cmp	r0, r2
  40843c:	f280 80c1 	bge.w	4085c2 <_realloc_r+0x1ea>
  408440:	07db      	lsls	r3, r3, #31
  408442:	f100 808f 	bmi.w	408564 <_realloc_r+0x18c>
  408446:	f856 3c08 	ldr.w	r3, [r6, #-8]
  40844a:	ebc3 0a08 	rsb	sl, r3, r8
  40844e:	f8da 3004 	ldr.w	r3, [sl, #4]
  408452:	f023 0303 	bic.w	r3, r3, #3
  408456:	eb00 0e03 	add.w	lr, r0, r3
  40845a:	4596      	cmp	lr, r2
  40845c:	db34      	blt.n	4084c8 <_realloc_r+0xf0>
  40845e:	68cb      	ldr	r3, [r1, #12]
  408460:	688a      	ldr	r2, [r1, #8]
  408462:	4657      	mov	r7, sl
  408464:	60d3      	str	r3, [r2, #12]
  408466:	609a      	str	r2, [r3, #8]
  408468:	f857 1f08 	ldr.w	r1, [r7, #8]!
  40846c:	f8da 300c 	ldr.w	r3, [sl, #12]
  408470:	60cb      	str	r3, [r1, #12]
  408472:	1f22      	subs	r2, r4, #4
  408474:	2a24      	cmp	r2, #36	; 0x24
  408476:	6099      	str	r1, [r3, #8]
  408478:	f200 8136 	bhi.w	4086e8 <_realloc_r+0x310>
  40847c:	2a13      	cmp	r2, #19
  40847e:	f240 80fd 	bls.w	40867c <_realloc_r+0x2a4>
  408482:	6833      	ldr	r3, [r6, #0]
  408484:	f8ca 3008 	str.w	r3, [sl, #8]
  408488:	6873      	ldr	r3, [r6, #4]
  40848a:	f8ca 300c 	str.w	r3, [sl, #12]
  40848e:	2a1b      	cmp	r2, #27
  408490:	f200 8140 	bhi.w	408714 <_realloc_r+0x33c>
  408494:	3608      	adds	r6, #8
  408496:	f10a 0310 	add.w	r3, sl, #16
  40849a:	e0f0      	b.n	40867e <_realloc_r+0x2a6>
  40849c:	f025 0507 	bic.w	r5, r5, #7
  4084a0:	2d00      	cmp	r5, #0
  4084a2:	462a      	mov	r2, r5
  4084a4:	daaf      	bge.n	408406 <_realloc_r+0x2e>
  4084a6:	230c      	movs	r3, #12
  4084a8:	2000      	movs	r0, #0
  4084aa:	f8c9 3000 	str.w	r3, [r9]
  4084ae:	b003      	add	sp, #12
  4084b0:	e8bd 8ff0 	ldmia.w	sp!, {r4, r5, r6, r7, r8, r9, sl, fp, pc}
  4084b4:	07d9      	lsls	r1, r3, #31
  4084b6:	d455      	bmi.n	408564 <_realloc_r+0x18c>
  4084b8:	f856 3c08 	ldr.w	r3, [r6, #-8]
  4084bc:	ebc3 0a08 	rsb	sl, r3, r8
  4084c0:	f8da 3004 	ldr.w	r3, [sl, #4]
  4084c4:	f023 0303 	bic.w	r3, r3, #3
  4084c8:	4423      	add	r3, r4
  4084ca:	4293      	cmp	r3, r2
  4084cc:	db4a      	blt.n	408564 <_realloc_r+0x18c>
  4084ce:	4657      	mov	r7, sl
  4084d0:	f8da 100c 	ldr.w	r1, [sl, #12]
  4084d4:	f857 0f08 	ldr.w	r0, [r7, #8]!
  4084d8:	1f22      	subs	r2, r4, #4
  4084da:	2a24      	cmp	r2, #36	; 0x24
  4084dc:	60c1      	str	r1, [r0, #12]
  4084de:	6088      	str	r0, [r1, #8]
  4084e0:	f200 810e 	bhi.w	408700 <_realloc_r+0x328>
  4084e4:	2a13      	cmp	r2, #19
  4084e6:	f240 8109 	bls.w	4086fc <_realloc_r+0x324>
  4084ea:	6831      	ldr	r1, [r6, #0]
  4084ec:	f8ca 1008 	str.w	r1, [sl, #8]
  4084f0:	6871      	ldr	r1, [r6, #4]
  4084f2:	f8ca 100c 	str.w	r1, [sl, #12]
  4084f6:	2a1b      	cmp	r2, #27
  4084f8:	f200 8121 	bhi.w	40873e <_realloc_r+0x366>
  4084fc:	3608      	adds	r6, #8
  4084fe:	f10a 0210 	add.w	r2, sl, #16
  408502:	6831      	ldr	r1, [r6, #0]
  408504:	6011      	str	r1, [r2, #0]
  408506:	6871      	ldr	r1, [r6, #4]
  408508:	6051      	str	r1, [r2, #4]
  40850a:	68b1      	ldr	r1, [r6, #8]
  40850c:	6091      	str	r1, [r2, #8]
  40850e:	461c      	mov	r4, r3
  408510:	f8da 3004 	ldr.w	r3, [sl, #4]
  408514:	463e      	mov	r6, r7
  408516:	46d0      	mov	r8, sl
  408518:	1b62      	subs	r2, r4, r5
  40851a:	2a0f      	cmp	r2, #15
  40851c:	f003 0301 	and.w	r3, r3, #1
  408520:	d80e      	bhi.n	408540 <_realloc_r+0x168>
  408522:	4323      	orrs	r3, r4
  408524:	4444      	add	r4, r8
  408526:	f8c8 3004 	str.w	r3, [r8, #4]
  40852a:	6863      	ldr	r3, [r4, #4]
  40852c:	f043 0301 	orr.w	r3, r3, #1
  408530:	6063      	str	r3, [r4, #4]
  408532:	4648      	mov	r0, r9
  408534:	f7ff fc5a 	bl	407dec <__malloc_unlock>
  408538:	4630      	mov	r0, r6
  40853a:	b003      	add	sp, #12
  40853c:	e8bd 8ff0 	ldmia.w	sp!, {r4, r5, r6, r7, r8, r9, sl, fp, pc}
  408540:	eb08 0105 	add.w	r1, r8, r5
  408544:	431d      	orrs	r5, r3
  408546:	f042 0301 	orr.w	r3, r2, #1
  40854a:	440a      	add	r2, r1
  40854c:	f8c8 5004 	str.w	r5, [r8, #4]
  408550:	604b      	str	r3, [r1, #4]
  408552:	6853      	ldr	r3, [r2, #4]
  408554:	f043 0301 	orr.w	r3, r3, #1
  408558:	3108      	adds	r1, #8
  40855a:	6053      	str	r3, [r2, #4]
  40855c:	4648      	mov	r0, r9
  40855e:	f7fe ff8d 	bl	40747c <_free_r>
  408562:	e7e6      	b.n	408532 <_realloc_r+0x15a>
  408564:	4639      	mov	r1, r7
  408566:	4648      	mov	r0, r9
  408568:	f7ff f864 	bl	407634 <_malloc_r>
  40856c:	4607      	mov	r7, r0
  40856e:	b1d8      	cbz	r0, 4085a8 <_realloc_r+0x1d0>
  408570:	f856 3c04 	ldr.w	r3, [r6, #-4]
  408574:	f023 0201 	bic.w	r2, r3, #1
  408578:	4442      	add	r2, r8
  40857a:	f1a0 0108 	sub.w	r1, r0, #8
  40857e:	4291      	cmp	r1, r2
  408580:	f000 80ac 	beq.w	4086dc <_realloc_r+0x304>
  408584:	1f22      	subs	r2, r4, #4
  408586:	2a24      	cmp	r2, #36	; 0x24
  408588:	f200 8099 	bhi.w	4086be <_realloc_r+0x2e6>
  40858c:	2a13      	cmp	r2, #19
  40858e:	d86a      	bhi.n	408666 <_realloc_r+0x28e>
  408590:	4603      	mov	r3, r0
  408592:	4632      	mov	r2, r6
  408594:	6811      	ldr	r1, [r2, #0]
  408596:	6019      	str	r1, [r3, #0]
  408598:	6851      	ldr	r1, [r2, #4]
  40859a:	6059      	str	r1, [r3, #4]
  40859c:	6892      	ldr	r2, [r2, #8]
  40859e:	609a      	str	r2, [r3, #8]
  4085a0:	4631      	mov	r1, r6
  4085a2:	4648      	mov	r0, r9
  4085a4:	f7fe ff6a 	bl	40747c <_free_r>
  4085a8:	4648      	mov	r0, r9
  4085aa:	f7ff fc1f 	bl	407dec <__malloc_unlock>
  4085ae:	4638      	mov	r0, r7
  4085b0:	b003      	add	sp, #12
  4085b2:	e8bd 8ff0 	ldmia.w	sp!, {r4, r5, r6, r7, r8, r9, sl, fp, pc}
  4085b6:	4611      	mov	r1, r2
  4085b8:	b003      	add	sp, #12
  4085ba:	e8bd 4ff0 	ldmia.w	sp!, {r4, r5, r6, r7, r8, r9, sl, fp, lr}
  4085be:	f7ff b839 	b.w	407634 <_malloc_r>
  4085c2:	68ca      	ldr	r2, [r1, #12]
  4085c4:	6889      	ldr	r1, [r1, #8]
  4085c6:	4604      	mov	r4, r0
  4085c8:	60ca      	str	r2, [r1, #12]
  4085ca:	6091      	str	r1, [r2, #8]
  4085cc:	e7a4      	b.n	408518 <_realloc_r+0x140>
  4085ce:	6841      	ldr	r1, [r0, #4]
  4085d0:	f021 0103 	bic.w	r1, r1, #3
  4085d4:	4421      	add	r1, r4
  4085d6:	f105 0010 	add.w	r0, r5, #16
  4085da:	4281      	cmp	r1, r0
  4085dc:	da5b      	bge.n	408696 <_realloc_r+0x2be>
  4085de:	07db      	lsls	r3, r3, #31
  4085e0:	d4c0      	bmi.n	408564 <_realloc_r+0x18c>
  4085e2:	f856 3c08 	ldr.w	r3, [r6, #-8]
  4085e6:	ebc3 0a08 	rsb	sl, r3, r8
  4085ea:	f8da 3004 	ldr.w	r3, [sl, #4]
  4085ee:	f023 0303 	bic.w	r3, r3, #3
  4085f2:	eb01 0c03 	add.w	ip, r1, r3
  4085f6:	4560      	cmp	r0, ip
  4085f8:	f73f af66 	bgt.w	4084c8 <_realloc_r+0xf0>
  4085fc:	4657      	mov	r7, sl
  4085fe:	f8da 300c 	ldr.w	r3, [sl, #12]
  408602:	f857 1f08 	ldr.w	r1, [r7, #8]!
  408606:	1f22      	subs	r2, r4, #4
  408608:	2a24      	cmp	r2, #36	; 0x24
  40860a:	60cb      	str	r3, [r1, #12]
  40860c:	6099      	str	r1, [r3, #8]
  40860e:	f200 80b8 	bhi.w	408782 <_realloc_r+0x3aa>
  408612:	2a13      	cmp	r2, #19
  408614:	f240 80a9 	bls.w	40876a <_realloc_r+0x392>
  408618:	6833      	ldr	r3, [r6, #0]
  40861a:	f8ca 3008 	str.w	r3, [sl, #8]
  40861e:	6873      	ldr	r3, [r6, #4]
  408620:	f8ca 300c 	str.w	r3, [sl, #12]
  408624:	2a1b      	cmp	r2, #27
  408626:	f200 80b5 	bhi.w	408794 <_realloc_r+0x3bc>
  40862a:	3608      	adds	r6, #8
  40862c:	f10a 0310 	add.w	r3, sl, #16
  408630:	6832      	ldr	r2, [r6, #0]
  408632:	601a      	str	r2, [r3, #0]
  408634:	6872      	ldr	r2, [r6, #4]
  408636:	605a      	str	r2, [r3, #4]
  408638:	68b2      	ldr	r2, [r6, #8]
  40863a:	609a      	str	r2, [r3, #8]
  40863c:	eb0a 0205 	add.w	r2, sl, r5
  408640:	ebc5 030c 	rsb	r3, r5, ip
  408644:	f043 0301 	orr.w	r3, r3, #1
  408648:	f8cb 2008 	str.w	r2, [fp, #8]
  40864c:	6053      	str	r3, [r2, #4]
  40864e:	f8da 3004 	ldr.w	r3, [sl, #4]
  408652:	f003 0301 	and.w	r3, r3, #1
  408656:	431d      	orrs	r5, r3
  408658:	4648      	mov	r0, r9
  40865a:	f8ca 5004 	str.w	r5, [sl, #4]
  40865e:	f7ff fbc5 	bl	407dec <__malloc_unlock>
  408662:	4638      	mov	r0, r7
  408664:	e769      	b.n	40853a <_realloc_r+0x162>
  408666:	6833      	ldr	r3, [r6, #0]
  408668:	6003      	str	r3, [r0, #0]
  40866a:	6873      	ldr	r3, [r6, #4]
  40866c:	6043      	str	r3, [r0, #4]
  40866e:	2a1b      	cmp	r2, #27
  408670:	d829      	bhi.n	4086c6 <_realloc_r+0x2ee>
  408672:	f100 0308 	add.w	r3, r0, #8
  408676:	f106 0208 	add.w	r2, r6, #8
  40867a:	e78b      	b.n	408594 <_realloc_r+0x1bc>
  40867c:	463b      	mov	r3, r7
  40867e:	6832      	ldr	r2, [r6, #0]
  408680:	601a      	str	r2, [r3, #0]
  408682:	6872      	ldr	r2, [r6, #4]
  408684:	605a      	str	r2, [r3, #4]
  408686:	68b2      	ldr	r2, [r6, #8]
  408688:	609a      	str	r2, [r3, #8]
  40868a:	463e      	mov	r6, r7
  40868c:	4674      	mov	r4, lr
  40868e:	f8da 3004 	ldr.w	r3, [sl, #4]
  408692:	46d0      	mov	r8, sl
  408694:	e740      	b.n	408518 <_realloc_r+0x140>
  408696:	eb08 0205 	add.w	r2, r8, r5
  40869a:	1b4b      	subs	r3, r1, r5
  40869c:	f043 0301 	orr.w	r3, r3, #1
  4086a0:	f8cb 2008 	str.w	r2, [fp, #8]
  4086a4:	6053      	str	r3, [r2, #4]
  4086a6:	f856 3c04 	ldr.w	r3, [r6, #-4]
  4086aa:	f003 0301 	and.w	r3, r3, #1
  4086ae:	431d      	orrs	r5, r3
  4086b0:	4648      	mov	r0, r9
  4086b2:	f846 5c04 	str.w	r5, [r6, #-4]
  4086b6:	f7ff fb99 	bl	407dec <__malloc_unlock>
  4086ba:	4630      	mov	r0, r6
  4086bc:	e73d      	b.n	40853a <_realloc_r+0x162>
  4086be:	4631      	mov	r1, r6
  4086c0:	f7ff fb2e 	bl	407d20 <memmove>
  4086c4:	e76c      	b.n	4085a0 <_realloc_r+0x1c8>
  4086c6:	68b3      	ldr	r3, [r6, #8]
  4086c8:	6083      	str	r3, [r0, #8]
  4086ca:	68f3      	ldr	r3, [r6, #12]
  4086cc:	60c3      	str	r3, [r0, #12]
  4086ce:	2a24      	cmp	r2, #36	; 0x24
  4086d0:	d02c      	beq.n	40872c <_realloc_r+0x354>
  4086d2:	f100 0310 	add.w	r3, r0, #16
  4086d6:	f106 0210 	add.w	r2, r6, #16
  4086da:	e75b      	b.n	408594 <_realloc_r+0x1bc>
  4086dc:	f850 2c04 	ldr.w	r2, [r0, #-4]
  4086e0:	f022 0203 	bic.w	r2, r2, #3
  4086e4:	4414      	add	r4, r2
  4086e6:	e717      	b.n	408518 <_realloc_r+0x140>
  4086e8:	4631      	mov	r1, r6
  4086ea:	4638      	mov	r0, r7
  4086ec:	4674      	mov	r4, lr
  4086ee:	463e      	mov	r6, r7
  4086f0:	f7ff fb16 	bl	407d20 <memmove>
  4086f4:	46d0      	mov	r8, sl
  4086f6:	f8da 3004 	ldr.w	r3, [sl, #4]
  4086fa:	e70d      	b.n	408518 <_realloc_r+0x140>
  4086fc:	463a      	mov	r2, r7
  4086fe:	e700      	b.n	408502 <_realloc_r+0x12a>
  408700:	4631      	mov	r1, r6
  408702:	4638      	mov	r0, r7
  408704:	461c      	mov	r4, r3
  408706:	463e      	mov	r6, r7
  408708:	f7ff fb0a 	bl	407d20 <memmove>
  40870c:	46d0      	mov	r8, sl
  40870e:	f8da 3004 	ldr.w	r3, [sl, #4]
  408712:	e701      	b.n	408518 <_realloc_r+0x140>
  408714:	68b3      	ldr	r3, [r6, #8]
  408716:	f8ca 3010 	str.w	r3, [sl, #16]
  40871a:	68f3      	ldr	r3, [r6, #12]
  40871c:	f8ca 3014 	str.w	r3, [sl, #20]
  408720:	2a24      	cmp	r2, #36	; 0x24
  408722:	d018      	beq.n	408756 <_realloc_r+0x37e>
  408724:	3610      	adds	r6, #16
  408726:	f10a 0318 	add.w	r3, sl, #24
  40872a:	e7a8      	b.n	40867e <_realloc_r+0x2a6>
  40872c:	6933      	ldr	r3, [r6, #16]
  40872e:	6103      	str	r3, [r0, #16]
  408730:	6973      	ldr	r3, [r6, #20]
  408732:	6143      	str	r3, [r0, #20]
  408734:	f106 0218 	add.w	r2, r6, #24
  408738:	f100 0318 	add.w	r3, r0, #24
  40873c:	e72a      	b.n	408594 <_realloc_r+0x1bc>
  40873e:	68b1      	ldr	r1, [r6, #8]
  408740:	f8ca 1010 	str.w	r1, [sl, #16]
  408744:	68f1      	ldr	r1, [r6, #12]
  408746:	f8ca 1014 	str.w	r1, [sl, #20]
  40874a:	2a24      	cmp	r2, #36	; 0x24
  40874c:	d00f      	beq.n	40876e <_realloc_r+0x396>
  40874e:	3610      	adds	r6, #16
  408750:	f10a 0218 	add.w	r2, sl, #24
  408754:	e6d5      	b.n	408502 <_realloc_r+0x12a>
  408756:	6933      	ldr	r3, [r6, #16]
  408758:	f8ca 3018 	str.w	r3, [sl, #24]
  40875c:	6973      	ldr	r3, [r6, #20]
  40875e:	f8ca 301c 	str.w	r3, [sl, #28]
  408762:	3618      	adds	r6, #24
  408764:	f10a 0320 	add.w	r3, sl, #32
  408768:	e789      	b.n	40867e <_realloc_r+0x2a6>
  40876a:	463b      	mov	r3, r7
  40876c:	e760      	b.n	408630 <_realloc_r+0x258>
  40876e:	6932      	ldr	r2, [r6, #16]
  408770:	f8ca 2018 	str.w	r2, [sl, #24]
  408774:	6972      	ldr	r2, [r6, #20]
  408776:	f8ca 201c 	str.w	r2, [sl, #28]
  40877a:	3618      	adds	r6, #24
  40877c:	f10a 0220 	add.w	r2, sl, #32
  408780:	e6bf      	b.n	408502 <_realloc_r+0x12a>
  408782:	4631      	mov	r1, r6
  408784:	4638      	mov	r0, r7
  408786:	f8cd c004 	str.w	ip, [sp, #4]
  40878a:	f7ff fac9 	bl	407d20 <memmove>
  40878e:	f8dd c004 	ldr.w	ip, [sp, #4]
  408792:	e753      	b.n	40863c <_realloc_r+0x264>
  408794:	68b3      	ldr	r3, [r6, #8]
  408796:	f8ca 3010 	str.w	r3, [sl, #16]
  40879a:	68f3      	ldr	r3, [r6, #12]
  40879c:	f8ca 3014 	str.w	r3, [sl, #20]
  4087a0:	2a24      	cmp	r2, #36	; 0x24
  4087a2:	d003      	beq.n	4087ac <_realloc_r+0x3d4>
  4087a4:	3610      	adds	r6, #16
  4087a6:	f10a 0318 	add.w	r3, sl, #24
  4087aa:	e741      	b.n	408630 <_realloc_r+0x258>
  4087ac:	6933      	ldr	r3, [r6, #16]
  4087ae:	f8ca 3018 	str.w	r3, [sl, #24]
  4087b2:	6973      	ldr	r3, [r6, #20]
  4087b4:	f8ca 301c 	str.w	r3, [sl, #28]
  4087b8:	3618      	adds	r6, #24
  4087ba:	f10a 0320 	add.w	r3, sl, #32
  4087be:	e737      	b.n	408630 <_realloc_r+0x258>
  4087c0:	20000474 	.word	0x20000474

004087c4 <__fpclassifyd>:
  4087c4:	b410      	push	{r4}
  4087c6:	f031 4400 	bics.w	r4, r1, #2147483648	; 0x80000000
  4087ca:	d008      	beq.n	4087de <__fpclassifyd+0x1a>
  4087cc:	4b11      	ldr	r3, [pc, #68]	; (408814 <__fpclassifyd+0x50>)
  4087ce:	f5a1 1280 	sub.w	r2, r1, #1048576	; 0x100000
  4087d2:	429a      	cmp	r2, r3
  4087d4:	d808      	bhi.n	4087e8 <__fpclassifyd+0x24>
  4087d6:	2004      	movs	r0, #4
  4087d8:	f85d 4b04 	ldr.w	r4, [sp], #4
  4087dc:	4770      	bx	lr
  4087de:	b918      	cbnz	r0, 4087e8 <__fpclassifyd+0x24>
  4087e0:	2002      	movs	r0, #2
  4087e2:	f85d 4b04 	ldr.w	r4, [sp], #4
  4087e6:	4770      	bx	lr
  4087e8:	f101 41ff 	add.w	r1, r1, #2139095040	; 0x7f800000
  4087ec:	4b09      	ldr	r3, [pc, #36]	; (408814 <__fpclassifyd+0x50>)
  4087ee:	f501 01e0 	add.w	r1, r1, #7340032	; 0x700000
  4087f2:	4299      	cmp	r1, r3
  4087f4:	d9ef      	bls.n	4087d6 <__fpclassifyd+0x12>
  4087f6:	f5b4 1f80 	cmp.w	r4, #1048576	; 0x100000
  4087fa:	d201      	bcs.n	408800 <__fpclassifyd+0x3c>
  4087fc:	2003      	movs	r0, #3
  4087fe:	e7eb      	b.n	4087d8 <__fpclassifyd+0x14>
  408800:	4b05      	ldr	r3, [pc, #20]	; (408818 <__fpclassifyd+0x54>)
  408802:	429c      	cmp	r4, r3
  408804:	d001      	beq.n	40880a <__fpclassifyd+0x46>
  408806:	2000      	movs	r0, #0
  408808:	e7e6      	b.n	4087d8 <__fpclassifyd+0x14>
  40880a:	fab0 f080 	clz	r0, r0
  40880e:	0940      	lsrs	r0, r0, #5
  408810:	e7e2      	b.n	4087d8 <__fpclassifyd+0x14>
  408812:	bf00      	nop
  408814:	7fdfffff 	.word	0x7fdfffff
  408818:	7ff00000 	.word	0x7ff00000

0040881c <_sbrk_r>:
  40881c:	b538      	push	{r3, r4, r5, lr}
  40881e:	4c07      	ldr	r4, [pc, #28]	; (40883c <_sbrk_r+0x20>)
  408820:	2300      	movs	r3, #0
  408822:	4605      	mov	r5, r0
  408824:	4608      	mov	r0, r1
  408826:	6023      	str	r3, [r4, #0]
  408828:	f7f9 fe18 	bl	40245c <_sbrk>
  40882c:	1c43      	adds	r3, r0, #1
  40882e:	d000      	beq.n	408832 <_sbrk_r+0x16>
  408830:	bd38      	pop	{r3, r4, r5, pc}
  408832:	6823      	ldr	r3, [r4, #0]
  408834:	2b00      	cmp	r3, #0
  408836:	d0fb      	beq.n	408830 <_sbrk_r+0x14>
  408838:	602b      	str	r3, [r5, #0]
  40883a:	bd38      	pop	{r3, r4, r5, pc}
  40883c:	20000d54 	.word	0x20000d54

00408840 <__ssprint_r>:
  408840:	e92d 4ff0 	stmdb	sp!, {r4, r5, r6, r7, r8, r9, sl, fp, lr}
  408844:	6893      	ldr	r3, [r2, #8]
  408846:	f8d2 8000 	ldr.w	r8, [r2]
  40884a:	b083      	sub	sp, #12
  40884c:	4691      	mov	r9, r2
  40884e:	2b00      	cmp	r3, #0
  408850:	d072      	beq.n	408938 <__ssprint_r+0xf8>
  408852:	4607      	mov	r7, r0
  408854:	f04f 0b00 	mov.w	fp, #0
  408858:	6808      	ldr	r0, [r1, #0]
  40885a:	688b      	ldr	r3, [r1, #8]
  40885c:	460d      	mov	r5, r1
  40885e:	465c      	mov	r4, fp
  408860:	2c00      	cmp	r4, #0
  408862:	d045      	beq.n	4088f0 <__ssprint_r+0xb0>
  408864:	429c      	cmp	r4, r3
  408866:	461e      	mov	r6, r3
  408868:	469a      	mov	sl, r3
  40886a:	d348      	bcc.n	4088fe <__ssprint_r+0xbe>
  40886c:	89ab      	ldrh	r3, [r5, #12]
  40886e:	f413 6f90 	tst.w	r3, #1152	; 0x480
  408872:	d02d      	beq.n	4088d0 <__ssprint_r+0x90>
  408874:	696e      	ldr	r6, [r5, #20]
  408876:	6929      	ldr	r1, [r5, #16]
  408878:	eb06 0646 	add.w	r6, r6, r6, lsl #1
  40887c:	ebc1 0a00 	rsb	sl, r1, r0
  408880:	eb06 76d6 	add.w	r6, r6, r6, lsr #31
  408884:	1c60      	adds	r0, r4, #1
  408886:	1076      	asrs	r6, r6, #1
  408888:	4450      	add	r0, sl
  40888a:	4286      	cmp	r6, r0
  40888c:	4632      	mov	r2, r6
  40888e:	bf3c      	itt	cc
  408890:	4606      	movcc	r6, r0
  408892:	4632      	movcc	r2, r6
  408894:	055b      	lsls	r3, r3, #21
  408896:	d535      	bpl.n	408904 <__ssprint_r+0xc4>
  408898:	4611      	mov	r1, r2
  40889a:	4638      	mov	r0, r7
  40889c:	f7fe feca 	bl	407634 <_malloc_r>
  4088a0:	2800      	cmp	r0, #0
  4088a2:	d039      	beq.n	408918 <__ssprint_r+0xd8>
  4088a4:	4652      	mov	r2, sl
  4088a6:	6929      	ldr	r1, [r5, #16]
  4088a8:	9001      	str	r0, [sp, #4]
  4088aa:	f7ff f99f 	bl	407bec <memcpy>
  4088ae:	89aa      	ldrh	r2, [r5, #12]
  4088b0:	9b01      	ldr	r3, [sp, #4]
  4088b2:	f422 6290 	bic.w	r2, r2, #1152	; 0x480
  4088b6:	f042 0280 	orr.w	r2, r2, #128	; 0x80
  4088ba:	81aa      	strh	r2, [r5, #12]
  4088bc:	ebca 0206 	rsb	r2, sl, r6
  4088c0:	eb03 000a 	add.w	r0, r3, sl
  4088c4:	616e      	str	r6, [r5, #20]
  4088c6:	612b      	str	r3, [r5, #16]
  4088c8:	6028      	str	r0, [r5, #0]
  4088ca:	60aa      	str	r2, [r5, #8]
  4088cc:	4626      	mov	r6, r4
  4088ce:	46a2      	mov	sl, r4
  4088d0:	4652      	mov	r2, sl
  4088d2:	4659      	mov	r1, fp
  4088d4:	f7ff fa24 	bl	407d20 <memmove>
  4088d8:	f8d9 2008 	ldr.w	r2, [r9, #8]
  4088dc:	68ab      	ldr	r3, [r5, #8]
  4088de:	6828      	ldr	r0, [r5, #0]
  4088e0:	1b9b      	subs	r3, r3, r6
  4088e2:	4450      	add	r0, sl
  4088e4:	1b14      	subs	r4, r2, r4
  4088e6:	60ab      	str	r3, [r5, #8]
  4088e8:	6028      	str	r0, [r5, #0]
  4088ea:	f8c9 4008 	str.w	r4, [r9, #8]
  4088ee:	b31c      	cbz	r4, 408938 <__ssprint_r+0xf8>
  4088f0:	f8d8 b000 	ldr.w	fp, [r8]
  4088f4:	f8d8 4004 	ldr.w	r4, [r8, #4]
  4088f8:	f108 0808 	add.w	r8, r8, #8
  4088fc:	e7b0      	b.n	408860 <__ssprint_r+0x20>
  4088fe:	4626      	mov	r6, r4
  408900:	46a2      	mov	sl, r4
  408902:	e7e5      	b.n	4088d0 <__ssprint_r+0x90>
  408904:	4638      	mov	r0, r7
  408906:	f7ff fd67 	bl	4083d8 <_realloc_r>
  40890a:	4603      	mov	r3, r0
  40890c:	2800      	cmp	r0, #0
  40890e:	d1d5      	bne.n	4088bc <__ssprint_r+0x7c>
  408910:	4638      	mov	r0, r7
  408912:	6929      	ldr	r1, [r5, #16]
  408914:	f7fe fdb2 	bl	40747c <_free_r>
  408918:	230c      	movs	r3, #12
  40891a:	603b      	str	r3, [r7, #0]
  40891c:	89ab      	ldrh	r3, [r5, #12]
  40891e:	2200      	movs	r2, #0
  408920:	f043 0340 	orr.w	r3, r3, #64	; 0x40
  408924:	f04f 30ff 	mov.w	r0, #4294967295
  408928:	81ab      	strh	r3, [r5, #12]
  40892a:	f8c9 2008 	str.w	r2, [r9, #8]
  40892e:	f8c9 2004 	str.w	r2, [r9, #4]
  408932:	b003      	add	sp, #12
  408934:	e8bd 8ff0 	ldmia.w	sp!, {r4, r5, r6, r7, r8, r9, sl, fp, pc}
  408938:	2000      	movs	r0, #0
  40893a:	f8c9 0004 	str.w	r0, [r9, #4]
  40893e:	b003      	add	sp, #12
  408940:	e8bd 8ff0 	ldmia.w	sp!, {r4, r5, r6, r7, r8, r9, sl, fp, pc}

00408944 <__register_exitproc>:
  408944:	e92d 47f0 	stmdb	sp!, {r4, r5, r6, r7, r8, r9, sl, lr}
  408948:	4c25      	ldr	r4, [pc, #148]	; (4089e0 <__register_exitproc+0x9c>)
  40894a:	6825      	ldr	r5, [r4, #0]
  40894c:	f8d5 4148 	ldr.w	r4, [r5, #328]	; 0x148
  408950:	4606      	mov	r6, r0
  408952:	4688      	mov	r8, r1
  408954:	4692      	mov	sl, r2
  408956:	4699      	mov	r9, r3
  408958:	b3cc      	cbz	r4, 4089ce <__register_exitproc+0x8a>
  40895a:	6860      	ldr	r0, [r4, #4]
  40895c:	281f      	cmp	r0, #31
  40895e:	dc18      	bgt.n	408992 <__register_exitproc+0x4e>
  408960:	1c43      	adds	r3, r0, #1
  408962:	b17e      	cbz	r6, 408984 <__register_exitproc+0x40>
  408964:	eb04 0580 	add.w	r5, r4, r0, lsl #2
  408968:	2101      	movs	r1, #1
  40896a:	f8c5 a088 	str.w	sl, [r5, #136]	; 0x88
  40896e:	f8d4 7188 	ldr.w	r7, [r4, #392]	; 0x188
  408972:	fa01 f200 	lsl.w	r2, r1, r0
  408976:	4317      	orrs	r7, r2
  408978:	2e02      	cmp	r6, #2
  40897a:	f8c4 7188 	str.w	r7, [r4, #392]	; 0x188
  40897e:	f8c5 9108 	str.w	r9, [r5, #264]	; 0x108
  408982:	d01e      	beq.n	4089c2 <__register_exitproc+0x7e>
  408984:	3002      	adds	r0, #2
  408986:	6063      	str	r3, [r4, #4]
  408988:	f844 8020 	str.w	r8, [r4, r0, lsl #2]
  40898c:	2000      	movs	r0, #0
  40898e:	e8bd 87f0 	ldmia.w	sp!, {r4, r5, r6, r7, r8, r9, sl, pc}
  408992:	4b14      	ldr	r3, [pc, #80]	; (4089e4 <__register_exitproc+0xa0>)
  408994:	b303      	cbz	r3, 4089d8 <__register_exitproc+0x94>
  408996:	f44f 70c8 	mov.w	r0, #400	; 0x190
  40899a:	f3af 8000 	nop.w
  40899e:	4604      	mov	r4, r0
  4089a0:	b1d0      	cbz	r0, 4089d8 <__register_exitproc+0x94>
  4089a2:	f8d5 3148 	ldr.w	r3, [r5, #328]	; 0x148
  4089a6:	2700      	movs	r7, #0
  4089a8:	e880 0088 	stmia.w	r0, {r3, r7}
  4089ac:	f8c5 4148 	str.w	r4, [r5, #328]	; 0x148
  4089b0:	4638      	mov	r0, r7
  4089b2:	2301      	movs	r3, #1
  4089b4:	f8c4 7188 	str.w	r7, [r4, #392]	; 0x188
  4089b8:	f8c4 718c 	str.w	r7, [r4, #396]	; 0x18c
  4089bc:	2e00      	cmp	r6, #0
  4089be:	d0e1      	beq.n	408984 <__register_exitproc+0x40>
  4089c0:	e7d0      	b.n	408964 <__register_exitproc+0x20>
  4089c2:	f8d4 118c 	ldr.w	r1, [r4, #396]	; 0x18c
  4089c6:	430a      	orrs	r2, r1
  4089c8:	f8c4 218c 	str.w	r2, [r4, #396]	; 0x18c
  4089cc:	e7da      	b.n	408984 <__register_exitproc+0x40>
  4089ce:	f505 74a6 	add.w	r4, r5, #332	; 0x14c
  4089d2:	f8c5 4148 	str.w	r4, [r5, #328]	; 0x148
  4089d6:	e7c0      	b.n	40895a <__register_exitproc+0x16>
  4089d8:	f04f 30ff 	mov.w	r0, #4294967295
  4089dc:	e8bd 87f0 	ldmia.w	sp!, {r4, r5, r6, r7, r8, r9, sl, pc}
  4089e0:	0040995c 	.word	0x0040995c
  4089e4:	00000000 	.word	0x00000000

004089e8 <_calloc_r>:
  4089e8:	b510      	push	{r4, lr}
  4089ea:	fb02 f101 	mul.w	r1, r2, r1
  4089ee:	f7fe fe21 	bl	407634 <_malloc_r>
  4089f2:	4604      	mov	r4, r0
  4089f4:	b168      	cbz	r0, 408a12 <_calloc_r+0x2a>
  4089f6:	f850 2c04 	ldr.w	r2, [r0, #-4]
  4089fa:	f022 0203 	bic.w	r2, r2, #3
  4089fe:	3a04      	subs	r2, #4
  408a00:	2a24      	cmp	r2, #36	; 0x24
  408a02:	d818      	bhi.n	408a36 <_calloc_r+0x4e>
  408a04:	2a13      	cmp	r2, #19
  408a06:	d806      	bhi.n	408a16 <_calloc_r+0x2e>
  408a08:	4603      	mov	r3, r0
  408a0a:	2200      	movs	r2, #0
  408a0c:	601a      	str	r2, [r3, #0]
  408a0e:	605a      	str	r2, [r3, #4]
  408a10:	609a      	str	r2, [r3, #8]
  408a12:	4620      	mov	r0, r4
  408a14:	bd10      	pop	{r4, pc}
  408a16:	2300      	movs	r3, #0
  408a18:	2a1b      	cmp	r2, #27
  408a1a:	6003      	str	r3, [r0, #0]
  408a1c:	6043      	str	r3, [r0, #4]
  408a1e:	d90f      	bls.n	408a40 <_calloc_r+0x58>
  408a20:	2a24      	cmp	r2, #36	; 0x24
  408a22:	6083      	str	r3, [r0, #8]
  408a24:	60c3      	str	r3, [r0, #12]
  408a26:	bf05      	ittet	eq
  408a28:	6103      	streq	r3, [r0, #16]
  408a2a:	6143      	streq	r3, [r0, #20]
  408a2c:	f100 0310 	addne.w	r3, r0, #16
  408a30:	f100 0318 	addeq.w	r3, r0, #24
  408a34:	e7e9      	b.n	408a0a <_calloc_r+0x22>
  408a36:	2100      	movs	r1, #0
  408a38:	f7fc f9e0 	bl	404dfc <memset>
  408a3c:	4620      	mov	r0, r4
  408a3e:	bd10      	pop	{r4, pc}
  408a40:	f100 0308 	add.w	r3, r0, #8
  408a44:	e7e1      	b.n	408a0a <_calloc_r+0x22>
  408a46:	bf00      	nop

00408a48 <__aeabi_uldivmod>:
  408a48:	b953      	cbnz	r3, 408a60 <__aeabi_uldivmod+0x18>
  408a4a:	b94a      	cbnz	r2, 408a60 <__aeabi_uldivmod+0x18>
  408a4c:	2900      	cmp	r1, #0
  408a4e:	bf08      	it	eq
  408a50:	2800      	cmpeq	r0, #0
  408a52:	bf1c      	itt	ne
  408a54:	f04f 31ff 	movne.w	r1, #4294967295
  408a58:	f04f 30ff 	movne.w	r0, #4294967295
  408a5c:	f000 b83c 	b.w	408ad8 <__aeabi_idiv0>
  408a60:	b082      	sub	sp, #8
  408a62:	46ec      	mov	ip, sp
  408a64:	e92d 5000 	stmdb	sp!, {ip, lr}
  408a68:	f000 f81e 	bl	408aa8 <__gnu_uldivmod_helper>
  408a6c:	f8dd e004 	ldr.w	lr, [sp, #4]
  408a70:	b002      	add	sp, #8
  408a72:	bc0c      	pop	{r2, r3}
  408a74:	4770      	bx	lr
  408a76:	bf00      	nop

00408a78 <__gnu_ldivmod_helper>:
  408a78:	e92d 41f0 	stmdb	sp!, {r4, r5, r6, r7, r8, lr}
  408a7c:	9c06      	ldr	r4, [sp, #24]
  408a7e:	4615      	mov	r5, r2
  408a80:	4606      	mov	r6, r0
  408a82:	460f      	mov	r7, r1
  408a84:	4698      	mov	r8, r3
  408a86:	f000 f829 	bl	408adc <__divdi3>
  408a8a:	fb05 f301 	mul.w	r3, r5, r1
  408a8e:	fb00 3808 	mla	r8, r0, r8, r3
  408a92:	fba5 2300 	umull	r2, r3, r5, r0
  408a96:	1ab2      	subs	r2, r6, r2
  408a98:	4443      	add	r3, r8
  408a9a:	eb67 0303 	sbc.w	r3, r7, r3
  408a9e:	e9c4 2300 	strd	r2, r3, [r4]
  408aa2:	e8bd 81f0 	ldmia.w	sp!, {r4, r5, r6, r7, r8, pc}
  408aa6:	bf00      	nop

00408aa8 <__gnu_uldivmod_helper>:
  408aa8:	e92d 41f0 	stmdb	sp!, {r4, r5, r6, r7, r8, lr}
  408aac:	9c06      	ldr	r4, [sp, #24]
  408aae:	4690      	mov	r8, r2
  408ab0:	4606      	mov	r6, r0
  408ab2:	460f      	mov	r7, r1
  408ab4:	461d      	mov	r5, r3
  408ab6:	f000 f95f 	bl	408d78 <__udivdi3>
  408aba:	fb00 f505 	mul.w	r5, r0, r5
  408abe:	fba0 2308 	umull	r2, r3, r0, r8
  408ac2:	fb08 5501 	mla	r5, r8, r1, r5
  408ac6:	1ab2      	subs	r2, r6, r2
  408ac8:	442b      	add	r3, r5
  408aca:	eb67 0303 	sbc.w	r3, r7, r3
  408ace:	e9c4 2300 	strd	r2, r3, [r4]
  408ad2:	e8bd 81f0 	ldmia.w	sp!, {r4, r5, r6, r7, r8, pc}
  408ad6:	bf00      	nop

00408ad8 <__aeabi_idiv0>:
  408ad8:	4770      	bx	lr
  408ada:	bf00      	nop

00408adc <__divdi3>:
  408adc:	2900      	cmp	r1, #0
  408ade:	e92d 43f0 	stmdb	sp!, {r4, r5, r6, r7, r8, r9, lr}
  408ae2:	f2c0 80a6 	blt.w	408c32 <__divdi3+0x156>
  408ae6:	2600      	movs	r6, #0
  408ae8:	2b00      	cmp	r3, #0
  408aea:	f2c0 809c 	blt.w	408c26 <__divdi3+0x14a>
  408aee:	4688      	mov	r8, r1
  408af0:	4694      	mov	ip, r2
  408af2:	469e      	mov	lr, r3
  408af4:	4615      	mov	r5, r2
  408af6:	4604      	mov	r4, r0
  408af8:	460f      	mov	r7, r1
  408afa:	2b00      	cmp	r3, #0
  408afc:	d13d      	bne.n	408b7a <__divdi3+0x9e>
  408afe:	428a      	cmp	r2, r1
  408b00:	d959      	bls.n	408bb6 <__divdi3+0xda>
  408b02:	fab2 f382 	clz	r3, r2
  408b06:	b13b      	cbz	r3, 408b18 <__divdi3+0x3c>
  408b08:	f1c3 0220 	rsb	r2, r3, #32
  408b0c:	409f      	lsls	r7, r3
  408b0e:	fa20 f202 	lsr.w	r2, r0, r2
  408b12:	409d      	lsls	r5, r3
  408b14:	4317      	orrs	r7, r2
  408b16:	409c      	lsls	r4, r3
  408b18:	0c29      	lsrs	r1, r5, #16
  408b1a:	0c22      	lsrs	r2, r4, #16
  408b1c:	fbb7 fef1 	udiv	lr, r7, r1
  408b20:	b2a8      	uxth	r0, r5
  408b22:	fb01 771e 	mls	r7, r1, lr, r7
  408b26:	ea42 4707 	orr.w	r7, r2, r7, lsl #16
  408b2a:	fb00 f30e 	mul.w	r3, r0, lr
  408b2e:	42bb      	cmp	r3, r7
  408b30:	d90a      	bls.n	408b48 <__divdi3+0x6c>
  408b32:	197f      	adds	r7, r7, r5
  408b34:	f10e 32ff 	add.w	r2, lr, #4294967295
  408b38:	f080 8105 	bcs.w	408d46 <__divdi3+0x26a>
  408b3c:	42bb      	cmp	r3, r7
  408b3e:	f240 8102 	bls.w	408d46 <__divdi3+0x26a>
  408b42:	f1ae 0e02 	sub.w	lr, lr, #2
  408b46:	442f      	add	r7, r5
  408b48:	1aff      	subs	r7, r7, r3
  408b4a:	b2a4      	uxth	r4, r4
  408b4c:	fbb7 f3f1 	udiv	r3, r7, r1
  408b50:	fb01 7713 	mls	r7, r1, r3, r7
  408b54:	ea44 4707 	orr.w	r7, r4, r7, lsl #16
  408b58:	fb00 f003 	mul.w	r0, r0, r3
  408b5c:	42b8      	cmp	r0, r7
  408b5e:	d908      	bls.n	408b72 <__divdi3+0x96>
  408b60:	197f      	adds	r7, r7, r5
  408b62:	f103 32ff 	add.w	r2, r3, #4294967295
  408b66:	f080 80f0 	bcs.w	408d4a <__divdi3+0x26e>
  408b6a:	42b8      	cmp	r0, r7
  408b6c:	f240 80ed 	bls.w	408d4a <__divdi3+0x26e>
  408b70:	3b02      	subs	r3, #2
  408b72:	ea43 430e 	orr.w	r3, r3, lr, lsl #16
  408b76:	2200      	movs	r2, #0
  408b78:	e003      	b.n	408b82 <__divdi3+0xa6>
  408b7a:	428b      	cmp	r3, r1
  408b7c:	d90f      	bls.n	408b9e <__divdi3+0xc2>
  408b7e:	2200      	movs	r2, #0
  408b80:	4613      	mov	r3, r2
  408b82:	1c34      	adds	r4, r6, #0
  408b84:	bf18      	it	ne
  408b86:	2401      	movne	r4, #1
  408b88:	4260      	negs	r0, r4
  408b8a:	f04f 0500 	mov.w	r5, #0
  408b8e:	eb65 0145 	sbc.w	r1, r5, r5, lsl #1
  408b92:	4058      	eors	r0, r3
  408b94:	4051      	eors	r1, r2
  408b96:	1900      	adds	r0, r0, r4
  408b98:	4169      	adcs	r1, r5
  408b9a:	e8bd 83f0 	ldmia.w	sp!, {r4, r5, r6, r7, r8, r9, pc}
  408b9e:	fab3 f283 	clz	r2, r3
  408ba2:	2a00      	cmp	r2, #0
  408ba4:	f040 8086 	bne.w	408cb4 <__divdi3+0x1d8>
  408ba8:	428b      	cmp	r3, r1
  408baa:	d302      	bcc.n	408bb2 <__divdi3+0xd6>
  408bac:	4584      	cmp	ip, r0
  408bae:	f200 80db 	bhi.w	408d68 <__divdi3+0x28c>
  408bb2:	2301      	movs	r3, #1
  408bb4:	e7e5      	b.n	408b82 <__divdi3+0xa6>
  408bb6:	b912      	cbnz	r2, 408bbe <__divdi3+0xe2>
  408bb8:	2301      	movs	r3, #1
  408bba:	fbb3 f5f2 	udiv	r5, r3, r2
  408bbe:	fab5 f085 	clz	r0, r5
  408bc2:	2800      	cmp	r0, #0
  408bc4:	d13b      	bne.n	408c3e <__divdi3+0x162>
  408bc6:	1b78      	subs	r0, r7, r5
  408bc8:	ea4f 4e15 	mov.w	lr, r5, lsr #16
  408bcc:	fa1f fc85 	uxth.w	ip, r5
  408bd0:	2201      	movs	r2, #1
  408bd2:	fbb0 f8fe 	udiv	r8, r0, lr
  408bd6:	0c21      	lsrs	r1, r4, #16
  408bd8:	fb0e 0718 	mls	r7, lr, r8, r0
  408bdc:	ea41 4707 	orr.w	r7, r1, r7, lsl #16
  408be0:	fb0c f308 	mul.w	r3, ip, r8
  408be4:	42bb      	cmp	r3, r7
  408be6:	d907      	bls.n	408bf8 <__divdi3+0x11c>
  408be8:	197f      	adds	r7, r7, r5
  408bea:	f108 31ff 	add.w	r1, r8, #4294967295
  408bee:	d202      	bcs.n	408bf6 <__divdi3+0x11a>
  408bf0:	42bb      	cmp	r3, r7
  408bf2:	f200 80bd 	bhi.w	408d70 <__divdi3+0x294>
  408bf6:	4688      	mov	r8, r1
  408bf8:	1aff      	subs	r7, r7, r3
  408bfa:	b2a4      	uxth	r4, r4
  408bfc:	fbb7 f3fe 	udiv	r3, r7, lr
  408c00:	fb0e 7713 	mls	r7, lr, r3, r7
  408c04:	ea44 4707 	orr.w	r7, r4, r7, lsl #16
  408c08:	fb0c fc03 	mul.w	ip, ip, r3
  408c0c:	45bc      	cmp	ip, r7
  408c0e:	d907      	bls.n	408c20 <__divdi3+0x144>
  408c10:	197f      	adds	r7, r7, r5
  408c12:	f103 31ff 	add.w	r1, r3, #4294967295
  408c16:	d202      	bcs.n	408c1e <__divdi3+0x142>
  408c18:	45bc      	cmp	ip, r7
  408c1a:	f200 80a7 	bhi.w	408d6c <__divdi3+0x290>
  408c1e:	460b      	mov	r3, r1
  408c20:	ea43 4308 	orr.w	r3, r3, r8, lsl #16
  408c24:	e7ad      	b.n	408b82 <__divdi3+0xa6>
  408c26:	4252      	negs	r2, r2
  408c28:	ea6f 0606 	mvn.w	r6, r6
  408c2c:	eb63 0343 	sbc.w	r3, r3, r3, lsl #1
  408c30:	e75d      	b.n	408aee <__divdi3+0x12>
  408c32:	4240      	negs	r0, r0
  408c34:	eb61 0141 	sbc.w	r1, r1, r1, lsl #1
  408c38:	f04f 36ff 	mov.w	r6, #4294967295
  408c3c:	e754      	b.n	408ae8 <__divdi3+0xc>
  408c3e:	f1c0 0220 	rsb	r2, r0, #32
  408c42:	fa24 f102 	lsr.w	r1, r4, r2
  408c46:	fa07 f300 	lsl.w	r3, r7, r0
  408c4a:	4085      	lsls	r5, r0
  408c4c:	ea4f 4e15 	mov.w	lr, r5, lsr #16
  408c50:	40d7      	lsrs	r7, r2
  408c52:	4319      	orrs	r1, r3
  408c54:	fbb7 f2fe 	udiv	r2, r7, lr
  408c58:	0c0b      	lsrs	r3, r1, #16
  408c5a:	fb0e 7712 	mls	r7, lr, r2, r7
  408c5e:	fa1f fc85 	uxth.w	ip, r5
  408c62:	ea43 4307 	orr.w	r3, r3, r7, lsl #16
  408c66:	fb0c f702 	mul.w	r7, ip, r2
  408c6a:	429f      	cmp	r7, r3
  408c6c:	fa04 f400 	lsl.w	r4, r4, r0
  408c70:	d907      	bls.n	408c82 <__divdi3+0x1a6>
  408c72:	195b      	adds	r3, r3, r5
  408c74:	f102 30ff 	add.w	r0, r2, #4294967295
  408c78:	d274      	bcs.n	408d64 <__divdi3+0x288>
  408c7a:	429f      	cmp	r7, r3
  408c7c:	d972      	bls.n	408d64 <__divdi3+0x288>
  408c7e:	3a02      	subs	r2, #2
  408c80:	442b      	add	r3, r5
  408c82:	1bdf      	subs	r7, r3, r7
  408c84:	b289      	uxth	r1, r1
  408c86:	fbb7 f8fe 	udiv	r8, r7, lr
  408c8a:	fb0e 7318 	mls	r3, lr, r8, r7
  408c8e:	ea41 4303 	orr.w	r3, r1, r3, lsl #16
  408c92:	fb0c f708 	mul.w	r7, ip, r8
  408c96:	429f      	cmp	r7, r3
  408c98:	d908      	bls.n	408cac <__divdi3+0x1d0>
  408c9a:	195b      	adds	r3, r3, r5
  408c9c:	f108 31ff 	add.w	r1, r8, #4294967295
  408ca0:	d25c      	bcs.n	408d5c <__divdi3+0x280>
  408ca2:	429f      	cmp	r7, r3
  408ca4:	d95a      	bls.n	408d5c <__divdi3+0x280>
  408ca6:	f1a8 0802 	sub.w	r8, r8, #2
  408caa:	442b      	add	r3, r5
  408cac:	1bd8      	subs	r0, r3, r7
  408cae:	ea48 4202 	orr.w	r2, r8, r2, lsl #16
  408cb2:	e78e      	b.n	408bd2 <__divdi3+0xf6>
  408cb4:	f1c2 0320 	rsb	r3, r2, #32
  408cb8:	fa2c f103 	lsr.w	r1, ip, r3
  408cbc:	fa0e fe02 	lsl.w	lr, lr, r2
  408cc0:	fa20 f703 	lsr.w	r7, r0, r3
  408cc4:	ea41 0e0e 	orr.w	lr, r1, lr
  408cc8:	fa08 f002 	lsl.w	r0, r8, r2
  408ccc:	fa28 f103 	lsr.w	r1, r8, r3
  408cd0:	ea4f 451e 	mov.w	r5, lr, lsr #16
  408cd4:	4338      	orrs	r0, r7
  408cd6:	fbb1 f8f5 	udiv	r8, r1, r5
  408cda:	0c03      	lsrs	r3, r0, #16
  408cdc:	fb05 1118 	mls	r1, r5, r8, r1
  408ce0:	fa1f f78e 	uxth.w	r7, lr
  408ce4:	ea43 4101 	orr.w	r1, r3, r1, lsl #16
  408ce8:	fb07 f308 	mul.w	r3, r7, r8
  408cec:	428b      	cmp	r3, r1
  408cee:	fa0c fc02 	lsl.w	ip, ip, r2
  408cf2:	d909      	bls.n	408d08 <__divdi3+0x22c>
  408cf4:	eb11 010e 	adds.w	r1, r1, lr
  408cf8:	f108 39ff 	add.w	r9, r8, #4294967295
  408cfc:	d230      	bcs.n	408d60 <__divdi3+0x284>
  408cfe:	428b      	cmp	r3, r1
  408d00:	d92e      	bls.n	408d60 <__divdi3+0x284>
  408d02:	f1a8 0802 	sub.w	r8, r8, #2
  408d06:	4471      	add	r1, lr
  408d08:	1ac9      	subs	r1, r1, r3
  408d0a:	b280      	uxth	r0, r0
  408d0c:	fbb1 f3f5 	udiv	r3, r1, r5
  408d10:	fb05 1113 	mls	r1, r5, r3, r1
  408d14:	ea40 4101 	orr.w	r1, r0, r1, lsl #16
  408d18:	fb07 f703 	mul.w	r7, r7, r3
  408d1c:	428f      	cmp	r7, r1
  408d1e:	d908      	bls.n	408d32 <__divdi3+0x256>
  408d20:	eb11 010e 	adds.w	r1, r1, lr
  408d24:	f103 30ff 	add.w	r0, r3, #4294967295
  408d28:	d216      	bcs.n	408d58 <__divdi3+0x27c>
  408d2a:	428f      	cmp	r7, r1
  408d2c:	d914      	bls.n	408d58 <__divdi3+0x27c>
  408d2e:	3b02      	subs	r3, #2
  408d30:	4471      	add	r1, lr
  408d32:	ea43 4308 	orr.w	r3, r3, r8, lsl #16
  408d36:	1bc9      	subs	r1, r1, r7
  408d38:	fba3 890c 	umull	r8, r9, r3, ip
  408d3c:	4549      	cmp	r1, r9
  408d3e:	d309      	bcc.n	408d54 <__divdi3+0x278>
  408d40:	d005      	beq.n	408d4e <__divdi3+0x272>
  408d42:	2200      	movs	r2, #0
  408d44:	e71d      	b.n	408b82 <__divdi3+0xa6>
  408d46:	4696      	mov	lr, r2
  408d48:	e6fe      	b.n	408b48 <__divdi3+0x6c>
  408d4a:	4613      	mov	r3, r2
  408d4c:	e711      	b.n	408b72 <__divdi3+0x96>
  408d4e:	4094      	lsls	r4, r2
  408d50:	4544      	cmp	r4, r8
  408d52:	d2f6      	bcs.n	408d42 <__divdi3+0x266>
  408d54:	3b01      	subs	r3, #1
  408d56:	e7f4      	b.n	408d42 <__divdi3+0x266>
  408d58:	4603      	mov	r3, r0
  408d5a:	e7ea      	b.n	408d32 <__divdi3+0x256>
  408d5c:	4688      	mov	r8, r1
  408d5e:	e7a5      	b.n	408cac <__divdi3+0x1d0>
  408d60:	46c8      	mov	r8, r9
  408d62:	e7d1      	b.n	408d08 <__divdi3+0x22c>
  408d64:	4602      	mov	r2, r0
  408d66:	e78c      	b.n	408c82 <__divdi3+0x1a6>
  408d68:	4613      	mov	r3, r2
  408d6a:	e70a      	b.n	408b82 <__divdi3+0xa6>
  408d6c:	3b02      	subs	r3, #2
  408d6e:	e757      	b.n	408c20 <__divdi3+0x144>
  408d70:	f1a8 0802 	sub.w	r8, r8, #2
  408d74:	442f      	add	r7, r5
  408d76:	e73f      	b.n	408bf8 <__divdi3+0x11c>

00408d78 <__udivdi3>:
  408d78:	e92d 41f0 	stmdb	sp!, {r4, r5, r6, r7, r8, lr}
  408d7c:	2b00      	cmp	r3, #0
  408d7e:	d144      	bne.n	408e0a <__udivdi3+0x92>
  408d80:	428a      	cmp	r2, r1
  408d82:	4615      	mov	r5, r2
  408d84:	4604      	mov	r4, r0
  408d86:	d94f      	bls.n	408e28 <__udivdi3+0xb0>
  408d88:	fab2 f782 	clz	r7, r2
  408d8c:	460e      	mov	r6, r1
  408d8e:	b14f      	cbz	r7, 408da4 <__udivdi3+0x2c>
  408d90:	f1c7 0320 	rsb	r3, r7, #32
  408d94:	40b9      	lsls	r1, r7
  408d96:	fa20 f603 	lsr.w	r6, r0, r3
  408d9a:	fa02 f507 	lsl.w	r5, r2, r7
  408d9e:	430e      	orrs	r6, r1
  408da0:	fa00 f407 	lsl.w	r4, r0, r7
  408da4:	ea4f 4e15 	mov.w	lr, r5, lsr #16
  408da8:	0c23      	lsrs	r3, r4, #16
  408daa:	fbb6 f0fe 	udiv	r0, r6, lr
  408dae:	b2af      	uxth	r7, r5
  408db0:	fb0e 6110 	mls	r1, lr, r0, r6
  408db4:	ea43 4301 	orr.w	r3, r3, r1, lsl #16
  408db8:	fb07 f100 	mul.w	r1, r7, r0
  408dbc:	4299      	cmp	r1, r3
  408dbe:	d909      	bls.n	408dd4 <__udivdi3+0x5c>
  408dc0:	195b      	adds	r3, r3, r5
  408dc2:	f100 32ff 	add.w	r2, r0, #4294967295
  408dc6:	f080 80ec 	bcs.w	408fa2 <__udivdi3+0x22a>
  408dca:	4299      	cmp	r1, r3
  408dcc:	f240 80e9 	bls.w	408fa2 <__udivdi3+0x22a>
  408dd0:	3802      	subs	r0, #2
  408dd2:	442b      	add	r3, r5
  408dd4:	1a5a      	subs	r2, r3, r1
  408dd6:	b2a4      	uxth	r4, r4
  408dd8:	fbb2 f3fe 	udiv	r3, r2, lr
  408ddc:	fb0e 2213 	mls	r2, lr, r3, r2
  408de0:	ea44 4202 	orr.w	r2, r4, r2, lsl #16
  408de4:	fb07 f703 	mul.w	r7, r7, r3
  408de8:	4297      	cmp	r7, r2
  408dea:	d908      	bls.n	408dfe <__udivdi3+0x86>
  408dec:	1952      	adds	r2, r2, r5
  408dee:	f103 31ff 	add.w	r1, r3, #4294967295
  408df2:	f080 80d8 	bcs.w	408fa6 <__udivdi3+0x22e>
  408df6:	4297      	cmp	r7, r2
  408df8:	f240 80d5 	bls.w	408fa6 <__udivdi3+0x22e>
  408dfc:	3b02      	subs	r3, #2
  408dfe:	ea43 4000 	orr.w	r0, r3, r0, lsl #16
  408e02:	2600      	movs	r6, #0
  408e04:	4631      	mov	r1, r6
  408e06:	e8bd 81f0 	ldmia.w	sp!, {r4, r5, r6, r7, r8, pc}
  408e0a:	428b      	cmp	r3, r1
  408e0c:	d847      	bhi.n	408e9e <__udivdi3+0x126>
  408e0e:	fab3 f683 	clz	r6, r3
  408e12:	2e00      	cmp	r6, #0
  408e14:	d148      	bne.n	408ea8 <__udivdi3+0x130>
  408e16:	428b      	cmp	r3, r1
  408e18:	d302      	bcc.n	408e20 <__udivdi3+0xa8>
  408e1a:	4282      	cmp	r2, r0
  408e1c:	f200 80cd 	bhi.w	408fba <__udivdi3+0x242>
  408e20:	2001      	movs	r0, #1
  408e22:	4631      	mov	r1, r6
  408e24:	e8bd 81f0 	ldmia.w	sp!, {r4, r5, r6, r7, r8, pc}
  408e28:	b912      	cbnz	r2, 408e30 <__udivdi3+0xb8>
  408e2a:	2501      	movs	r5, #1
  408e2c:	fbb5 f5f2 	udiv	r5, r5, r2
  408e30:	fab5 f885 	clz	r8, r5
  408e34:	f1b8 0f00 	cmp.w	r8, #0
  408e38:	d177      	bne.n	408f2a <__udivdi3+0x1b2>
  408e3a:	1b4a      	subs	r2, r1, r5
  408e3c:	ea4f 4e15 	mov.w	lr, r5, lsr #16
  408e40:	b2af      	uxth	r7, r5
  408e42:	2601      	movs	r6, #1
  408e44:	fbb2 f0fe 	udiv	r0, r2, lr
  408e48:	0c23      	lsrs	r3, r4, #16
  408e4a:	fb0e 2110 	mls	r1, lr, r0, r2
  408e4e:	ea43 4101 	orr.w	r1, r3, r1, lsl #16
  408e52:	fb07 f300 	mul.w	r3, r7, r0
  408e56:	428b      	cmp	r3, r1
  408e58:	d907      	bls.n	408e6a <__udivdi3+0xf2>
  408e5a:	1949      	adds	r1, r1, r5
  408e5c:	f100 32ff 	add.w	r2, r0, #4294967295
  408e60:	d202      	bcs.n	408e68 <__udivdi3+0xf0>
  408e62:	428b      	cmp	r3, r1
  408e64:	f200 80ba 	bhi.w	408fdc <__udivdi3+0x264>
  408e68:	4610      	mov	r0, r2
  408e6a:	1ac9      	subs	r1, r1, r3
  408e6c:	b2a4      	uxth	r4, r4
  408e6e:	fbb1 f3fe 	udiv	r3, r1, lr
  408e72:	fb0e 1113 	mls	r1, lr, r3, r1
  408e76:	ea44 4401 	orr.w	r4, r4, r1, lsl #16
  408e7a:	fb07 f703 	mul.w	r7, r7, r3
  408e7e:	42a7      	cmp	r7, r4
  408e80:	d908      	bls.n	408e94 <__udivdi3+0x11c>
  408e82:	1964      	adds	r4, r4, r5
  408e84:	f103 32ff 	add.w	r2, r3, #4294967295
  408e88:	f080 808f 	bcs.w	408faa <__udivdi3+0x232>
  408e8c:	42a7      	cmp	r7, r4
  408e8e:	f240 808c 	bls.w	408faa <__udivdi3+0x232>
  408e92:	3b02      	subs	r3, #2
  408e94:	ea43 4000 	orr.w	r0, r3, r0, lsl #16
  408e98:	4631      	mov	r1, r6
  408e9a:	e8bd 81f0 	ldmia.w	sp!, {r4, r5, r6, r7, r8, pc}
  408e9e:	2600      	movs	r6, #0
  408ea0:	4630      	mov	r0, r6
  408ea2:	4631      	mov	r1, r6
  408ea4:	e8bd 81f0 	ldmia.w	sp!, {r4, r5, r6, r7, r8, pc}
  408ea8:	f1c6 0420 	rsb	r4, r6, #32
  408eac:	fa22 f504 	lsr.w	r5, r2, r4
  408eb0:	40b3      	lsls	r3, r6
  408eb2:	432b      	orrs	r3, r5
  408eb4:	fa20 fc04 	lsr.w	ip, r0, r4
  408eb8:	fa01 f706 	lsl.w	r7, r1, r6
  408ebc:	fa21 f504 	lsr.w	r5, r1, r4
  408ec0:	ea4f 4e13 	mov.w	lr, r3, lsr #16
  408ec4:	ea4c 0707 	orr.w	r7, ip, r7
  408ec8:	fbb5 f8fe 	udiv	r8, r5, lr
  408ecc:	0c39      	lsrs	r1, r7, #16
  408ece:	fb0e 5518 	mls	r5, lr, r8, r5
  408ed2:	fa1f fc83 	uxth.w	ip, r3
  408ed6:	ea41 4505 	orr.w	r5, r1, r5, lsl #16
  408eda:	fb0c f108 	mul.w	r1, ip, r8
  408ede:	42a9      	cmp	r1, r5
  408ee0:	fa02 f206 	lsl.w	r2, r2, r6
  408ee4:	d904      	bls.n	408ef0 <__udivdi3+0x178>
  408ee6:	18ed      	adds	r5, r5, r3
  408ee8:	f108 34ff 	add.w	r4, r8, #4294967295
  408eec:	d367      	bcc.n	408fbe <__udivdi3+0x246>
  408eee:	46a0      	mov	r8, r4
  408ef0:	1a6d      	subs	r5, r5, r1
  408ef2:	b2bf      	uxth	r7, r7
  408ef4:	fbb5 f4fe 	udiv	r4, r5, lr
  408ef8:	fb0e 5514 	mls	r5, lr, r4, r5
  408efc:	ea47 4105 	orr.w	r1, r7, r5, lsl #16
  408f00:	fb0c fc04 	mul.w	ip, ip, r4
  408f04:	458c      	cmp	ip, r1
  408f06:	d904      	bls.n	408f12 <__udivdi3+0x19a>
  408f08:	18c9      	adds	r1, r1, r3
  408f0a:	f104 35ff 	add.w	r5, r4, #4294967295
  408f0e:	d35c      	bcc.n	408fca <__udivdi3+0x252>
  408f10:	462c      	mov	r4, r5
  408f12:	ea44 4408 	orr.w	r4, r4, r8, lsl #16
  408f16:	ebcc 0101 	rsb	r1, ip, r1
  408f1a:	fba4 2302 	umull	r2, r3, r4, r2
  408f1e:	4299      	cmp	r1, r3
  408f20:	d348      	bcc.n	408fb4 <__udivdi3+0x23c>
  408f22:	d044      	beq.n	408fae <__udivdi3+0x236>
  408f24:	4620      	mov	r0, r4
  408f26:	2600      	movs	r6, #0
  408f28:	e76c      	b.n	408e04 <__udivdi3+0x8c>
  408f2a:	f1c8 0420 	rsb	r4, r8, #32
  408f2e:	fa01 f308 	lsl.w	r3, r1, r8
  408f32:	fa05 f508 	lsl.w	r5, r5, r8
  408f36:	fa20 f704 	lsr.w	r7, r0, r4
  408f3a:	40e1      	lsrs	r1, r4
  408f3c:	ea4f 4e15 	mov.w	lr, r5, lsr #16
  408f40:	431f      	orrs	r7, r3
  408f42:	fbb1 f6fe 	udiv	r6, r1, lr
  408f46:	0c3a      	lsrs	r2, r7, #16
  408f48:	fb0e 1116 	mls	r1, lr, r6, r1
  408f4c:	fa1f fc85 	uxth.w	ip, r5
  408f50:	ea42 4301 	orr.w	r3, r2, r1, lsl #16
  408f54:	fb0c f206 	mul.w	r2, ip, r6
  408f58:	429a      	cmp	r2, r3
  408f5a:	fa00 f408 	lsl.w	r4, r0, r8
  408f5e:	d907      	bls.n	408f70 <__udivdi3+0x1f8>
  408f60:	195b      	adds	r3, r3, r5
  408f62:	f106 31ff 	add.w	r1, r6, #4294967295
  408f66:	d237      	bcs.n	408fd8 <__udivdi3+0x260>
  408f68:	429a      	cmp	r2, r3
  408f6a:	d935      	bls.n	408fd8 <__udivdi3+0x260>
  408f6c:	3e02      	subs	r6, #2
  408f6e:	442b      	add	r3, r5
  408f70:	1a9b      	subs	r3, r3, r2
  408f72:	b2bf      	uxth	r7, r7
  408f74:	fbb3 f0fe 	udiv	r0, r3, lr
  408f78:	fb0e 3310 	mls	r3, lr, r0, r3
  408f7c:	ea47 4303 	orr.w	r3, r7, r3, lsl #16
  408f80:	fb0c f100 	mul.w	r1, ip, r0
  408f84:	4299      	cmp	r1, r3
  408f86:	d907      	bls.n	408f98 <__udivdi3+0x220>
  408f88:	195b      	adds	r3, r3, r5
  408f8a:	f100 32ff 	add.w	r2, r0, #4294967295
  408f8e:	d221      	bcs.n	408fd4 <__udivdi3+0x25c>
  408f90:	4299      	cmp	r1, r3
  408f92:	d91f      	bls.n	408fd4 <__udivdi3+0x25c>
  408f94:	3802      	subs	r0, #2
  408f96:	442b      	add	r3, r5
  408f98:	1a5a      	subs	r2, r3, r1
  408f9a:	ea40 4606 	orr.w	r6, r0, r6, lsl #16
  408f9e:	4667      	mov	r7, ip
  408fa0:	e750      	b.n	408e44 <__udivdi3+0xcc>
  408fa2:	4610      	mov	r0, r2
  408fa4:	e716      	b.n	408dd4 <__udivdi3+0x5c>
  408fa6:	460b      	mov	r3, r1
  408fa8:	e729      	b.n	408dfe <__udivdi3+0x86>
  408faa:	4613      	mov	r3, r2
  408fac:	e772      	b.n	408e94 <__udivdi3+0x11c>
  408fae:	40b0      	lsls	r0, r6
  408fb0:	4290      	cmp	r0, r2
  408fb2:	d2b7      	bcs.n	408f24 <__udivdi3+0x1ac>
  408fb4:	1e60      	subs	r0, r4, #1
  408fb6:	2600      	movs	r6, #0
  408fb8:	e724      	b.n	408e04 <__udivdi3+0x8c>
  408fba:	4630      	mov	r0, r6
  408fbc:	e722      	b.n	408e04 <__udivdi3+0x8c>
  408fbe:	42a9      	cmp	r1, r5
  408fc0:	d995      	bls.n	408eee <__udivdi3+0x176>
  408fc2:	f1a8 0802 	sub.w	r8, r8, #2
  408fc6:	441d      	add	r5, r3
  408fc8:	e792      	b.n	408ef0 <__udivdi3+0x178>
  408fca:	458c      	cmp	ip, r1
  408fcc:	d9a0      	bls.n	408f10 <__udivdi3+0x198>
  408fce:	3c02      	subs	r4, #2
  408fd0:	4419      	add	r1, r3
  408fd2:	e79e      	b.n	408f12 <__udivdi3+0x19a>
  408fd4:	4610      	mov	r0, r2
  408fd6:	e7df      	b.n	408f98 <__udivdi3+0x220>
  408fd8:	460e      	mov	r6, r1
  408fda:	e7c9      	b.n	408f70 <__udivdi3+0x1f8>
  408fdc:	3802      	subs	r0, #2
  408fde:	4429      	add	r1, r5
  408fe0:	e743      	b.n	408e6a <__udivdi3+0xf2>
  408fe2:	bf00      	nop

00408fe4 <p_uc_charset10x14>:
	...
  409000:	ccff ccff 0000 0000 0000 0000 0000 0000     ................
  409010:	00f0 00f0 0000 0000 00f0 00f0 0000 0000     ................
  409020:	c00c c00c fcff fcff c00c c00c fcff fcff     ................
  409030:	c00c c00c 600c 701e 303f 3033 fcff fcff     .....`.p?030....
  409040:	3033 f033 e039 c018 0060 0cf0 3cf0 f060     303.9...`....<`.
  409050:	c003 000f 183c 3cf0 3cc0 1800 f03c f87f     ....<..<.<..<...
  409060:	1cc3 8cc7 cccf ecdc 7878 3030 fc00 cc00     ........xx00....
  409070:	0000 0000 0000 0044 00ec 00f8 0070 0000     ......D.....p...
	...
  409088:	c00f f03f 7878 1860 0cc0 0cc0 0000 0000     ..?.xx`.........
  409098:	0000 0000 0cc0 0cc0 1860 7878 f03f c00f     ........`.xx?...
  4090a8:	0000 0000 600c e00e c007 8003 f83f f83f     .....`......?.?.
  4090b8:	8003 c007 e00e 600c 0003 0003 0003 0003     .......`........
  4090c8:	f03f f03f 0003 0003 0003 0003 4400 ec00     ?.?..........D..
  4090d8:	f800 7000 0000 0000 0000 0000 0000 0000     ...p............
  4090e8:	0003 0003 0003 0003 0003 0003 0003 0003     ................
  4090f8:	0003 0003 1800 3c00 3c00 1800 0000 0000     .......<.<......
	...
  409110:	0000 0c00 3c00 f000 c003 000f 003c 00f0     .....<......<...
  409120:	00c0 0000 f03f f87f fce0 ccc1 8cc3 0cc7     ....?...........
  409130:	0cce 1cfc f87f f03f 0000 0000 0c30 0c70     ......?.....0.p.
  409140:	fcff fcff 0c00 0c00 0000 0000 0c30 1c70     ............0.p.
  409150:	3ce0 7cc0 ecc0 ccc1 8cc3 0ce7 0c7e 0c3c     .<.|........~.<.
  409160:	3030 3870 1ce0 0cc0 0cc0 0cc3 0cc3 1ce3     00p8............
  409170:	f87f f03c c003 c007 c00e c01c c038 c070     ..<.........8.p.
  409180:	fcff fcff c000 c000 30fc 38fc 1ccc 0ccc     .........0.8....
  409190:	0ccc 0ccc 0ccc 1cce f8c7 f0c3 f03f f87f     ............?...
  4091a0:	1ce3 0cc3 0cc3 0cc3 0cc3 9ce3 f871 f030     ............q.0.
  4091b0:	00c0 00c0 00c0 00c0 fcc3 fcc7 00ce 00dc     ................
  4091c0:	00f8 00f0 f03c f87f 9ce7 0cc3 0cc3 0cc3     ....<...........
  4091d0:	0cc3 9ce7 f87f f03c 003c 007e 0ce7 0cc3     ......<.<.~.....
  4091e0:	1cc3 38c3 70c3 e0e7 c07f 803f 0000 0000     ...8.p....?.....
  4091f0:	0000 6018 f03c f03c 6018 0000 0000 0000     ...`<.<..`......
  409200:	0000 0000 0000 4418 ec3c f83c 7018 0000     .......D<.<..p..
  409210:	0000 0000 0000 0003 8007 c00f e01c 7038     ..............8p
  409220:	3870 1ce0 0cc0 0000 c00c c00c c00c c00c     p8..............
  409230:	c00c c00c c00c c00c c00c c00c 0000 0cc0     ................
  409240:	1ce0 3870 7038 e01c c00f 8007 0003 0000     ..p88p..........
  409250:	0030 0070 00e0 00c0 ecc1 ecc3 00c3 00e6     0.p.............
  409260:	007e 003c f030 f871 9ce3 0cc3 fcc3 fcc3     ~.<.0.q.........
  409270:	0cc0 1ce0 f87f f03f fc3f fc7f c0e0 c0c0     ......?.?.......
  409280:	c0c0 c0c0 c0c0 c0e0 fc7f fc3f fcff fcff     ..........?.....
  409290:	0cc3 0cc3 0cc3 0cc3 0cc3 9ce7 f87f f03c     ..............<.
  4092a0:	f03f f87f 1ce0 0cc0 0cc0 0cc0 0cc0 1ce0     ?...............
  4092b0:	3870 3030 fcff fcff 0cc0 0cc0 0cc0 0cc0     p800............
  4092c0:	0cc0 1ce0 f87f f03f fcff fcff 0cc3 0cc3     ......?.........
  4092d0:	0cc3 0cc3 0cc3 0cc3 0cc0 0cc0 fcff fcff     ................
  4092e0:	00c3 00c3 00c3 00c3 00c3 00c3 00c0 00c0     ................
  4092f0:	f03f f87f 1ce0 0cc0 0cc0 0cc3 0cc3 1ce3     ?...............
  409300:	f873 f033 fcff fcff 0003 0003 0003 0003     s.3.............
  409310:	0003 0003 fcff fcff 0000 0000 0cc0 0cc0     ................
  409320:	fcff fcff 0cc0 0cc0 0000 0000 3000 3800     .............0.8
  409330:	1cc0 0cc0 0cc0 1cc0 f8ff f0ff 00c0 00c0     ................
  409340:	fcff fcff 8007 8007 c00f e01c 7038 3870     ............8pp8
  409350:	1ce0 0cc0 fcff fcff 0c00 0c00 0c00 0c00     ................
  409360:	0c00 0c00 0c00 0c00 fcff fcff 0070 0038     ............p.8.
  409370:	001f 001f 0038 0070 fcff fcff fcff fcff     ....8.p.........
  409380:	001c 000e 0007 8003 c001 e000 fcff fcff     ................
  409390:	f03f f87f 1ce0 0cc0 0cc0 0cc0 0cc0 1ce0     ?...............
  4093a0:	f87f f03f fcff fcff 00c3 00c3 00c3 00c3     ..?.............
  4093b0:	00c3 00e7 007e 003c f03f f87f 1ce0 0cc0     ....~.<.?.......
  4093c0:	ccc0 ecc0 7cc0 38e0 fc7f ec3f fcff fcff     .....|.8..?.....
  4093d0:	00c3 80c3 80c3 c0c3 c0c3 70e7 3c7e 1c3c     ...........p~<<.
  4093e0:	183c 1c7e 0ce7 0cc3 0cc3 0cc3 0cc3 9cc3     <.~.............
  4093f0:	f8e1 f060 00c0 00c0 00c0 00c0 fcff fcff     ..`.............
  409400:	00c0 00c0 00c0 00c0 f0ff f8ff 1c00 0c00     ................
  409410:	0c00 0c00 0c00 1c00 f8ff f0ff c0ff e0ff     ................
  409420:	7000 3800 1c00 1c00 3800 7000 e0ff c0ff     .p.8.....8.p....
  409430:	f0ff f8ff 1c00 3c00 f800 f800 3c00 1c00     .......<.....<..
  409440:	f8ff f0ff 3cf0 7cf8 e01c c00f 8007 8007     .....<.|........
  409450:	c00f e01c 7cf8 3cf0 00fc 00fe 0007 8003     .....|.<........
  409460:	fc01 fc01 8003 0007 00fe 00fc 3cc0 7cc0     .............<.|
  409470:	ecc0 ccc1 8cc3 0cc7 0cce 0cdc 0cf8 0cf0     ................
  409480:	0000 0000 fcff fcff 0cc0 0cc0 0cc0 0000     ................
  409490:	0000 0000 0030 0030 000c 000c 0003 0003     ....0.0.........
  4094a0:	c000 c000 3000 3000 0000 0000 0cc0 0cc0     .....0.0........
  4094b0:	0cc0 fcff fcff 0000 0000 0000 000c 001c     ................
  4094c0:	0038 0070 00e0 00e0 0070 0038 001c 000c     8.p.....p.8.....
  4094d0:	0c00 0c00 0c00 0c00 0c00 0c00 0c00 0c00     ................
  4094e0:	0c00 0c00 0000 0000 00c0 00e0 0070 0038     ............p.8.
  4094f0:	0018 0000 0000 0000 3000 7806 fc0e cc0c     .........0.x....
  409500:	cc0c cc0c cc0c cc0e fc07 f803 fcff fcff     ................
  409510:	0c03 0c03 0c03 0c03 0c03 9c03 f801 f000     ................
  409520:	f003 f807 1c0e 0c0c 0c0c 0c0c 0c0c 1c0e     ................
  409530:	3807 3003 f000 f801 9c03 0c03 0c03 0c03     .8.0............
  409540:	0c03 0c03 fcff fcff f003 f807 dc0e cc0c     ................
  409550:	cc0c cc0c cc0c dc0e d807 9003 0000 0003     ................
  409560:	fc3f fc7f 00e3 00e3 0070 0030 0000 0000     ?.......p.0.....
  409570:	1803 9c07 cc0f cc0c cc0c cc0c cc0c dc0c     ................
  409580:	f80f f007 fcff fcff 0003 0003 0003 0003     ................
  409590:	8003 fc01 fc00 0000 0000 0000 0000 0000     ................
  4095a0:	fc1b fc1b 0000 0000 0000 0000 0000 3000     ...............0
  4095b0:	3800 1c00 0c00 0c00 1c00 f8cf f0cf 0000     .8..............
  4095c0:	0000 fcff fcff e000 e001 f003 3807 1c0e     .............8..
  4095d0:	0c0c 0000 0000 0000 0cc0 0cc0 fcff fcff     ................
  4095e0:	0c00 0c00 0000 0000 fc0f fc0f 000e 0007     ................
  4095f0:	c003 c003 0007 000e fc0f fc0f fc0f fc0f     ................
  409600:	0003 0007 000e 000c 000c 000e fc07 fc03     ................
  409610:	f003 f807 1c0e 0c0c 0c0c 0c0c 0c0c 1c0e     ................
  409620:	f807 f003 fc0f fc0f c00c c00c c00c c00c     ................
  409630:	c00c c00f 8007 0003 0003 8007 c00f c00c     ................
  409640:	c00c c00c c00c c00c fc0f fc0f fc0f fc0f     ................
  409650:	8003 0007 000e 000c 000c 000e 0007 0003     ................
  409660:	1803 9c07 cc0f cc0c cc0c cc0c cc0c fc0c     ................
  409670:	780e 3006 0000 000c 000c f0ff f8ff 1c0c     .x.0............
  409680:	1c0c 380c 300c 0000 f00f f80f 1c00 0c00     ...8.0..........
  409690:	0c00 0c00 0c00 1c00 f80f f00f c00f e00f     ................
  4096a0:	7000 3800 1c00 1c00 3800 7000 e00f c00f     .p.8.....8.p....
  4096b0:	f00f f80f 1c00 1c00 f800 f800 1c00 1c00     ................
  4096c0:	f80f f00f 0c0c 1c0e 3807 f003 e001 e001     .........8......
  4096d0:	f003 3807 1c0e 0c0c 000c 000e 0c07 9c03     ...8............
  4096e0:	f801 f001 8003 0007 000e 000c 0c0c 1c0c     ................
  4096f0:	3c0c 7c0c ec0c cc0d 8c0f 0c0f 0c0e 0c0c     .<.|............
  409700:	0000 0003 8007 f03f f87c 1ce0 0cc0 0cc0     ......?.|.......
  409710:	0cc0 0000 0c03 0c03 fc3f fc7f 0ce3 0cc3     ........?.......
  409720:	0cc0 0ce0 0c70 0c30 0000 0cc0 0cc0 0cc0     ....p.0.........
  409730:	1ce0 f87c f03f 8007 0003 0000 00c0 00c0     ..|.?...........
  409740:	00c0 00c0 00c0 00c0 00c0 00c0 00c0 00c0     ................
  409750:	fcff fcff fcff fcff fcff fcff fcff fcff     ................
  409760:	fcff fcff 6156 6f6c 2072 203d 6925 0000     ....Valor = %i..
  409770:	6156 6f6c 2072 203d 3225 0066               Valor = %2f.

0040977c <npio2_hw>:
  40977c:	21fb 3ff9 21fb 4009 d97c 4012 21fb 4019     .!.?.!.@|..@.!.@
  40978c:	6a7a 401f d97c 4022 fdbb 4025 21fb 4029     zj.@|."@..%@.!)@
  40979c:	463a 402c 6a7a 402f 475c 4031 d97c 4032     :F,@zj/@\G1@|.2@
  4097ac:	6b9c 4034 fdbb 4035 8fdb 4037 21fb 4039     .k4@..5@..7@.!9@
  4097bc:	b41b 403a 463a 403c d85a 403d 6a7a 403f     ..:@:F<@Z.=@zj?@
  4097cc:	7e4c 4040 475c 4041 106c 4042 d97c 4042     L~@@\GA@l.B@|.B@
  4097dc:	a28c 4043 6b9c 4044 34ac 4045 fdbb 4045     ..C@.kD@.4E@..E@
  4097ec:	c6cb 4046 8fdb 4047 58eb 4048 21fb 4049     ..F@..G@.XH@.!I@

004097fc <two_over_pi>:
  4097fc:	f983 00a2 4e44 006e 29fc 0015 57d1 0027     ....DNn..)...W'.
  40980c:	34dd 00f5 db62 00c0 993c 0095 9041 0043     .4..b...<...A.C.
  40981c:	5163 00fe debb 00ab 61b7 00c5 6e3a 0024     cQ.......a..:n$.
  40982c:	4dd2 0042 0649 00e0 ea09 002e 921c 00d1     .MB.I...........
  40983c:	1deb 00fe b129 001c 3ee8 00a7 35f5 0082     ....)....>...5..
  40984c:	bb44 002e e99c 0084 26b4 0070 7e41 005f     D........&p.A~_.
  40985c:	91d6 0039 8353 0039 f49c 0039 5f8b 0084     ..9.S.9...9.._..
  40986c:	f928 00bd 1ff8 003b ffde 0097 980f 0005     (.....;.........
  40987c:	2f11 00ef 5a0a 008b 1f6d 006d 7ecf 0036     ./...Z..m.m..~6.
  40988c:	cb09 0027 4f46 00b7 669e 003f ea2d 005f     ..'.FO...f?.-._.
  40989c:	27ba 0075 ebe5 00c7 7b3d 00f1 39f7 0007     .'u.....={...9..
  4098ac:	5292 008a 6bfb 00ea b11f 005f 5d08 008d     .R...k...._..]..
  4098bc:	0330 0056 fc7b 0046 abf0 006b bc20 00cf     0.V.{.F...k. ...
  4098cc:	f436 009a a9e3 001d 615e 0091 1b08 00e6     6.......^a......
  4098dc:	9985 0065 14a0 005f 408d 0068 d880 00ff     ..e..._..@h.....
  4098ec:	7327 004d 0606 0031 56ca 0015 a8c9 0073     'sM...1..V....s.
  4098fc:	e27b 0060 8c6b 00c0                         {.`.k...

00409904 <init_jk>:
  409904:	0002 0000 0003 0000 0004 0000 0006 0000     ................
  409914:	0000 0000                                   ....

00409918 <PIo2>:
  409918:	0000 4000 21fb 3ff9 0000 0000 442d 3e74     ...@.!.?....-Dt>
  409928:	0000 8000 4698 3cf8 0000 6000 cc51 3b78     .....F.<...`Q.x;
  409938:	0000 8000 1b83 39f0 0000 4000 2520 387a     .......9...@ %z8
  409948:	0000 8000 8222 36e3 0000 0000 f31d 3569     ...."..6......i5
  409958:	0043 0000                                   C...

0040995c <_global_impure_ptr>:
  40995c:	0010 2000                                   ... 

00409960 <zeroes.6911>:
  409960:	3030 3030 3030 3030 3030 3030 3030 3030     0000000000000000

00409970 <blanks.6910>:
  409970:	2020 2020 2020 2020 2020 2020 2020 2020                     
  409980:	4e49 0046 6e69 0066 414e 004e 616e 006e     INF.inf.NAN.nan.
  409990:	3130 3332 3534 3736 3938 4241 4443 4645     0123456789ABCDEF
  4099a0:	0000 0000 3130 3332 3534 3736 3938 6261     ....0123456789ab
  4099b0:	6463 6665 0000 0000 6e28 6c75 296c 0000     cdef....(null)..
  4099c0:	0030 0000 6e49 6966 696e 7974 0000 0000     0...Infinity....
  4099d0:	614e 004e 4f50 4953 0058 0000 002e 0000     NaN.POSIX.......

004099e0 <__mprec_tens>:
  4099e0:	0000 0000 0000 3ff0 0000 0000 0000 4024     .......?......$@
  4099f0:	0000 0000 0000 4059 0000 0000 4000 408f     ......Y@.....@.@
  409a00:	0000 0000 8800 40c3 0000 0000 6a00 40f8     .......@.....j.@
  409a10:	0000 0000 8480 412e 0000 0000 12d0 4163     .......A......cA
  409a20:	0000 0000 d784 4197 0000 0000 cd65 41cd     .......A....e..A
  409a30:	0000 2000 a05f 4202 0000 e800 4876 4237     ... _..B....vH7B
  409a40:	0000 a200 1a94 426d 0000 e540 309c 42a2     ......mB..@..0.B
  409a50:	0000 1e90 bcc4 42d6 0000 2634 6bf5 430c     .......B..4&.k.C
  409a60:	8000 37e0 c379 4341 a000 85d8 3457 4376     ...7y.AC....W4vC
  409a70:	c800 674e c16d 43ab 3d00 6091 58e4 43e1     ..Ngm..C.=.`.X.C
  409a80:	8c40 78b5 af1d 4415 ef50 d6e2 1ae4 444b     @..x...DP.....KD
  409a90:	d592 064d f0cf 4480 4af6 c7e1 2d02 44b5     ..M....D.J...-.D
  409aa0:	9db4 79d9 7843 44ea                         ...yCx.D

00409aa8 <p05.5302>:
  409aa8:	0005 0000 0019 0000 007d 0000 0000 0000     ........}.......

00409ab8 <__mprec_bigtens>:
  409ab8:	8000 37e0 c379 4341 6e17 b505 b8b5 4693     ...7y.AC.n.....F
  409ac8:	f9f5 e93f 4f03 4d38 1d32 f930 7748 5a82     ..?..O8M2.0.Hw.Z
  409ad8:	bf3c 7f73 4fdd 7515                         <.s..O.u

00409ae0 <_init>:
  409ae0:	b5f8      	push	{r3, r4, r5, r6, r7, lr}
  409ae2:	bf00      	nop
  409ae4:	bcf8      	pop	{r3, r4, r5, r6, r7}
  409ae6:	bc08      	pop	{r3}
  409ae8:	469e      	mov	lr, r3
  409aea:	4770      	bx	lr

00409aec <__init_array_start>:
  409aec:	004063d5 	.word	0x004063d5

00409af0 <__frame_dummy_init_array_entry>:
  409af0:	004000f1                                ..@.

00409af4 <_fini>:
  409af4:	b5f8      	push	{r3, r4, r5, r6, r7, lr}
  409af6:	bf00      	nop
  409af8:	bcf8      	pop	{r3, r4, r5, r6, r7}
  409afa:	bc08      	pop	{r3}
  409afc:	469e      	mov	lr, r3
  409afe:	4770      	bx	lr

00409b00 <__fini_array_start>:
  409b00:	004000cd 	.word	0x004000cd
